 GameClient

 Timestamp is 6469dbfa (Sun May 21 17:53:14 2023)

 Preferred load address is 0000000140000000

 Start         Length     Name                   Class
 0001:00000000 00000f20H .text$di                CODE
 0001:00000f20 000b5660H .text$mn                CODE
 0001:000b6580 00000040H .text$mn$00             CODE
 0001:000b65c0 00004fb0H .text$x                 CODE
 0001:000bb570 0000054fH .text$yd                CODE
 0002:00000000 000007d8H .idata$5                DATA
 0002:000007d8 00000038H .00cfg                  DATA
 0002:00000810 00000008H .CRT$XCA                DATA
 0002:00000818 00000008H .CRT$XCAA               DATA
 0002:00000820 00000148H .CRT$XCL                DATA
 0002:00000968 000000a8H .CRT$XCU                DATA
 0002:00000a10 00000008H .CRT$XCZ                DATA
 0002:00000a18 00000008H .CRT$XDA                DATA
 0002:00000a20 00000008H .CRT$XDU                DATA
 0002:00000a28 00000008H .CRT$XDZ                DATA
 0002:00000a30 00000008H .CRT$XIA                DATA
 0002:00000a38 00000008H .CRT$XIAA               DATA
 0002:00000a40 00000008H .CRT$XIAC               DATA
 0002:00000a48 00000008H .CRT$XIC                DATA
 0002:00000a50 00000008H .CRT$XIZ                DATA
 0002:00000a58 00000008H .CRT$XLA                DATA
 0002:00000a60 00000008H .CRT$XLC                DATA
 0002:00000a68 00000008H .CRT$XLD                DATA
 0002:00000a70 00000008H .CRT$XLZ                DATA
 0002:00000a78 00000008H .CRT$XPA                DATA
 0002:00000a80 00000008H .CRT$XPZ                DATA
 0002:00000a88 00000008H .CRT$XTA                DATA
 0002:00000a90 00000010H .CRT$XTZ                DATA
 0002:00000a98 00000000H .gehcont$y              DATA
 0002:00000a98 00000000H .gfids$y                DATA
 0002:00000a98 00000000H .giats$y                DATA
 0002:00000aa0 0000cf60H .rdata                  DATA
 0002:0000da00 00000000H .rdata$CastGuardVftablesA DATA
 0002:0000da00 00000000H .rdata$CastGuardVftablesC DATA
 0002:0000da00 00000030H .rdata$T                DATA
 0002:0000da30 00004c34H .rdata$r                DATA
 0002:00012664 000000a0H .rdata$voltmd           DATA
 0002:00012704 00000484H .rdata$zzzdbg           DATA
 0002:00012b88 00000008H .rtc$IAA                DATA
 0002:00012b90 00000008H .rtc$IZZ                DATA
 0002:00012b98 00000008H .rtc$TAA                DATA
 0002:00012ba0 00000020H .rtc$TZZ                DATA
 0002:00012bc0 00000040H .tls                    DATA
 0002:00012c00 00000180H .tls$                   DATA
 0002:00012d80 00000008H .tls$ZZZ                DATA
 0002:00012d88 0000fb80H .xdata                  DATA
 0002:00022908 0000020cH .xdata$x                DATA
 0002:00022b14 00000000H .edata                  DATA
 0002:00022b14 0000012cH .idata$2                DATA
 0002:00022c40 00000018H .idata$3                DATA
 0002:00022c58 000007d8H .idata$4                DATA
 0002:00023430 00001f20H .idata$6                DATA
 0003:00000000 00002210H .data                   DATA
 0003:00002210 000017b0H .data$r                 DATA
 0003:000039c0 00002100H .data$rs                DATA
 0003:00005ac0 00400b68H .bss                    DATA
 0004:00000000 00008f88H .pdata                  DATA
 0005:00000000 00000060H .rsrc$01                DATA
 0005:00000060 00000180H .rsrc$02                DATA

  Address         Publics by Value              Rva+Base               Lib:Object

 0000:00000000       __AbsoluteZero             0000000000000000     <absolute>
 0000:00000000       ___safe_se_handler_count   0000000000000000     <absolute>
 0000:00000000       ___safe_se_handler_table   0000000000000000     <absolute>
 0000:00000000       __arm64x_extra_rfe_table   0000000000000000     <absolute>
 0000:00000000       __arm64x_extra_rfe_table_size 0000000000000000     <absolute>
 0000:00000000       __arm64x_native_entrypoint 0000000000000000     <absolute>
 0000:00000000       __arm64x_redirection_metadata 0000000000000000     <absolute>
 0000:00000000       __arm64x_redirection_metadata_count 0000000000000000     <absolute>
 0000:00000000       __dynamic_value_reloc_table 0000000000000000     <absolute>
 0000:00000000       __enclave_config           0000000000000000     <absolute>
 0000:00000000       __guard_check_icall_a64n_fptr 0000000000000000     <absolute>
 0000:00000000       __guard_eh_cont_count      0000000000000000     <absolute>
 0000:00000000       __guard_eh_cont_table      0000000000000000     <absolute>
 0000:00000000       __guard_fids_count         0000000000000000     <absolute>
 0000:00000000       __guard_fids_table         0000000000000000     <absolute>
 0000:00000000       __guard_iat_count          0000000000000000     <absolute>
 0000:00000000       __guard_iat_table          0000000000000000     <absolute>
 0000:00000000       __guard_longjmp_count      0000000000000000     <absolute>
 0000:00000000       __guard_longjmp_table      0000000000000000     <absolute>
 0000:00000000       __hybrid_auxiliary_iat     0000000000000000     <absolute>
 0000:00000000       __hybrid_auxiliary_iat_copy 0000000000000000     <absolute>
 0000:00000000       __hybrid_code_map          0000000000000000     <absolute>
 0000:00000000       __hybrid_code_map_count    0000000000000000     <absolute>
 0000:00000000       __x64_code_ranges_to_entry_points 0000000000000000     <absolute>
 0000:00000000       __x64_code_ranges_to_entry_points_count 0000000000000000     <absolute>
 0000:00000100       __guard_flags              0000000000000100     <absolute>
 0000:00000000       __ImageBase                0000000140000000     <linker-defined>
 0001:00000f20       ??_EActor@@UEAAPEAXI@Z     0000000140001f20 f i * CIL library *:* CIL module *
 0001:00000f20       ??_GActor@@UEAAPEAXI@Z     0000000140001f20 f i Actor.obj
 0001:00000f60       ??1Actor@@UEAA@XZ          0000000140001f60 f   Actor.obj
 0001:00001000       ?Close@ClientService@@UEAAXXZ 0000000140002000 f   ServerCore:NetworkService.obj
 0001:00001000       ?Close@NetworkService@@UEAAXXZ 0000000140002000 f   ServerCore:NetworkService.obj
 0001:00001000       ?Initialize@Actor@@UEAAXXZ 0000000140002000 f   Actor.obj
 0001:00001000       ?Initialize@Tile@@UEAAXXZ  0000000140002000 f   Tile.obj
 0001:00001000       ?OnConnected@Session@@MEAAXXZ 0000000140002000 f   ServerCore:Session.obj
 0001:00001000       ?OnDemandRegisterArenaDtor@MessageLite@protobuf@google@@UEAAXPEAVArena@23@@Z 0000000140002000 f   Protocol.pb.obj
 0001:00001000       ?OnDisconnected@Session@@MEAAXXZ 0000000140002000 f   ServerCore:Session.obj
 0001:00001000       ?OnSend@ServerSession@@UEAAXH@Z 0000000140002000 f   ServerSession.obj
 0001:00001000       ?OnSend@Session@@MEAAXH@Z  0000000140002000 f   ServerCore:Session.obj
 0001:00001000       ?ProcessInput@Component@@UEAAXAEBUInputState@@@Z 0000000140002000 f   Component.obj
 0001:00001000       ?SpecificActorUpdate@Actor@@UEAAXM@Z 0000000140002000 f   Actor.obj
 0001:00001000       ?SpecificActorUpdate@Grid@@UEAAXM@Z 0000000140002000 f   Grid.obj
 0001:00001000       ?SpecificProcessInput@Actor@@UEAAXAEBUInputState@@@Z 0000000140002000 f   Actor.obj
 0001:00001000       ?Update@Component@@UEAAXM@Z 0000000140002000 f   Component.obj
 0001:00001000       ?Update@GUIScreen@@UEAAXM@Z 0000000140002000 f   GUIScreen.obj
 0001:00001000       _guard_check_icall_nop     0000000140002000 f   MSVCRT:guard_support.obj
 0001:00001000       _initialize_denormal_control 0000000140002000 f   MSVCRT:denormal_control.obj
 0001:00001000       _initialize_invalid_parameter_handler 0000000140002000 f   MSVCRT:invalid_parameter_handler.obj
 0001:00001010       ??1?$vector@V?$shared_ptr@VActor@@@std@@V?$allocator@V?$shared_ptr@VActor@@@std@@@2@@std@@QEAA@XZ 0000000140002010 f i ActorManager.obj
 0001:00001010       ??1?$vector@V?$shared_ptr@VComponent@@@std@@V?$allocator@V?$shared_ptr@VComponent@@@std@@@2@@std@@QEAA@XZ 0000000140002010 f i Actor.obj
 0001:00001080       ??$_Destroy_range@V?$StlAllocator@V?$shared_ptr@VSendBuffer@@@std@@@@@std@@YAXPEAV?$shared_ptr@VSendBuffer@@@0@QEAV10@AEAV?$StlAllocator@V?$shared_ptr@VSendBuffer@@@std@@@@@Z 0000000140002080 f i ServerCore:Session.obj
 0001:00001080       ??$_Destroy_range@V?$StlAllocator@V?$shared_ptr@VSendBufferChunk@@@std@@@@@std@@YAXPEAV?$shared_ptr@VSendBufferChunk@@@0@QEAV10@AEAV?$StlAllocator@V?$shared_ptr@VSendBufferChunk@@@std@@@@@Z 0000000140002080 f i ServerCore:SendBuffer.obj
 0001:00001080       ??$_Destroy_range@V?$allocator@V?$shared_ptr@VActor@@@std@@@std@@@std@@YAXPEAV?$shared_ptr@VActor@@@0@QEAV10@AEAV?$allocator@V?$shared_ptr@VActor@@@std@@@0@@Z 0000000140002080 f i AIDeath.obj
 0001:00001080       ??$_Destroy_range@V?$allocator@V?$shared_ptr@VButton@@@std@@@std@@@std@@YAXPEAV?$shared_ptr@VButton@@@0@QEAV10@AEAV?$allocator@V?$shared_ptr@VButton@@@std@@@0@@Z 0000000140002080 f i GUIManager.obj
 0001:00001080       ??$_Destroy_range@V?$allocator@V?$shared_ptr@VComponent@@@std@@@std@@@std@@YAXPEAV?$shared_ptr@VComponent@@@0@QEAV10@AEAV?$allocator@V?$shared_ptr@VComponent@@@std@@@0@@Z 0000000140002080 f i Actor.obj
 0001:00001080       ??$_Destroy_range@V?$allocator@V?$shared_ptr@VGUIScreen@@@std@@@std@@@std@@YAXPEAV?$shared_ptr@VGUIScreen@@@0@QEAV10@AEAV?$allocator@V?$shared_ptr@VGUIScreen@@@std@@@0@@Z 0000000140002080 f i PlayGameScene.obj
 0001:00001080       ??$_Destroy_range@V?$allocator@V?$shared_ptr@VTile@@@std@@@std@@@std@@YAXPEAV?$shared_ptr@VTile@@@0@QEAV10@AEAV?$allocator@V?$shared_ptr@VTile@@@std@@@0@@Z 0000000140002080 f i Grid.obj
 0001:00001100       ??1?$shared_ptr@VActor@@@std@@QEAA@XZ 0000000140002100 f i AIDeath.obj
 0001:00001100       ??1?$shared_ptr@VButton@@@std@@QEAA@XZ 0000000140002100 f i GUIManager.obj
 0001:00001100       ??1?$shared_ptr@VClientService@@@std@@QEAA@XZ 0000000140002100 f i NetworkManager.obj
 0001:00001100       ??1?$shared_ptr@VComponent@@@std@@QEAA@XZ 0000000140002100 f i Actor.obj
 0001:00001100       ??1?$shared_ptr@VFont@@@std@@QEAA@XZ 0000000140002100 f i AssetManager.obj
 0001:00001100       ??1?$shared_ptr@VGUIScreen@@@std@@QEAA@XZ 0000000140002100 f i PlayGameScene.obj
 0001:00001100       ??1?$shared_ptr@VGame@@@std@@QEAA@XZ 0000000140002100 f i main.obj
 0001:00001100       ??1?$shared_ptr@VGameScene@@@std@@QEAA@XZ 0000000140002100 f i Game.obj
 0001:00001100       ??1?$shared_ptr@VGrid@@@std@@QEAA@XZ 0000000140002100 f i ActorManager.obj
 0001:00001100       ??1?$shared_ptr@VIocpCore@@@std@@QEAA@XZ 0000000140002100 f i NetworkManager.obj
 0001:00001100       ??1?$shared_ptr@VIocpObject@@@std@@QEAA@XZ 0000000140002100 f i ServerSession.obj
 0001:00001100       ??1?$shared_ptr@VNetworkService@@@std@@QEAA@XZ 0000000140002100 f i ServerCore:Session.obj
 0001:00001100       ??1?$shared_ptr@VPacketSession@@@std@@QEAA@XZ 0000000140002100 f i ServerSession.obj
 0001:00001100       ??1?$shared_ptr@VPauseMenu@@@std@@QEAA@XZ 0000000140002100 f i PlayGameScene.obj
 0001:00001100       ??1?$shared_ptr@VPlayGameScene@@@std@@QEAA@XZ 0000000140002100 f i Game.obj
 0001:00001100       ??1?$shared_ptr@VSendBuffer@@@std@@QEAA@XZ 0000000140002100 f i ServerCore:Session.obj
 0001:00001100       ??1?$shared_ptr@VSession@@@std@@QEAA@XZ 0000000140002100 f i NetworkManager.obj
 0001:00001100       ??1?$shared_ptr@VTexture@@@std@@QEAA@XZ 0000000140002100 f i AISkill.obj
 0001:00001150       ??1?$basic_string@_WU?$char_traits@_W@std@@V?$allocator@_W@2@@std@@QEAA@XZ 0000000140002150 f i Actor.obj
 0001:000011c0       ??$_Emplace_reallocate@AEBV?$shared_ptr@VActor@@@std@@@?$vector@V?$shared_ptr@VActor@@@std@@V?$allocator@V?$shared_ptr@VActor@@@std@@@2@@std@@AEAAPEAV?$shared_ptr@VActor@@@1@QEAV21@AEBV21@@Z 00000001400021c0 f i AIDeath.obj
 0001:000011c0       ??$_Emplace_reallocate@AEBV?$shared_ptr@VComponent@@@std@@@?$vector@V?$shared_ptr@VComponent@@@std@@V?$allocator@V?$shared_ptr@VComponent@@@std@@@2@@std@@AEAAPEAV?$shared_ptr@VComponent@@@1@QEAV21@AEBV21@@Z 00000001400021c0 f i AISkill.obj
 0001:000011c0       ??$_Emplace_reallocate@AEBV?$shared_ptr@VGUIScreen@@@std@@@?$vector@V?$shared_ptr@VGUIScreen@@@std@@V?$allocator@V?$shared_ptr@VGUIScreen@@@std@@@2@@std@@AEAAPEAV?$shared_ptr@VGUIScreen@@@1@QEAV21@AEBV21@@Z 00000001400021c0 f i PlayGameScene.obj
 0001:00001420       ?_Xlength@?$vector@EV?$StlAllocator@E@@@std@@CAXXZ 0000000140002420 f i ServerCore:FileHelper.obj
 0001:00001420       ?_Xlength@?$vector@HV?$allocator@H@std@@@std@@CAXXZ 0000000140002420 f i Font.obj
 0001:00001420       ?_Xlength@?$vector@PEAVMemoryPool@@V?$allocator@PEAVMemoryPool@@@std@@@std@@CAXXZ 0000000140002420 f i ServerCore:MemoryPool.obj
 0001:00001420       ?_Xlength@?$vector@PEAVSpriteComponent@@V?$allocator@PEAVSpriteComponent@@@std@@@std@@CAXXZ 0000000140002420 f i RenderManager.obj
 0001:00001420       ?_Xlength@?$vector@PEAVTile@@V?$allocator@PEAVTile@@@std@@@std@@CAXXZ 0000000140002420 f i Grid.obj
 0001:00001420       ?_Xlength@?$vector@PEAVTileSpriteComponent@@V?$allocator@PEAVTileSpriteComponent@@@std@@@std@@CAXXZ 0000000140002420 f i MapManager.obj
 0001:00001420       ?_Xlength@?$vector@UTileSpriteInfo@@V?$allocator@UTileSpriteInfo@@@std@@@std@@CAXXZ 0000000140002420 f i MapManager.obj
 0001:00001420       ?_Xlength@?$vector@U_WSABUF@@V?$StlAllocator@U_WSABUF@@@@@std@@CAXXZ 0000000140002420 f i ServerCore:Session.obj
 0001:00001420       ?_Xlength@?$vector@V?$basic_string@_WU?$char_traits@_W@std@@V?$allocator@_W@2@@std@@V?$allocator@V?$basic_string@_WU?$char_traits@_W@std@@V?$allocator@_W@2@@std@@@2@@std@@CAXXZ 0000000140002420 f i NetworkManager.obj
 0001:00001420       ?_Xlength@?$vector@V?$function@$$A6AXXZ@std@@V?$StlAllocator@V?$function@$$A6AXXZ@std@@@@@std@@CAXXZ 0000000140002420 f i NetworkManager.obj
 0001:00001420       ?_Xlength@?$vector@V?$shared_ptr@VActor@@@std@@V?$allocator@V?$shared_ptr@VActor@@@std@@@2@@std@@CAXXZ 0000000140002420 f i AIDeath.obj
 0001:00001420       ?_Xlength@?$vector@V?$shared_ptr@VButton@@@std@@V?$allocator@V?$shared_ptr@VButton@@@std@@@2@@std@@CAXXZ 0000000140002420 f i GUIManager.obj
 0001:00001420       ?_Xlength@?$vector@V?$shared_ptr@VComponent@@@std@@V?$allocator@V?$shared_ptr@VComponent@@@std@@@2@@std@@CAXXZ 0000000140002420 f i AISkill.obj
 0001:00001420       ?_Xlength@?$vector@V?$shared_ptr@VGUIScreen@@@std@@V?$allocator@V?$shared_ptr@VGUIScreen@@@std@@@2@@std@@CAXXZ 0000000140002420 f i PlayGameScene.obj
 0001:00001420       ?_Xlength@?$vector@V?$shared_ptr@VSendBuffer@@@std@@V?$StlAllocator@V?$shared_ptr@VSendBuffer@@@std@@@@@std@@CAXXZ 0000000140002420 f i ServerCore:Session.obj
 0001:00001420       ?_Xlength@?$vector@V?$shared_ptr@VTile@@@std@@V?$allocator@V?$shared_ptr@VTile@@@std@@@2@@std@@CAXXZ 0000000140002420 f i Grid.obj
 0001:00001420       ?_Xlength@?$vector@V?$vector@PEAVTileSpriteComponent@@V?$allocator@PEAVTileSpriteComponent@@@std@@@std@@V?$allocator@V?$vector@PEAVTileSpriteComponent@@V?$allocator@PEAVTileSpriteComponent@@@std@@@std@@@2@@std@@CAXXZ 0000000140002420 f i MapManager.obj
 0001:00001420       ?_Xlength@?$vector@V?$vector@V?$shared_ptr@VTile@@@std@@V?$allocator@V?$shared_ptr@VTile@@@std@@@2@@std@@V?$allocator@V?$vector@V?$shared_ptr@VTile@@@std@@V?$allocator@V?$shared_ptr@VTile@@@std@@@2@@std@@@2@@std@@CAXXZ 0000000140002420 f i Grid.obj
 0001:00001420       ?_Xlength@?$vector@VXmlNode@@V?$StlAllocator@VXmlNode@@@@@std@@CAXXZ 0000000140002420 f i ServerCore:XmlParser.obj
 0001:00001440       ?_Xlen_string@std@@YAXXZ   0000000140002440 f i AIDeath.obj
 0001:00001460       ??0bad_array_new_length@std@@QEAA@XZ 0000000140002460 f i AIDeath.obj
 0001:00001490       ??1bad_alloc@std@@UEAA@XZ  0000000140002490 f i AIDeath.obj
 0001:00001490       ??1bad_array_new_length@std@@UEAA@XZ 0000000140002490 f i AIDeath.obj
 0001:00001490       ??1bad_cast@std@@UEAA@XZ   0000000140002490 f i AssetManager.obj
 0001:00001490       ??1bad_weak_ptr@std@@UEAA@XZ 0000000140002490 f i AISkill.obj
 0001:00001490       ??1exception@std@@UEAA@XZ  0000000140002490 f i AIDeath.obj
 0001:000014b0       ??_Ebad_alloc@std@@UEAAPEAXI@Z 00000001400024b0 f i * CIL library *:* CIL module *
 0001:000014b0       ??_Ebad_array_new_length@std@@UEAAPEAXI@Z 00000001400024b0 f i * CIL library *:* CIL module *
 0001:000014b0       ??_Ebad_cast@std@@UEAAPEAXI@Z 00000001400024b0 f i * CIL library *:* CIL module *
 0001:000014b0       ??_Ebad_weak_ptr@std@@UEAAPEAXI@Z 00000001400024b0 f i * CIL library *:* CIL module *
 0001:000014b0       ??_Eexception@std@@UEAAPEAXI@Z 00000001400024b0 f i * CIL library *:* CIL module *
 0001:000014b0       ??_Gbad_alloc@std@@UEAAPEAXI@Z 00000001400024b0 f i AIDeath.obj
 0001:000014b0       ??_Gbad_array_new_length@std@@UEAAPEAXI@Z 00000001400024b0 f i AIDeath.obj
 0001:000014b0       ??_Gbad_cast@std@@UEAAPEAXI@Z 00000001400024b0 f i AssetManager.obj
 0001:000014b0       ??_Gbad_weak_ptr@std@@UEAAPEAXI@Z 00000001400024b0 f i AISkill.obj
 0001:000014b0       ??_Gexception@std@@UEAAPEAXI@Z 00000001400024b0 f i AIDeath.obj
 0001:00001500       ??0bad_array_new_length@std@@QEAA@AEBV01@@Z 0000000140002500 f i AIDeath.obj
 0001:00001540       ??0bad_alloc@std@@QEAA@AEBV01@@Z 0000000140002540 f i AIDeath.obj
 0001:00001580       ?what@exception@std@@UEBAPEBDXZ 0000000140002580 f i AIDeath.obj
 0001:000015a0       ??0exception@std@@QEAA@AEBV01@@Z 00000001400025a0 f i AIDeath.obj
 0001:000015e0       ?_Throw_bad_array_new_length@std@@YAXXZ 00000001400025e0 f i AIDeath.obj
 0001:000015e0       ?__scrt_throw_std_bad_array_new_length@@YAXXZ 00000001400025e0 f i MSVCRT:throw_bad_alloc.obj
 0001:00001600       ??$_Construct@$00PEB_W@?$basic_string@_WU?$char_traits@_W@std@@V?$allocator@_W@2@@std@@AEAAXQEB_W_K@Z 0000000140002600 f i AIDeath.obj
 0001:00001730       ??$endl@_WU?$char_traits@_W@std@@@std@@YAAEAV?$basic_ostream@_WU?$char_traits@_W@std@@@0@AEAV10@@Z 0000000140002730 f i AISkill.obj
 0001:00001770       ??$AddComponent@VTransformComponent@@@Actor@@QEAAPEAVTransformComponent@@XZ 0000000140002770 f i AISkill.obj
 0001:000019e0       ??1sentry@?$basic_ostream@_WU?$char_traits@_W@std@@@std@@QEAA@XZ 00000001400029e0 f i AISkill.obj
 0001:00001a20       ??1_Sentry_base@?$basic_istream@_WU?$char_traits@_W@std@@@std@@QEAA@XZ 0000000140002a20 f i MapManager.obj
 0001:00001a20       ??1_Sentry_base@?$basic_ostream@DU?$char_traits@D@std@@@std@@QEAA@XZ 0000000140002a20 f i NetworkManager.obj
 0001:00001a20       ??1_Sentry_base@?$basic_ostream@_WU?$char_traits@_W@std@@@std@@QEAA@XZ 0000000140002a20 f i AISkill.obj
 0001:00001a50       ??$emplace@AEBV?$shared_ptr@VComponent@@@std@@@?$vector@V?$shared_ptr@VComponent@@@std@@V?$allocator@V?$shared_ptr@VComponent@@@std@@@2@@std@@QEAA?AV?$_Vector_iterator@V?$_Vector_val@U?$_Simple_types@V?$shared_ptr@VComponent@@@std@@@std@@@std@@@1@V?$_Vector_const_iterator@V?$_Vector_val@U?$_Simple_types@V?$shared_ptr@VComponent@@@std@@@std@@@std@@@1@AEBV?$shared_ptr@VComponent@@@1@@Z 0000000140002a50 f i AISkill.obj
 0001:00001bf0       ?_Delete_this@?$_Ref_count_obj2@VButton@@@std@@EEAAXXZ 0000000140002bf0 f i GUIScreen.obj
 0001:00001bf0       ?_Delete_this@?$_Ref_count_obj2@VFont@@@std@@EEAAXXZ 0000000140002bf0 f i AssetManager.obj
 0001:00001bf0       ?_Delete_this@?$_Ref_count_obj2@VGame@@@std@@EEAAXXZ 0000000140002bf0 f i main.obj
 0001:00001bf0       ?_Delete_this@?$_Ref_count_obj2@VGrid@@@std@@EEAAXXZ 0000000140002bf0 f i ActorManager.obj
 0001:00001bf0       ?_Delete_this@?$_Ref_count_obj2@VPauseMenu@@@std@@EEAAXXZ 0000000140002bf0 f i PlayGameScene.obj
 0001:00001bf0       ?_Delete_this@?$_Ref_count_obj2@VPlayGameScene@@@std@@EEAAXXZ 0000000140002bf0 f i Game.obj
 0001:00001bf0       ?_Delete_this@?$_Ref_count_obj2@VTexture@@@std@@EEAAXXZ 0000000140002bf0 f i AssetManager.obj
 0001:00001bf0       ?_Delete_this@?$_Ref_count_obj2@VTile@@@std@@EEAAXXZ 0000000140002bf0 f i Grid.obj
 0001:00001bf0       ?_Delete_this@?$_Ref_count_obj2@VTileSpriteComponent@@@std@@EEAAXXZ 0000000140002bf0 f i MapManager.obj
 0001:00001bf0       ?_Delete_this@?$_Ref_count_obj2@VTransformComponent@@@std@@EEAAXXZ 0000000140002bf0 f i AISkill.obj
 0001:00001bf0       ?_Delete_this@?$_Ref_count_resource@PEAVClientService@@P6AXPEAV1@@Z@std@@EEAAXXZ 0000000140002bf0 f i NetworkManager.obj
 0001:00001bf0       ?_Delete_this@?$_Ref_count_resource@PEAVIocpCore@@P6AXPEAV1@@Z@std@@EEAAXXZ 0000000140002bf0 f i NetworkManager.obj
 0001:00001bf0       ?_Delete_this@?$_Ref_count_resource@PEAVServerSession@@P6AXPEAV1@@Z@std@@EEAAXXZ 0000000140002bf0 f i NetworkManager.obj
 0001:00001c10       ?_Destroy@?$_Ref_count_obj2@VGrid@@@std@@EEAAXXZ 0000000140002c10 f i ActorManager.obj
 0001:00001c10       ?_Destroy@?$_Ref_count_obj2@VPauseMenu@@@std@@EEAAXXZ 0000000140002c10 f i PlayGameScene.obj
 0001:00001c10       ?_Destroy@?$_Ref_count_obj2@VPlayGameScene@@@std@@EEAAXXZ 0000000140002c10 f i Game.obj
 0001:00001c10       ?_Destroy@?$_Ref_count_obj2@VTile@@@std@@EEAAXXZ 0000000140002c10 f i Grid.obj
 0001:00001c10       ?_Destroy@?$_Ref_count_obj2@VTileSpriteComponent@@@std@@EEAAXXZ 0000000140002c10 f i MapManager.obj
 0001:00001c10       ?_Destroy@?$_Ref_count_obj2@VTransformComponent@@@std@@EEAAXXZ 0000000140002c10 f i AISkill.obj
 0001:00001c20       ??_E?$_Ref_count_obj2@VTransformComponent@@@std@@UEAAPEAXI@Z 0000000140002c20 f i * CIL library *:* CIL module *
 0001:00001c20       ??_G?$_Ref_count_obj2@VTransformComponent@@@std@@UEAAPEAXI@Z 0000000140002c20 f i AISkill.obj
 0001:00001c50       ?GetClassData@Message@protobuf@google@@MEBAPEBUClassData@123@XZ 0000000140002c50 f i Protocol.pb.obj
 0001:00001c50       ?_Get_deleter@_Ref_count_base@std@@UEBAPEAXAEBVtype_info@@@Z 0000000140002c50 f i AISkill.obj
 0001:00001c50       __scrt_exe_initialize_mta  0000000140002c50 f i MSVCRT:utility_desktop.obj
 0001:00001c50       __scrt_initialize_winrt    0000000140002c50 f i MSVCRT:utility_desktop.obj
 0001:00001c50       __scrt_stub_for_initialize_mta 0000000140002c50 f i MSVCRT:utility_desktop.obj
 0001:00001c50       _get_startup_commit_mode   0000000140002c50 f i MSVCRT:commit_mode.obj
 0001:00001c50       _get_startup_new_mode      0000000140002c50 f i MSVCRT:new_mode.obj
 0001:00001c50       _get_startup_thread_locale_mode 0000000140002c50 f i MSVCRT:thread_locale.obj
 0001:00001c50       _matherr                   0000000140002c50 f i MSVCRT:matherr.obj
 0001:00001c60       ??0bad_weak_ptr@std@@QEAA@XZ 0000000140002c60 f i AISkill.obj
 0001:00001c80       ?what@bad_weak_ptr@std@@UEBAPEBDXZ 0000000140002c80 f i AISkill.obj
 0001:00001c90       ??0bad_weak_ptr@std@@QEAA@AEBV01@@Z 0000000140002c90 f i AISkill.obj
 0001:00001cd0       ?_Throw_bad_weak_ptr@std@@YAXXZ 0000000140002cd0 f i AISkill.obj
 0001:00001cf0       ?deallocate@?$allocator@D@std@@QEAAXQEAD_K@Z 0000000140002cf0 f i AISkill.obj
 0001:00001d30       ??1?$basic_string@DU?$char_traits@D@std@@V?$allocator@D@2@@std@@QEAA@XZ 0000000140002d30 f i AISkill.obj
 0001:00001d30       ?_Tidy_deallocate@?$basic_string@DU?$char_traits@D@std@@V?$allocator@D@2@@std@@AEAAXXZ 0000000140002d30 f i AISkill.obj
 0001:00001d90       ?allocate@?$allocator@D@std@@QEAAPEAD_K@Z 0000000140002d90 f i AISkill.obj
 0001:00001df0       ??$_Construct@$00PEBD@?$basic_string@DU?$char_traits@D@std@@V?$allocator@D@2@@std@@AEAAXQEBD_K@Z 0000000140002df0 f i AISkill.obj
 0001:00001ef0       ??0?$basic_string@DU?$char_traits@D@std@@V?$allocator@D@2@@std@@QEAA@QEBD@Z 0000000140002ef0 f i AISkill.obj
 0001:00001f30       ??0?$basic_string@_WU?$char_traits@_W@std@@V?$allocator@_W@2@@std@@QEAA@AEBV01@@Z 0000000140002f30 f i AnimSpriteComponent.obj
 0001:00002060       ?IsSameType@Component@@UEBA_N_K@Z 0000000140003060 f i CircleComponent.obj
 0001:00002070       ??_EComponent@@UEAAPEAXI@Z 0000000140003070 f i * CIL library *:* CIL module *
 0001:00002070       ??_GComponent@@UEAAPEAXI@Z 0000000140003070 f i Component.obj
 0001:000020d0       ??1Game@@QEAA@XZ           00000001400030d0 f   Game.obj
 0001:00002510       ?Initialize@Game@@QEAA_NXZ 0000000140003510 f   Game.obj
 0001:000028c0       ?Run@Game@@QEAAXXZ         00000001400038c0 f   Game.obj
 0001:00002de0       ??_E?$_Ref_count_obj2@VPlayGameScene@@@std@@UEAAPEAXI@Z 0000000140003de0 f i * CIL library *:* CIL module *
 0001:00002de0       ??_G?$_Ref_count_obj2@VPlayGameScene@@@std@@UEAAPEAXI@Z 0000000140003de0 f i Game.obj
 0001:00002e10       ??_EGameScene@@UEAAPEAXI@Z 0000000140003e10 f i * CIL library *:* CIL module *
 0001:00002e10       ??_EPlayGameScene@@UEAAPEAXI@Z 0000000140003e10 f i * CIL library *:* CIL module *
 0001:00002e10       ??_GGameScene@@UEAAPEAXI@Z 0000000140003e10 f i PlayGameScene.obj
 0001:00002e10       ??_GPlayGameScene@@UEAAPEAXI@Z 0000000140003e10 f i PlayGameScene.obj
 0001:00002e70       ?Initialize@PlayGameScene@@UEAAXXZ 0000000140003e70 f   PlayGameScene.obj
 0001:00002f00       ?ProcessInput@PlayGameScene@@UEAAXAEBUInputState@@@Z 0000000140003f00 f   PlayGameScene.obj
 0001:000031c0       ?Update@PlayGameScene@@UEAAXM@Z 00000001400041c0 f   PlayGameScene.obj
 0001:000032c0       ?Render@PlayGameScene@@UEAAXXZ 00000001400042c0 f   PlayGameScene.obj
 0001:000032d0       ?Clear@PlayGameScene@@UEAAXXZ 00000001400042d0 f   PlayGameScene.obj
 0001:00003510       ??$make_shared@VPauseMenu@@$$V@std@@YA?AV?$shared_ptr@VPauseMenu@@@0@XZ 0000000140004510 f i PlayGameScene.obj
 0001:00003680       ??_E?$_Ref_count_obj2@VPauseMenu@@@std@@UEAAPEAXI@Z 0000000140004680 f i * CIL library *:* CIL module *
 0001:00003680       ??_G?$_Ref_count_obj2@VPauseMenu@@@std@@UEAAPEAXI@Z 0000000140004680 f i PlayGameScene.obj
 0001:000036b0       ?IsSameType@SpriteComponent@@UEBA_N_K@Z 00000001400046b0 f   SpriteComponent.obj
 0001:000036d0       ??_ESpriteComponent@@UEAAPEAXI@Z 00000001400046d0 f i * CIL library *:* CIL module *
 0001:000036d0       ??_GSpriteComponent@@UEAAPEAXI@Z 00000001400046d0 f i SpriteComponent.obj
 0001:00003710       ??1SpriteComponent@@UEAA@XZ 0000000140004710 f   SpriteComponent.obj
 0001:000037a0       ?Render@SpriteComponent@@UEAAXAEBVVector2Int@@@Z 00000001400047a0 f   SpriteComponent.obj
 0001:000039d0       ?SetTexture@SpriteComponent@@UEAAXV?$shared_ptr@VTexture@@@std@@@Z 00000001400049d0 f   SpriteComponent.obj
 0001:00003aa0       ?LateUpdate@ActorManager@@QEAAXXZ 0000000140004aa0 f   ActorManager.obj
 0001:00003d70       ??$make_shared@VGrid@@$$V@std@@YA?AV?$shared_ptr@VGrid@@@0@XZ 0000000140004d70 f i ActorManager.obj
 0001:00003ed0       ??_E?$_Ref_count_obj2@VGrid@@@std@@UEAAPEAXI@Z 0000000140004ed0 f i * CIL library *:* CIL module *
 0001:00003ed0       ??_G?$_Ref_count_obj2@VGrid@@@std@@UEAAPEAXI@Z 0000000140004ed0 f i ActorManager.obj
 0001:00003f00       ??$Remove@V?$vector@V?$shared_ptr@VActor@@@std@@V?$allocator@V?$shared_ptr@VActor@@@std@@@2@@std@@V?$shared_ptr@VActor@@@2@@ActorManager@@AEAAXAEAV?$vector@V?$shared_ptr@VActor@@@std@@V?$allocator@V?$shared_ptr@VActor@@@std@@@2@@std@@V?$shared_ptr@VActor@@@2@@Z 0000000140004f00 f i ActorManager.obj
 0001:00003fd0       ??$?6_WU?$char_traits@_W@std@@@std@@YAAEAV?$basic_ostream@_WU?$char_traits@_W@std@@@0@AEAV10@PEB_W@Z 0000000140004fd0 f i AIMove.obj
 0001:000041a0       ??0AssetManager@@QEAA@XZ   00000001400051a0 f   AssetManager.obj
 0001:000042d0       ??1?$unordered_map@V?$basic_string@DU?$char_traits@D@std@@V?$allocator@D@2@@std@@V?$shared_ptr@VFont@@@2@U?$hash@V?$basic_string@DU?$char_traits@D@std@@V?$allocator@D@2@@std@@@2@U?$equal_to@V?$basic_string@DU?$char_traits@D@std@@V?$allocator@D@2@@std@@@2@V?$allocator@U?$pair@$$CBV?$basic_string@DU?$char_traits@D@std@@V?$allocator@D@2@@std@@V?$shared_ptr@VFont@@@2@@std@@@2@@std@@QEAA@XZ 00000001400052d0 f i AssetManager.obj
 0001:000042d0       ??1?$unordered_map@V?$basic_string@DU?$char_traits@D@std@@V?$allocator@D@2@@std@@V?$shared_ptr@VTexture@@@2@U?$hash@V?$basic_string@DU?$char_traits@D@std@@V?$allocator@D@2@@std@@@2@U?$equal_to@V?$basic_string@DU?$char_traits@D@std@@V?$allocator@D@2@@std@@@2@V?$allocator@U?$pair@$$CBV?$basic_string@DU?$char_traits@D@std@@V?$allocator@D@2@@std@@V?$shared_ptr@VTexture@@@2@@std@@@2@@std@@QEAA@XZ 00000001400052d0 f i AssetManager.obj
 0001:000042e0       ??1?$_Hash@V?$_Umap_traits@V?$basic_string@DU?$char_traits@D@std@@V?$allocator@D@2@@std@@V?$shared_ptr@VFont@@@2@V?$_Uhash_compare@V?$basic_string@DU?$char_traits@D@std@@V?$allocator@D@2@@std@@U?$hash@V?$basic_string@DU?$char_traits@D@std@@V?$allocator@D@2@@std@@@2@U?$equal_to@V?$basic_string@DU?$char_traits@D@std@@V?$allocator@D@2@@std@@@2@@2@V?$allocator@U?$pair@$$CBV?$basic_string@DU?$char_traits@D@std@@V?$allocator@D@2@@std@@V?$shared_ptr@VFont@@@2@@std@@@2@$0A@@std@@@std@@QEAA@XZ 00000001400052e0 f i AssetManager.obj
 0001:000042e0       ??1?$_Hash@V?$_Umap_traits@V?$basic_string@DU?$char_traits@D@std@@V?$allocator@D@2@@std@@V?$shared_ptr@VTexture@@@2@V?$_Uhash_compare@V?$basic_string@DU?$char_traits@D@std@@V?$allocator@D@2@@std@@U?$hash@V?$basic_string@DU?$char_traits@D@std@@V?$allocator@D@2@@std@@@2@U?$equal_to@V?$basic_string@DU?$char_traits@D@std@@V?$allocator@D@2@@std@@@2@@2@V?$allocator@U?$pair@$$CBV?$basic_string@DU?$char_traits@D@std@@V?$allocator@D@2@@std@@V?$shared_ptr@VTexture@@@2@@std@@@2@$0A@@std@@@std@@QEAA@XZ 00000001400052e0 f i AssetManager.obj
 0001:00004350       ??1?$_Hash@V?$_Umap_traits@V?$basic_string@DU?$char_traits@D@std@@V?$allocator@D@2@@std@@V12@V?$_Uhash_compare@V?$basic_string@DU?$char_traits@D@std@@V?$allocator@D@2@@std@@U?$hash@V?$basic_string@DU?$char_traits@D@std@@V?$allocator@D@2@@std@@@2@U?$equal_to@V?$basic_string@DU?$char_traits@D@std@@V?$allocator@D@2@@std@@@2@@2@V?$allocator@U?$pair@$$CBV?$basic_string@DU?$char_traits@D@std@@V?$allocator@D@2@@std@@V12@@std@@@2@$0A@@std@@@std@@QEAA@XZ 0000000140005350 f i AssetManager.obj
 0001:000043c0       ??_D?$basic_stringstream@DU?$char_traits@D@std@@V?$allocator@D@2@@std@@QEAAXXZ 00000001400053c0 f i AssetManager.obj
 0001:00004420       ?GetFont@AssetManager@@QEAA?AV?$shared_ptr@VFont@@@std@@AEBV?$basic_string@DU?$char_traits@D@std@@V?$allocator@D@2@@3@@Z 0000000140005420 f   AssetManager.obj
 0001:00004670       ??1?$pair@V?$basic_string@DU?$char_traits@D@std@@V?$allocator@D@2@@std@@V?$shared_ptr@VFont@@@2@@std@@QEAA@XZ 0000000140005670 f i AssetManager.obj
 0001:00004670       ??1?$pair@V?$basic_string@DU?$char_traits@D@std@@V?$allocator@D@2@@std@@V?$shared_ptr@VTexture@@@2@@std@@QEAA@XZ 0000000140005670 f i AssetManager.obj
 0001:00004720       ?GetTexture@AssetManager@@QEAA?AV?$shared_ptr@VTexture@@@std@@AEBV?$basic_string@DU?$char_traits@D@std@@V?$allocator@D@2@@3@@Z 0000000140005720 f   AssetManager.obj
 0001:000049a0       ??4?$shared_ptr@VFont@@@std@@QEAAAEAV01@$$QEAV01@@Z 00000001400059a0 f i AssetManager.obj
 0001:000049a0       ??4?$shared_ptr@VTexture@@@std@@QEAAAEAV01@$$QEAV01@@Z 00000001400059a0 f i AssetManager.obj
 0001:00004a20       ?seekpos@?$basic_stringbuf@DU?$char_traits@D@std@@V?$allocator@D@2@@std@@MEAA?AV?$fpos@U_Mbstatet@@@2@V32@H@Z 0000000140005a20 f i AssetManager.obj
 0001:00004b20       ?seekoff@?$basic_stringbuf@DU?$char_traits@D@std@@V?$allocator@D@2@@std@@MEAA?AV?$fpos@U_Mbstatet@@@2@_JHH@Z 0000000140005b20 f i AssetManager.obj
 0001:00004c90       ?underflow@?$basic_stringbuf@DU?$char_traits@D@std@@V?$allocator@D@2@@std@@MEAAHXZ 0000000140005c90 f i AssetManager.obj
 0001:00004d10       ?pbackfail@?$basic_stringbuf@DU?$char_traits@D@std@@V?$allocator@D@2@@std@@MEAAHH@Z 0000000140005d10 f i AssetManager.obj
 0001:00004d70       ?overflow@?$basic_stringbuf@DU?$char_traits@D@std@@V?$allocator@D@2@@std@@MEAAHH@Z 0000000140005d70 f i AssetManager.obj
 0001:00004f60       ??1?$basic_stringbuf@DU?$char_traits@D@std@@V?$allocator@D@2@@std@@UEAA@XZ 0000000140005f60 f i AssetManager.obj
 0001:00005020       ??1?$_Hash_vec@V?$allocator@V?$_List_unchecked_iterator@V?$_List_val@U?$_List_simple_types@U?$pair@$$CBHPEAU_TTF_Font@@@std@@@std@@@std@@@std@@@std@@@std@@QEAA@XZ 0000000140006020 f i Font.obj
 0001:00005020       ??1?$_Hash_vec@V?$allocator@V?$_List_unchecked_iterator@V?$_List_val@U?$_List_simple_types@U?$pair@$$CBV?$basic_string@DU?$char_traits@D@std@@V?$allocator@D@2@@std@@V12@@std@@@std@@@std@@@std@@@std@@@std@@QEAA@XZ 0000000140006020 f i AssetManager.obj
 0001:00005020       ??1?$_Hash_vec@V?$allocator@V?$_List_unchecked_iterator@V?$_List_val@U?$_List_simple_types@U?$pair@$$CBV?$basic_string@DU?$char_traits@D@std@@V?$allocator@D@2@@std@@V?$shared_ptr@VFont@@@2@@std@@@std@@@std@@@std@@@std@@@std@@QEAA@XZ 0000000140006020 f i AssetManager.obj
 0001:00005020       ??1?$_Hash_vec@V?$allocator@V?$_List_unchecked_iterator@V?$_List_val@U?$_List_simple_types@U?$pair@$$CBV?$basic_string@DU?$char_traits@D@std@@V?$allocator@D@2@@std@@V?$shared_ptr@VTexture@@@2@@std@@@std@@@std@@@std@@@std@@@std@@QEAA@XZ 0000000140006020 f i AssetManager.obj
 0001:00005020       ??1?$vector@PEAVMemoryPool@@V?$allocator@PEAVMemoryPool@@@std@@@std@@QEAA@XZ 0000000140006020 f i ServerCore:MemoryPool.obj
 0001:00005020       ??1?$vector@PEAVSpriteComponent@@V?$allocator@PEAVSpriteComponent@@@std@@@std@@QEAA@XZ 0000000140006020 f i RenderManager.obj
 0001:00005020       ??1?$vector@PEAVTileSpriteComponent@@V?$allocator@PEAVTileSpriteComponent@@@std@@@std@@QEAA@XZ 0000000140006020 f i MapManager.obj
 0001:00005080       ??1?$list@U?$pair@$$CBV?$basic_string@DU?$char_traits@D@std@@V?$allocator@D@2@@std@@V12@@std@@V?$allocator@U?$pair@$$CBV?$basic_string@DU?$char_traits@D@std@@V?$allocator@D@2@@std@@V12@@std@@@2@@std@@QEAA@XZ 0000000140006080 f i AssetManager.obj
 0001:000050f0       ?clear@?$_Hash@V?$_Umap_traits@V?$basic_string@DU?$char_traits@D@std@@V?$allocator@D@2@@std@@V?$shared_ptr@VFont@@@2@V?$_Uhash_compare@V?$basic_string@DU?$char_traits@D@std@@V?$allocator@D@2@@std@@U?$hash@V?$basic_string@DU?$char_traits@D@std@@V?$allocator@D@2@@std@@@2@U?$equal_to@V?$basic_string@DU?$char_traits@D@std@@V?$allocator@D@2@@std@@@2@@2@V?$allocator@U?$pair@$$CBV?$basic_string@DU?$char_traits@D@std@@V?$allocator@D@2@@std@@V?$shared_ptr@VFont@@@2@@std@@@2@$0A@@std@@@std@@QEAAXXZ 00000001400060f0 f i AssetManager.obj
 0001:000050f0       ?clear@?$_Hash@V?$_Umap_traits@V?$basic_string@DU?$char_traits@D@std@@V?$allocator@D@2@@std@@V?$shared_ptr@VTexture@@@2@V?$_Uhash_compare@V?$basic_string@DU?$char_traits@D@std@@V?$allocator@D@2@@std@@U?$hash@V?$basic_string@DU?$char_traits@D@std@@V?$allocator@D@2@@std@@@2@U?$equal_to@V?$basic_string@DU?$char_traits@D@std@@V?$allocator@D@2@@std@@@2@@2@V?$allocator@U?$pair@$$CBV?$basic_string@DU?$char_traits@D@std@@V?$allocator@D@2@@std@@V?$shared_ptr@VTexture@@@2@@std@@@2@$0A@@std@@@std@@QEAAXXZ 00000001400060f0 f i AssetManager.obj
 0001:000051c0       ??1?$list@U?$pair@$$CBV?$basic_string@DU?$char_traits@D@std@@V?$allocator@D@2@@std@@V?$shared_ptr@VFont@@@2@@std@@V?$allocator@U?$pair@$$CBV?$basic_string@DU?$char_traits@D@std@@V?$allocator@D@2@@std@@V?$shared_ptr@VFont@@@2@@std@@@2@@std@@QEAA@XZ 00000001400061c0 f i AssetManager.obj
 0001:000051c0       ??1?$list@U?$pair@$$CBV?$basic_string@DU?$char_traits@D@std@@V?$allocator@D@2@@std@@V?$shared_ptr@VTexture@@@2@@std@@V?$allocator@U?$pair@$$CBV?$basic_string@DU?$char_traits@D@std@@V?$allocator@D@2@@std@@V?$shared_ptr@VTexture@@@2@@std@@@2@@std@@QEAA@XZ 00000001400061c0 f i AssetManager.obj
 0001:00005230       ??_E?$basic_stringbuf@DU?$char_traits@D@std@@V?$allocator@D@2@@std@@UEAAPEAXI@Z 0000000140006230 f i * CIL library *:* CIL module *
 0001:00005230       ??_G?$basic_stringbuf@DU?$char_traits@D@std@@V?$allocator@D@2@@std@@UEAAPEAXI@Z 0000000140006230 f i AssetManager.obj
 0001:00005270       ??_E?$basic_stringstream@DU?$char_traits@D@std@@V?$allocator@D@2@@std@@UEAAPEAXI@Z 0000000140006270 f i * CIL library *:* CIL module *
 0001:00005270       ??_G?$basic_stringstream@DU?$char_traits@D@std@@V?$allocator@D@2@@std@@UEAAPEAXI@Z 0000000140006270 f i AssetManager.obj
 0001:00005310       ?_Unchecked_erase@?$_Hash@V?$_Umap_traits@V?$basic_string@DU?$char_traits@D@std@@V?$allocator@D@2@@std@@V?$shared_ptr@VFont@@@2@V?$_Uhash_compare@V?$basic_string@DU?$char_traits@D@std@@V?$allocator@D@2@@std@@U?$hash@V?$basic_string@DU?$char_traits@D@std@@V?$allocator@D@2@@std@@@2@U?$equal_to@V?$basic_string@DU?$char_traits@D@std@@V?$allocator@D@2@@std@@@2@@2@V?$allocator@U?$pair@$$CBV?$basic_string@DU?$char_traits@D@std@@V?$allocator@D@2@@std@@V?$shared_ptr@VFont@@@2@@std@@@2@$0A@@std@@@std@@AEAAPEAU?$_List_node@U?$pair@$$CBV?$basic_string@DU?$char_traits@D@std@@V?$allocator@D@2@@std@@V?$shared_ptr@VFont@@@2@@std@@PEAX@2@PEAU32@QEAU32@@Z 0000000140006310 f i AssetManager.obj
 0001:00005310       ?_Unchecked_erase@?$_Hash@V?$_Umap_traits@V?$basic_string@DU?$char_traits@D@std@@V?$allocator@D@2@@std@@V?$shared_ptr@VTexture@@@2@V?$_Uhash_compare@V?$basic_string@DU?$char_traits@D@std@@V?$allocator@D@2@@std@@U?$hash@V?$basic_string@DU?$char_traits@D@std@@V?$allocator@D@2@@std@@@2@U?$equal_to@V?$basic_string@DU?$char_traits@D@std@@V?$allocator@D@2@@std@@@2@@2@V?$allocator@U?$pair@$$CBV?$basic_string@DU?$char_traits@D@std@@V?$allocator@D@2@@std@@V?$shared_ptr@VTexture@@@2@@std@@@2@$0A@@std@@@std@@AEAAPEAU?$_List_node@U?$pair@$$CBV?$basic_string@DU?$char_traits@D@std@@V?$allocator@D@2@@std@@V?$shared_ptr@VTexture@@@2@@std@@PEAX@2@PEAU32@QEAU32@@Z 0000000140006310 f i AssetManager.obj
 0001:00005510       ?erase@?$basic_string@DU?$char_traits@D@std@@V?$allocator@D@2@@std@@QEAAAEAV12@_K0@Z 0000000140006510 f i AssetManager.obj
 0001:00005580       ?_Assign_grow@?$_Hash_vec@V?$allocator@V?$_List_unchecked_iterator@V?$_List_val@U?$_List_simple_types@U?$pair@$$CBV?$basic_string@DU?$char_traits@D@std@@V?$allocator@D@2@@std@@V12@@std@@@std@@@std@@@std@@@std@@@std@@QEAAX_KV?$_List_unchecked_iterator@V?$_List_val@U?$_List_simple_types@U?$pair@$$CBV?$basic_string@DU?$char_traits@D@std@@V?$allocator@D@2@@std@@V12@@std@@@std@@@std@@@2@@Z 0000000140006580 f i AssetManager.obj
 0001:00005670       ?_Assign_grow@?$_Hash_vec@V?$allocator@V?$_List_unchecked_iterator@V?$_List_val@U?$_List_simple_types@U?$pair@$$CBHPEAU_TTF_Font@@@std@@@std@@@std@@@std@@@std@@@std@@QEAAX_KV?$_List_unchecked_iterator@V?$_List_val@U?$_List_simple_types@U?$pair@$$CBHPEAU_TTF_Font@@@std@@@std@@@std@@@2@@Z 0000000140006670 f i Font.obj
 0001:00005670       ?_Assign_grow@?$_Hash_vec@V?$allocator@V?$_List_unchecked_iterator@V?$_List_val@U?$_List_simple_types@U?$pair@$$CBV?$basic_string@DU?$char_traits@D@std@@V?$allocator@D@2@@std@@V?$shared_ptr@VFont@@@2@@std@@@std@@@std@@@std@@@std@@@std@@QEAAX_KV?$_List_unchecked_iterator@V?$_List_val@U?$_List_simple_types@U?$pair@$$CBV?$basic_string@DU?$char_traits@D@std@@V?$allocator@D@2@@std@@V?$shared_ptr@VFont@@@2@@std@@@std@@@std@@@2@@Z 0000000140006670 f i AssetManager.obj
 0001:00005670       ?_Assign_grow@?$_Hash_vec@V?$allocator@V?$_List_unchecked_iterator@V?$_List_val@U?$_List_simple_types@U?$pair@$$CBV?$basic_string@DU?$char_traits@D@std@@V?$allocator@D@2@@std@@V?$shared_ptr@VTexture@@@2@@std@@@std@@@std@@@std@@@std@@@std@@QEAAX_KV?$_List_unchecked_iterator@V?$_List_val@U?$_List_simple_types@U?$pair@$$CBV?$basic_string@DU?$char_traits@D@std@@V?$allocator@D@2@@std@@V?$shared_ptr@VTexture@@@2@@std@@@std@@@std@@@2@@Z 0000000140006670 f i AssetManager.obj
 0001:000057b0       ??$?RV?$basic_string@DU?$char_traits@D@std@@V?$allocator@D@2@@std@@@?$_Uhash_compare@V?$basic_string@DU?$char_traits@D@std@@V?$allocator@D@2@@std@@U?$hash@V?$basic_string@DU?$char_traits@D@std@@V?$allocator@D@2@@std@@@2@U?$equal_to@V?$basic_string@DU?$char_traits@D@std@@V?$allocator@D@2@@std@@@2@@std@@QEBA_KAEBV?$basic_string@DU?$char_traits@D@std@@V?$allocator@D@2@@1@@Z 00000001400067b0 f i AssetManager.obj
 0001:00005800       ??$fill@PEAV?$_List_unchecked_iterator@V?$_List_val@U?$_List_simple_types@U?$pair@$$CBV?$basic_string@DU?$char_traits@D@std@@V?$allocator@D@2@@std@@V?$shared_ptr@VFont@@@2@@std@@@std@@@std@@@std@@V12@@std@@YAXQEAV?$_List_unchecked_iterator@V?$_List_val@U?$_List_simple_types@U?$pair@$$CBV?$basic_string@DU?$char_traits@D@std@@V?$allocator@D@2@@std@@V?$shared_ptr@VFont@@@2@@std@@@std@@@std@@@0@0AEBV10@@Z 0000000140006800 f i AssetManager.obj
 0001:00005800       ??$fill@PEAV?$_List_unchecked_iterator@V?$_List_val@U?$_List_simple_types@U?$pair@$$CBV?$basic_string@DU?$char_traits@D@std@@V?$allocator@D@2@@std@@V?$shared_ptr@VTexture@@@2@@std@@@std@@@std@@@std@@V12@@std@@YAXQEAV?$_List_unchecked_iterator@V?$_List_val@U?$_List_simple_types@U?$pair@$$CBV?$basic_string@DU?$char_traits@D@std@@V?$allocator@D@2@@std@@V?$shared_ptr@VTexture@@@2@@std@@@std@@@std@@@0@0AEBV10@@Z 0000000140006800 f i AssetManager.obj
 0001:00005890       ?_Destroy@?$_Ref_count_obj2@VTexture@@@std@@EEAAXXZ 0000000140006890 f i AssetManager.obj
 0001:000058c0       ?_Destroy@?$_Ref_count_obj2@VFont@@@std@@EEAAXXZ 00000001400068c0 f i AssetManager.obj
 0001:00005910       ??_E?$_Ref_count_obj2@VTexture@@@std@@UEAAPEAXI@Z 0000000140006910 f i * CIL library *:* CIL module *
 0001:00005910       ??_G?$_Ref_count_obj2@VTexture@@@std@@UEAAPEAXI@Z 0000000140006910 f i AssetManager.obj
 0001:00005940       ??_E?$_Ref_count_obj2@VFont@@@std@@UEAAPEAXI@Z 0000000140006940 f i * CIL library *:* CIL module *
 0001:00005940       ??_G?$_Ref_count_obj2@VFont@@@std@@UEAAPEAXI@Z 0000000140006940 f i AssetManager.obj
 0001:00005970       ??$emplace@U?$pair@V?$basic_string@DU?$char_traits@D@std@@V?$allocator@D@2@@std@@V?$shared_ptr@VFont@@@2@@std@@@?$_Hash@V?$_Umap_traits@V?$basic_string@DU?$char_traits@D@std@@V?$allocator@D@2@@std@@V?$shared_ptr@VFont@@@2@V?$_Uhash_compare@V?$basic_string@DU?$char_traits@D@std@@V?$allocator@D@2@@std@@U?$hash@V?$basic_string@DU?$char_traits@D@std@@V?$allocator@D@2@@std@@@2@U?$equal_to@V?$basic_string@DU?$char_traits@D@std@@V?$allocator@D@2@@std@@@2@@2@V?$allocator@U?$pair@$$CBV?$basic_string@DU?$char_traits@D@std@@V?$allocator@D@2@@std@@V?$shared_ptr@VFont@@@2@@std@@@2@$0A@@std@@@std@@QEAA?AU?$pair@V?$_List_iterator@V?$_List_val@U?$_List_simple_types@U?$pair@$$CBV?$basic_string@DU?$char_traits@D@std@@V?$allocator@D@2@@std@@V?$shared_ptr@VFont@@@2@@std@@@std@@@std@@@std@@_N@1@$$QEAU?$pair@V?$basic_string@DU?$char_traits@D@std@@V?$allocator@D@2@@std@@V?$shared_ptr@VFont@@@2@@1@@Z 0000000140006970 f i AssetManager.obj
 0001:00005970       ??$emplace@U?$pair@V?$basic_string@DU?$char_traits@D@std@@V?$allocator@D@2@@std@@V?$shared_ptr@VTexture@@@2@@std@@@?$_Hash@V?$_Umap_traits@V?$basic_string@DU?$char_traits@D@std@@V?$allocator@D@2@@std@@V?$shared_ptr@VTexture@@@2@V?$_Uhash_compare@V?$basic_string@DU?$char_traits@D@std@@V?$allocator@D@2@@std@@U?$hash@V?$basic_string@DU?$char_traits@D@std@@V?$allocator@D@2@@std@@@2@U?$equal_to@V?$basic_string@DU?$char_traits@D@std@@V?$allocator@D@2@@std@@@2@@2@V?$allocator@U?$pair@$$CBV?$basic_string@DU?$char_traits@D@std@@V?$allocator@D@2@@std@@V?$shared_ptr@VTexture@@@2@@std@@@2@$0A@@std@@@std@@QEAA?AU?$pair@V?$_List_iterator@V?$_List_val@U?$_List_simple_types@U?$pair@$$CBV?$basic_string@DU?$char_traits@D@std@@V?$allocator@D@2@@std@@V?$shared_ptr@VTexture@@@2@@std@@@std@@@std@@@std@@_N@1@$$QEAU?$pair@V?$basic_string@DU?$char_traits@D@std@@V?$allocator@D@2@@std@@V?$shared_ptr@VTexture@@@2@@1@@Z 0000000140006970 f i AssetManager.obj
 0001:00005c80       ??$destroy@U?$pair@$$CBV?$basic_string@DU?$char_traits@D@std@@V?$allocator@D@2@@std@@V?$shared_ptr@VFont@@@2@@std@@@?$_Default_allocator_traits@V?$allocator@U?$_List_node@U?$pair@$$CBV?$basic_string@DU?$char_traits@D@std@@V?$allocator@D@2@@std@@V?$shared_ptr@VFont@@@2@@std@@PEAX@std@@@std@@@std@@SAXAEAV?$allocator@U?$_List_node@U?$pair@$$CBV?$basic_string@DU?$char_traits@D@std@@V?$allocator@D@2@@std@@V?$shared_ptr@VFont@@@2@@std@@PEAX@std@@@1@QEAU?$pair@$$CBV?$basic_string@DU?$char_traits@D@std@@V?$allocator@D@2@@std@@V?$shared_ptr@VFont@@@2@@1@@Z 0000000140006c80 f i AssetManager.obj
 0001:00005c80       ??$destroy@U?$pair@$$CBV?$basic_string@DU?$char_traits@D@std@@V?$allocator@D@2@@std@@V?$shared_ptr@VTexture@@@2@@std@@@?$_Default_allocator_traits@V?$allocator@U?$_List_node@U?$pair@$$CBV?$basic_string@DU?$char_traits@D@std@@V?$allocator@D@2@@std@@V?$shared_ptr@VTexture@@@2@@std@@PEAX@std@@@std@@@std@@SAXAEAV?$allocator@U?$_List_node@U?$pair@$$CBV?$basic_string@DU?$char_traits@D@std@@V?$allocator@D@2@@std@@V?$shared_ptr@VTexture@@@2@@std@@PEAX@std@@@1@QEAU?$pair@$$CBV?$basic_string@DU?$char_traits@D@std@@V?$allocator@D@2@@std@@V?$shared_ptr@VTexture@@@2@@1@@Z 0000000140006c80 f i AssetManager.obj
 0001:00005d30       ??$destroy@U?$pair@$$CBV?$basic_string@DU?$char_traits@D@std@@V?$allocator@D@2@@std@@V12@@std@@@?$_Default_allocator_traits@V?$allocator@U?$_List_node@U?$pair@$$CBV?$basic_string@DU?$char_traits@D@std@@V?$allocator@D@2@@std@@V12@@std@@PEAX@std@@@std@@@std@@SAXAEAV?$allocator@U?$_List_node@U?$pair@$$CBV?$basic_string@DU?$char_traits@D@std@@V?$allocator@D@2@@std@@V12@@std@@PEAX@std@@@1@QEAU?$pair@$$CBV?$basic_string@DU?$char_traits@D@std@@V?$allocator@D@2@@std@@V12@@1@@Z 0000000140006d30 f i AssetManager.obj
 0001:00005de0       ??1?$_List_node_emplace_op2@V?$allocator@U?$_List_node@U?$pair@$$CBV?$basic_string@DU?$char_traits@D@std@@V?$allocator@D@2@@std@@V?$shared_ptr@VFont@@@2@@std@@PEAX@std@@@std@@@std@@QEAA@XZ 0000000140006de0 f i AssetManager.obj
 0001:00005de0       ??1?$_List_node_emplace_op2@V?$allocator@U?$_List_node@U?$pair@$$CBV?$basic_string@DU?$char_traits@D@std@@V?$allocator@D@2@@std@@V?$shared_ptr@VTexture@@@2@@std@@PEAX@std@@@std@@@std@@QEAA@XZ 0000000140006de0 f i AssetManager.obj
 0001:00005e20       ??1?$_Alloc_construct_ptr@V?$allocator@U?$_List_node@U?$pair@$$CBV?$basic_string@DU?$char_traits@D@std@@V?$allocator@D@2@@std@@V?$shared_ptr@VFont@@@2@@std@@PEAX@std@@@std@@@std@@QEAA@XZ 0000000140006e20 f i AssetManager.obj
 0001:00005e20       ??1?$_Alloc_construct_ptr@V?$allocator@U?$_List_node@U?$pair@$$CBV?$basic_string@DU?$char_traits@D@std@@V?$allocator@D@2@@std@@V?$shared_ptr@VTexture@@@2@@std@@PEAX@std@@@std@@@std@@QEAA@XZ 0000000140006e20 f i AssetManager.obj
 0001:00005e40       ?_Forced_rehash@?$_Hash@V?$_Umap_traits@V?$basic_string@DU?$char_traits@D@std@@V?$allocator@D@2@@std@@V?$shared_ptr@VFont@@@2@V?$_Uhash_compare@V?$basic_string@DU?$char_traits@D@std@@V?$allocator@D@2@@std@@U?$hash@V?$basic_string@DU?$char_traits@D@std@@V?$allocator@D@2@@std@@@2@U?$equal_to@V?$basic_string@DU?$char_traits@D@std@@V?$allocator@D@2@@std@@@2@@2@V?$allocator@U?$pair@$$CBV?$basic_string@DU?$char_traits@D@std@@V?$allocator@D@2@@std@@V?$shared_ptr@VFont@@@2@@std@@@2@$0A@@std@@@std@@IEAAX_K@Z 0000000140006e40 f i AssetManager.obj
 0001:00005e40       ?_Forced_rehash@?$_Hash@V?$_Umap_traits@V?$basic_string@DU?$char_traits@D@std@@V?$allocator@D@2@@std@@V?$shared_ptr@VTexture@@@2@V?$_Uhash_compare@V?$basic_string@DU?$char_traits@D@std@@V?$allocator@D@2@@std@@U?$hash@V?$basic_string@DU?$char_traits@D@std@@V?$allocator@D@2@@std@@@2@U?$equal_to@V?$basic_string@DU?$char_traits@D@std@@V?$allocator@D@2@@std@@@2@@2@V?$allocator@U?$pair@$$CBV?$basic_string@DU?$char_traits@D@std@@V?$allocator@D@2@@std@@V?$shared_ptr@VTexture@@@2@@std@@@2@$0A@@std@@@std@@IEAAX_K@Z 0000000140006e40 f i AssetManager.obj
 0001:000060c0       ??$_Find_last@V?$basic_string@DU?$char_traits@D@std@@V?$allocator@D@2@@std@@@?$_Hash@V?$_Umap_traits@V?$basic_string@DU?$char_traits@D@std@@V?$allocator@D@2@@std@@V12@V?$_Uhash_compare@V?$basic_string@DU?$char_traits@D@std@@V?$allocator@D@2@@std@@U?$hash@V?$basic_string@DU?$char_traits@D@std@@V?$allocator@D@2@@std@@@2@U?$equal_to@V?$basic_string@DU?$char_traits@D@std@@V?$allocator@D@2@@std@@@2@@2@V?$allocator@U?$pair@$$CBV?$basic_string@DU?$char_traits@D@std@@V?$allocator@D@2@@std@@V12@@std@@@2@$0A@@std@@@std@@IEBA?AU?$_Hash_find_last_result@PEAU?$_List_node@U?$pair@$$CBV?$basic_string@DU?$char_traits@D@std@@V?$allocator@D@2@@std@@V12@@std@@PEAX@std@@@1@AEBV?$basic_string@DU?$char_traits@D@std@@V?$allocator@D@2@@1@_K@Z 00000001400070c0 f i AssetManager.obj
 0001:000060c0       ??$_Find_last@V?$basic_string@DU?$char_traits@D@std@@V?$allocator@D@2@@std@@@?$_Hash@V?$_Umap_traits@V?$basic_string@DU?$char_traits@D@std@@V?$allocator@D@2@@std@@V?$shared_ptr@VFont@@@2@V?$_Uhash_compare@V?$basic_string@DU?$char_traits@D@std@@V?$allocator@D@2@@std@@U?$hash@V?$basic_string@DU?$char_traits@D@std@@V?$allocator@D@2@@std@@@2@U?$equal_to@V?$basic_string@DU?$char_traits@D@std@@V?$allocator@D@2@@std@@@2@@2@V?$allocator@U?$pair@$$CBV?$basic_string@DU?$char_traits@D@std@@V?$allocator@D@2@@std@@V?$shared_ptr@VFont@@@2@@std@@@2@$0A@@std@@@std@@IEBA?AU?$_Hash_find_last_result@PEAU?$_List_node@U?$pair@$$CBV?$basic_string@DU?$char_traits@D@std@@V?$allocator@D@2@@std@@V?$shared_ptr@VFont@@@2@@std@@PEAX@std@@@1@AEBV?$basic_string@DU?$char_traits@D@std@@V?$allocator@D@2@@1@_K@Z 00000001400070c0 f i AssetManager.obj
 0001:000060c0       ??$_Find_last@V?$basic_string@DU?$char_traits@D@std@@V?$allocator@D@2@@std@@@?$_Hash@V?$_Umap_traits@V?$basic_string@DU?$char_traits@D@std@@V?$allocator@D@2@@std@@V?$shared_ptr@VTexture@@@2@V?$_Uhash_compare@V?$basic_string@DU?$char_traits@D@std@@V?$allocator@D@2@@std@@U?$hash@V?$basic_string@DU?$char_traits@D@std@@V?$allocator@D@2@@std@@@2@U?$equal_to@V?$basic_string@DU?$char_traits@D@std@@V?$allocator@D@2@@std@@@2@@2@V?$allocator@U?$pair@$$CBV?$basic_string@DU?$char_traits@D@std@@V?$allocator@D@2@@std@@V?$shared_ptr@VTexture@@@2@@std@@@2@$0A@@std@@@std@@IEBA?AU?$_Hash_find_last_result@PEAU?$_List_node@U?$pair@$$CBV?$basic_string@DU?$char_traits@D@std@@V?$allocator@D@2@@std@@V?$shared_ptr@VTexture@@@2@@std@@PEAX@std@@@1@AEBV?$basic_string@DU?$char_traits@D@std@@V?$allocator@D@2@@1@_K@Z 00000001400070c0 f i AssetManager.obj
 0001:0000618c       ??_E?$basic_stringstream@DU?$char_traits@D@std@@V?$allocator@D@2@@std@@$4PPPPPPPM@A@EAAPEAXI@Z 000000014000718c f i AssetManager.obj
 0001:000061a0       ??$?8DU?$char_traits@D@std@@V?$allocator@D@1@@std@@YA_NAEBV?$basic_string@DU?$char_traits@D@std@@V?$allocator@D@2@@0@0@Z 00000001400071a0 f i AssetManager.obj
 0001:000061e0       ??0bad_cast@std@@QEAA@XZ   00000001400071e0 f i AssetManager.obj
 0001:00006210       ??0bad_cast@std@@QEAA@AEBV01@@Z 0000000140007210 f i AssetManager.obj
 0001:00006250       ?_Throw_bad_cast@std@@YAXXZ 0000000140007250 f i AssetManager.obj
 0001:00006270       ??1?$unique_ptr@V_Facet_base@std@@U?$default_delete@V_Facet_base@std@@@2@@std@@QEAA@XZ 0000000140007270 f i AssetManager.obj
 0001:00006290       ??0?$basic_string@DU?$char_traits@D@std@@V?$allocator@D@2@@std@@QEAA@AEBV01@@Z 0000000140007290 f i AssetManager.obj
 0001:000063b0       ?_Xran@?$_String_val@U?$_Simple_types@D@std@@@std@@SAXXZ 00000001400073b0 f i AssetManager.obj
 0001:000063d0       ??$_Reallocate_for@V<lambda_1>@?1??assign@?$basic_string@DU?$char_traits@D@std@@V?$allocator@D@2@@std@@QEAAAEAV34@QEBD_K@Z@PEBD@?$basic_string@DU?$char_traits@D@std@@V?$allocator@D@2@@std@@AEAAAEAV01@_KV<lambda_1>@?1??assign@01@QEAAAEAV01@QEBD0@Z@PEBD@Z 00000001400073d0 f i AssetManager.obj
 0001:00006510       ?assign@?$basic_string@DU?$char_traits@D@std@@V?$allocator@D@2@@std@@QEAAAEAV12@QEBD_K@Z 0000000140007510 f i AssetManager.obj
 0001:00006580       ??1locale@std@@QEAA@XZ     0000000140007580 f i AssetManager.obj
 0001:000065b0       ??$_Reallocate_for@V<lambda_1>@?1??assign@?$basic_string@_WU?$char_traits@_W@std@@V?$allocator@_W@2@@std@@QEAAAEAV34@QEB_W_K@Z@PEB_W@?$basic_string@_WU?$char_traits@_W@std@@V?$allocator@_W@2@@std@@AEAAAEAV01@_KV<lambda_1>@?1??assign@01@QEAAAEAV01@QEB_W0@Z@PEB_W@Z 00000001400075b0 f i Ball.obj
 0001:00006710       ??1?$_Func_class@V?$shared_ptr@VSession@@@std@@$$V@std@@QEAA@XZ 0000000140007710 f i NetworkManager.obj
 0001:00006710       ??1?$_Func_class@X$$V@std@@QEAA@XZ 0000000140007710 f i Button.obj
 0001:00006710       ??1?$function@$$A6A?AV?$shared_ptr@VSession@@@std@@XZ@std@@QEAA@XZ 0000000140007710 f i NetworkManager.obj
 0001:00006710       ??1?$function@$$A6AXXZ@std@@QEAA@XZ 0000000140007710 f i Button.obj
 0001:00006710       ??1?$function@$$A6A_NAEAV?$shared_ptr@VPacketSession@@@std@@PEAEH@Z@std@@QEAA@XZ 0000000140007710 f i NetworkManager.obj
 0001:00006740       ??1?$_Hash@V?$_Umap_traits@HPEAU_TTF_Font@@V?$_Uhash_compare@HU?$hash@H@std@@U?$equal_to@H@2@@std@@V?$allocator@U?$pair@$$CBHPEAU_TTF_Font@@@std@@@3@$0A@@std@@@std@@QEAA@XZ 0000000140007740 f i Font.obj
 0001:000067f0       ?Load@Font@@QEAA_NAEBV?$basic_string@DU?$char_traits@D@std@@V?$allocator@D@2@@std@@@Z 00000001400077f0 f   Font.obj
 0001:000069b0       ?GetRenderTexture@Font@@QEAA?AV?$shared_ptr@VTexture@@@std@@AEBV?$basic_string@DU?$char_traits@D@std@@V?$allocator@D@2@@3@AEBUSDL_Color@@H@Z 00000001400079b0 f   Font.obj
 0001:00006cb0       ??1?$vector@HV?$allocator@H@std@@@std@@QEAA@XZ 0000000140007cb0 f i Font.obj
 0001:00006d10       ??1?$list@U?$pair@$$CBHPEAU_TTF_Font@@@std@@V?$allocator@U?$pair@$$CBHPEAU_TTF_Font@@@std@@@2@@std@@QEAA@XZ 0000000140007d10 f i Font.obj
 0001:00006d70       ?deallocate@?$allocator@H@std@@QEAAXQEAH_K@Z 0000000140007d70 f i Font.obj
 0001:00006dc0       ?allocate@?$allocator@H@std@@QEAAPEAH_K@Z 0000000140007dc0 f i Font.obj
 0001:00006e30       ??$emplace@U?$pair@HPEAU_TTF_Font@@@std@@@?$_Hash@V?$_Umap_traits@HPEAU_TTF_Font@@V?$_Uhash_compare@HU?$hash@H@std@@U?$equal_to@H@2@@std@@V?$allocator@U?$pair@$$CBHPEAU_TTF_Font@@@std@@@3@$0A@@std@@@std@@QEAA?AU?$pair@V?$_List_iterator@V?$_List_val@U?$_List_simple_types@U?$pair@$$CBHPEAU_TTF_Font@@@std@@@std@@@std@@@std@@_N@1@$$QEAU?$pair@HPEAU_TTF_Font@@@1@@Z 0000000140007e30 f i Font.obj
 0001:000070e0       ??1?$_Alloc_construct_ptr@V?$allocator@U?$_List_node@U?$pair@$$CBHPEAU_TTF_Font@@@std@@PEAX@std@@@std@@@std@@QEAA@XZ 00000001400080e0 f i Font.obj
 0001:000070e0       ??1?$_List_node_emplace_op2@V?$allocator@U?$_List_node@U?$pair@$$CBHPEAU_TTF_Font@@@std@@PEAX@std@@@std@@@std@@QEAA@XZ 00000001400080e0 f i Font.obj
 0001:00007100       ?_Forced_rehash@?$_Hash@V?$_Umap_traits@HPEAU_TTF_Font@@V?$_Uhash_compare@HU?$hash@H@std@@U?$equal_to@H@2@@std@@V?$allocator@U?$pair@$$CBHPEAU_TTF_Font@@@std@@@3@$0A@@std@@@std@@IEAAX_K@Z 0000000140008100 f i Font.obj
 0001:000072b0       ??_EGrid@@UEAAPEAXI@Z      00000001400082b0 f i * CIL library *:* CIL module *
 0001:000072b0       ??_GGrid@@UEAAPEAXI@Z      00000001400082b0 f i Grid.obj
 0001:00007300       ?Initialize@Grid@@UEAAXXZ  0000000140008300 f   Grid.obj
 0001:00007890       ??1?$vector@V?$vector@V?$shared_ptr@VTile@@@std@@V?$allocator@V?$shared_ptr@VTile@@@std@@@2@@std@@V?$allocator@V?$vector@V?$shared_ptr@VTile@@@std@@V?$allocator@V?$shared_ptr@VTile@@@std@@@2@@std@@@2@@std@@QEAA@XZ 0000000140008890 f i Grid.obj
 0001:00007920       ??$make_shared@VTile@@$$V@std@@YA?AV?$shared_ptr@VTile@@@0@XZ 0000000140008920 f i Grid.obj
 0001:00007a80       ??$_Destroy_range@V?$allocator@V?$vector@V?$shared_ptr@VTile@@@std@@V?$allocator@V?$shared_ptr@VTile@@@std@@@2@@std@@@std@@@std@@YAXPEAV?$vector@V?$shared_ptr@VTile@@@std@@V?$allocator@V?$shared_ptr@VTile@@@std@@@2@@0@QEAV10@AEAV?$allocator@V?$vector@V?$shared_ptr@VTile@@@std@@V?$allocator@V?$shared_ptr@VTile@@@std@@@2@@std@@@0@@Z 0000000140008a80 f i Grid.obj
 0001:00007b10       ??_E?$_Ref_count_obj2@VTile@@@std@@UEAAPEAXI@Z 0000000140008b10 f i * CIL library *:* CIL module *
 0001:00007b10       ??_G?$_Ref_count_obj2@VTile@@@std@@UEAAPEAXI@Z 0000000140008b10 f i Grid.obj
 0001:00007b40       ??$_Resize_reallocate@U_Value_init_tag@std@@@?$vector@V?$shared_ptr@VTile@@@std@@V?$allocator@V?$shared_ptr@VTile@@@std@@@2@@std@@AEAAX_KAEBU_Value_init_tag@1@@Z 0000000140008b40 f i Grid.obj
 0001:00007d10       ??$_Emplace_reallocate@AEBQEAVMemoryPool@@@?$vector@PEAVMemoryPool@@V?$allocator@PEAVMemoryPool@@@std@@@std@@AEAAPEAPEAVMemoryPool@@QEAPEAV2@AEBQEAV2@@Z 0000000140008d10 f i ServerCore:MemoryPool.obj
 0001:00007d10       ??$_Emplace_reallocate@AEBQEAVSpriteComponent@@@?$vector@PEAVSpriteComponent@@V?$allocator@PEAVSpriteComponent@@@std@@@std@@AEAAPEAPEAVSpriteComponent@@QEAPEAV2@AEBQEAV2@@Z 0000000140008d10 f i RenderManager.obj
 0001:00007d10       ??$_Emplace_reallocate@AEBUTileSpriteInfo@@@?$vector@UTileSpriteInfo@@V?$allocator@UTileSpriteInfo@@@std@@@std@@AEAAPEAUTileSpriteInfo@@QEAU2@AEBU2@@Z 0000000140008d10 f i MapManager.obj
 0001:00007d10       ??$_Emplace_reallocate@PEAVTile@@@?$vector@PEAVTile@@V?$allocator@PEAVTile@@@std@@@std@@AEAAPEAPEAVTile@@QEAPEAV2@$$QEAPEAV2@@Z 0000000140008d10 f i Grid.obj
 0001:00007ea0       ??$_Resize_reallocate@U_Value_init_tag@std@@@?$vector@V?$vector@V?$shared_ptr@VTile@@@std@@V?$allocator@V?$shared_ptr@VTile@@@std@@@2@@std@@V?$allocator@V?$vector@V?$shared_ptr@VTile@@@std@@V?$allocator@V?$shared_ptr@VTile@@@std@@@2@@std@@@2@@std@@AEAAX_KAEBU_Value_init_tag@1@@Z 0000000140008ea0 f i Grid.obj
 0001:000080c0       ?Update@GUIManager@@QEAAXM@Z 00000001400090c0 f   GUIManager.obj
 0001:000082d0       ??1?$vector@V?$shared_ptr@VButton@@@std@@V?$allocator@V?$shared_ptr@VButton@@@std@@@2@@std@@QEAA@XZ 00000001400092d0 f i GUIManager.obj
 0001:000082e0       ??0?$vector@V?$shared_ptr@VButton@@@std@@V?$allocator@V?$shared_ptr@VButton@@@std@@@2@@std@@QEAA@AEBV01@@Z 00000001400092e0 f i GUIManager.obj
 0001:00008400       ??4?$function@$$A6AXXZ@std@@QEAAAEAV01@AEBV01@@Z 0000000140009400 f i GUIManager.obj
 0001:00008590       ?_Tidy@?$vector@V?$shared_ptr@VButton@@@std@@V?$allocator@V?$shared_ptr@VButton@@@std@@@2@@std@@AEAAXXZ 0000000140009590 f i GUIManager.obj
 0001:00008660       ??_EGUIScreen@@UEAAPEAXI@Z 0000000140009660 f i * CIL library *:* CIL module *
 0001:00008660       ??_GGUIScreen@@UEAAPEAXI@Z 0000000140009660 f i GUIScreen.obj
 0001:000086a0       ??1GUIScreen@@UEAA@XZ      00000001400096a0 f   GUIScreen.obj
 0001:000087f0       ?Initialize@GUIScreen@@UEAAXXZ 00000001400097f0 f   GUIScreen.obj
 0001:00008a40       ?Render@GUIScreen@@UEAAXXZ 0000000140009a40 f   GUIScreen.obj
 0001:00008bf0       ?ProcessInput@GUIScreen@@UEAAXAEBUInputState@@@Z 0000000140009bf0 f   GUIScreen.obj
 0001:00008d00       ?AddButton@GUIScreen@@QEAAXAEBV?$basic_string@DU?$char_traits@D@std@@V?$allocator@D@2@@std@@V?$function@$$A6AXXZ@3@@Z 0000000140009d00 f   GUIScreen.obj
 0001:00008f00       ?DrawTexture@GUIScreen@@IEAAXV?$shared_ptr@VTexture@@@std@@AEBVVector2@@M@Z 0000000140009f00 f   GUIScreen.obj
 0001:00008ff0       ?_Destroy@?$_Ref_count_obj2@VButton@@@std@@EEAAXXZ 0000000140009ff0 f i GUIScreen.obj
 0001:000090f0       ??_E?$_Ref_count_obj2@VButton@@@std@@UEAAPEAXI@Z 000000014000a0f0 f i * CIL library *:* CIL module *
 0001:000090f0       ??_G?$_Ref_count_obj2@VButton@@@std@@UEAAPEAXI@Z 000000014000a0f0 f i GUIScreen.obj
 0001:00009120       ??$_Emplace_reallocate@AEBV?$shared_ptr@VButton@@@std@@@?$vector@V?$shared_ptr@VButton@@@std@@V?$allocator@V?$shared_ptr@VButton@@@std@@@2@@std@@AEAAPEAV?$shared_ptr@VButton@@@1@QEAV21@AEBV21@@Z 000000014000a120 f i GUIScreen.obj
 0001:000093c0       ??$_Construct_in_place@VButton@@AEBV?$basic_string@DU?$char_traits@D@std@@V?$allocator@D@2@@std@@AEAV?$shared_ptr@VFont@@@3@AEAV?$function@$$A6AXXZ@3@AEAVVector2@@AEAV6@@std@@YAXAEAVButton@@AEBV?$basic_string@DU?$char_traits@D@std@@V?$allocator@D@2@@0@AEAV?$shared_ptr@VFont@@@0@AEAV?$function@$$A6AXXZ@0@AEAVVector2@@4@Z 000000014000a3c0 f i GUIScreen.obj
 0001:00009530       ??1_Facet_guard@locale@std@@QEAA@XZ 000000014000a530 f i main.obj
 0001:00009560       ??0locale@std@@QEAA@PEBDH@Z 000000014000a560 f i main.obj
 0001:000096f0       main                       000000014000a6f0 f   main.obj
 0001:000098f0       ?_Destroy@?$_Ref_count_obj2@VGame@@@std@@EEAAXXZ 000000014000a8f0 f i main.obj
 0001:00009900       ??_E?$_Ref_count_obj2@VGame@@@std@@UEAAPEAXI@Z 000000014000a900 f i * CIL library *:* CIL module *
 0001:00009900       ??_G?$_Ref_count_obj2@VGame@@@std@@UEAAPEAXI@Z 000000014000a900 f i main.obj
 0001:00009930       ??$sleep_until@Usteady_clock@chrono@std@@V?$duration@_JU?$ratio@$00$0DLJKMKAA@@std@@@23@@this_thread@std@@YAXAEBV?$time_point@Usteady_clock@chrono@std@@V?$duration@_JU?$ratio@$00$0DLJKMKAA@@std@@@23@@chrono@1@@Z 000000014000a930 f i main.obj
 0001:00009a70       ?LoadMap@MapManager@@QEAAXAEBV?$basic_string@_WU?$char_traits@_W@std@@V?$allocator@_W@2@@std@@@Z 000000014000aa70 f   MapManager.obj
 0001:0000b500       ??1XmlParser@@QEAA@XZ      000000014000c500 f i MapManager.obj
 0001:0000b560       ??_D?$basic_stringstream@_WU?$char_traits@_W@std@@V?$allocator@_W@2@@std@@QEAAXXZ 000000014000c560 f i MapManager.obj
 0001:0000b5c0       ?seekpos@?$basic_stringbuf@_WU?$char_traits@_W@std@@V?$allocator@_W@2@@std@@MEAA?AV?$fpos@U_Mbstatet@@@2@V32@H@Z 000000014000c5c0 f i MapManager.obj
 0001:0000b6d0       ?seekoff@?$basic_stringbuf@_WU?$char_traits@_W@std@@V?$allocator@_W@2@@std@@MEAA?AV?$fpos@U_Mbstatet@@@2@_JHH@Z 000000014000c6d0 f i MapManager.obj
 0001:0000b850       ?underflow@?$basic_stringbuf@_WU?$char_traits@_W@std@@V?$allocator@_W@2@@std@@MEAAGXZ 000000014000c850 f i MapManager.obj
 0001:0000b8d0       ?pbackfail@?$basic_stringbuf@_WU?$char_traits@_W@std@@V?$allocator@_W@2@@std@@MEAAGG@Z 000000014000c8d0 f i MapManager.obj
 0001:0000b930       ?overflow@?$basic_stringbuf@_WU?$char_traits@_W@std@@V?$allocator@_W@2@@std@@MEAAGG@Z 000000014000c930 f i MapManager.obj
 0001:0000bb50       ??1?$basic_stringbuf@_WU?$char_traits@_W@std@@V?$allocator@_W@2@@std@@UEAA@XZ 000000014000cb50 f i MapManager.obj
 0001:0000bc20       ??1?$vector@V?$vector@PEAVTileSpriteComponent@@V?$allocator@PEAVTileSpriteComponent@@@std@@@std@@V?$allocator@V?$vector@PEAVTileSpriteComponent@@V?$allocator@PEAVTileSpriteComponent@@@std@@@std@@@2@@std@@QEAA@XZ 000000014000cc20 f i MapManager.obj
 0001:0000bc30       ??1?$vector@VXmlNode@@V?$StlAllocator@VXmlNode@@@@@std@@QEAA@XZ 000000014000cc30 f i MapManager.obj
 0001:0000bca0       ??_E?$basic_stringbuf@_WU?$char_traits@_W@std@@V?$allocator@_W@2@@std@@UEAAPEAXI@Z 000000014000cca0 f i * CIL library *:* CIL module *
 0001:0000bca0       ??_G?$basic_stringbuf@_WU?$char_traits@_W@std@@V?$allocator@_W@2@@std@@UEAAPEAXI@Z 000000014000cca0 f i MapManager.obj
 0001:0000bce0       ??_E?$basic_stringstream@_WU?$char_traits@_W@std@@V?$allocator@_W@2@@std@@UEAAPEAXI@Z 000000014000cce0 f i * CIL library *:* CIL module *
 0001:0000bce0       ??_G?$basic_stringstream@_WU?$char_traits@_W@std@@V?$allocator@_W@2@@std@@UEAAPEAXI@Z 000000014000cce0 f i MapManager.obj
 0001:0000bd80       ?_Tidy@?$vector@V?$vector@PEAVTileSpriteComponent@@V?$allocator@PEAVTileSpriteComponent@@@std@@@std@@V?$allocator@V?$vector@PEAVTileSpriteComponent@@V?$allocator@PEAVTileSpriteComponent@@@std@@@std@@@2@@std@@AEAAXXZ 000000014000cd80 f i MapManager.obj
 0001:0000be10       ?_Tidy_deallocate@?$basic_string@_WU?$char_traits@_W@std@@V?$StlAllocator@_W@@@std@@AEAAXXZ 000000014000ce10 f i MapManager.obj
 0001:0000be90       ?_Init@?$basic_stringbuf@_WU?$char_traits@_W@std@@V?$allocator@_W@2@@std@@IEAAXPEB_W_KH@Z 000000014000ce90 f i MapManager.obj
 0001:0000bfe0       ??$?HDU?$char_traits@D@std@@V?$allocator@D@1@@std@@YA?AV?$basic_string@DU?$char_traits@D@std@@V?$allocator@D@2@@0@QEBDAEBV10@@Z 000000014000cfe0 f i MapManager.obj
 0001:0000c140       ??$AddComponent@VTileSpriteComponent@@@Actor@@QEAAPEAVTileSpriteComponent@@XZ 000000014000d140 f i MapManager.obj
 0001:0000c3d0       ??$_Construct_n@AEBV?$vector@PEAVTileSpriteComponent@@V?$allocator@PEAVTileSpriteComponent@@@std@@@std@@@?$vector@V?$vector@PEAVTileSpriteComponent@@V?$allocator@PEAVTileSpriteComponent@@@std@@@std@@V?$allocator@V?$vector@PEAVTileSpriteComponent@@V?$allocator@PEAVTileSpriteComponent@@@std@@@std@@@2@@std@@AEAAX_KAEBV?$vector@PEAVTileSpriteComponent@@V?$allocator@PEAVTileSpriteComponent@@@std@@@1@@Z 000000014000d3d0 f i MapManager.obj
 0001:0000c530       ??$_Destroy_range@V?$allocator@V?$vector@PEAVTileSpriteComponent@@V?$allocator@PEAVTileSpriteComponent@@@std@@@std@@@std@@@std@@YAXPEAV?$vector@PEAVTileSpriteComponent@@V?$allocator@PEAVTileSpriteComponent@@@std@@@0@QEAV10@AEAV?$allocator@V?$vector@PEAVTileSpriteComponent@@V?$allocator@PEAVTileSpriteComponent@@@std@@@std@@@0@@Z 000000014000d530 f i MapManager.obj
 0001:0000c5c0       ??1?$_Tidy_guard@V?$vector@V?$vector@PEAVTileSpriteComponent@@V?$allocator@PEAVTileSpriteComponent@@@std@@@std@@V?$allocator@V?$vector@PEAVTileSpriteComponent@@V?$allocator@PEAVTileSpriteComponent@@@std@@@std@@@2@@std@@@std@@QEAA@XZ 000000014000d5c0 f i MapManager.obj
 0001:0000c5d0       ?_Buy_nonzero@?$vector@PEAVTileSpriteComponent@@V?$allocator@PEAVTileSpriteComponent@@@std@@@std@@AEAAX_K@Z 000000014000d5d0 f i MapManager.obj
 0001:0000c660       ??0?$basic_string@DU?$char_traits@D@std@@V?$allocator@D@2@@std@@QEAA@U_String_constructor_concat_tag@1@AEBV01@QEBD_K23@Z 000000014000d660 f i MapManager.obj
 0001:0000c780       ??$getline@_WU?$char_traits@_W@std@@V?$allocator@_W@2@@std@@YAAEAV?$basic_istream@_WU?$char_traits@_W@std@@@0@$$QEAV10@AEAV?$basic_string@_WU?$char_traits@_W@std@@V?$allocator@_W@2@@0@_W@Z 000000014000d780 f i MapManager.obj
 0001:0000c920       ??1sentry@?$basic_istream@_WU?$char_traits@_W@std@@@std@@QEAA@XZ 000000014000d920 f i MapManager.obj
 0001:0000c950       ??1?$_Uninitialized_backout_al@V?$allocator@V?$vector@PEAVTileSpriteComponent@@V?$allocator@PEAVTileSpriteComponent@@@std@@@std@@@std@@@std@@QEAA@XZ 000000014000d950 f i MapManager.obj
 0001:0000c960       ??_E?$_Ref_count_obj2@VTileSpriteComponent@@@std@@UEAAPEAXI@Z 000000014000d960 f i * CIL library *:* CIL module *
 0001:0000c960       ??_G?$_Ref_count_obj2@VTileSpriteComponent@@@std@@UEAAPEAXI@Z 000000014000d960 f i MapManager.obj
 0001:0000c98c       ??_E?$basic_stringstream@_WU?$char_traits@_W@std@@V?$allocator@_W@2@@std@@$4PPPPPPPM@A@EAAPEAXI@Z 000000014000d98c f i MapManager.obj
 0001:0000c9a0       ??$_Reallocate_grow_by@V<lambda_1>@?1??push_back@?$basic_string@_WU?$char_traits@_W@std@@V?$allocator@_W@2@@std@@QEAAX_W@Z@_W@?$basic_string@_WU?$char_traits@_W@std@@V?$allocator@_W@2@@std@@AEAAAEAV01@_KV<lambda_1>@?1??push_back@01@QEAAX_W@Z@_W@Z 000000014000d9a0 f i MapManager.obj
 0001:0000cb50       ??$_Reallocate_grow_by@V<lambda_1>@?1??append@?$basic_string@DU?$char_traits@D@std@@V?$allocator@D@2@@std@@QEAAAEAV34@_KD@Z@_KD@?$basic_string@DU?$char_traits@D@std@@V?$allocator@D@2@@std@@AEAAAEAV01@_KV<lambda_1>@?1??append@01@QEAAAEAV01@0D@Z@_KD@Z 000000014000db50 f i MapManager.obj
 0001:0000ccf0       ?resize@?$basic_string@DU?$char_traits@D@std@@V?$allocator@D@2@@std@@QEAAX_KD@Z 000000014000dcf0 f i MapManager.obj
 0001:0000cd90       ??_EServerSession@@UEAAPEAXI@Z 000000014000dd90 f i * CIL library *:* CIL module *
 0001:0000cd90       ??_GServerSession@@UEAAPEAXI@Z 000000014000dd90 f i NetworkManager.obj
 0001:0000ce00       ??1S_LEAVE_GAME@Protocol@@UEAA@XZ 000000014000de00 f i NetworkManager.obj
 0001:0000ce10       ??R<lambda_1>@?1??Initialize@ServerPacketHandler@@SAXXZ@QEBA@AEAV?$shared_ptr@VPacketSession@@@std@@PEAEH@Z 000000014000de10 f i NetworkManager.obj
 0001:0000cff0       ??R<lambda_3>@?1??Initialize@ServerPacketHandler@@SAXXZ@QEBA@AEAV?$shared_ptr@VPacketSession@@@std@@PEAEH@Z 000000014000dff0 f i NetworkManager.obj
 0001:0000d1f0       ??R<lambda_4>@?1??Initialize@ServerPacketHandler@@SAXXZ@QEBA@AEAV?$shared_ptr@VPacketSession@@@std@@PEAEH@Z 000000014000e1f0 f i NetworkManager.obj
 0001:0000d3f0       ??1NetworkManager@@QEAA@XZ 000000014000e3f0 f   NetworkManager.obj
 0001:0000d690       ?Initialize@NetworkManager@@QEAA_NXZ 000000014000e690 f   NetworkManager.obj
 0001:0000dc30       ?Start@NetworkManager@@QEAAXXZ 000000014000ec30 f   NetworkManager.obj
 0001:0000df20       ?HandlePackets@NetworkManager@@AEAAXXZ 000000014000ef20 f   NetworkManager.obj
 0001:0000e040       ??1?$vector@V?$function@$$A6AXXZ@std@@V?$StlAllocator@V?$function@$$A6AXXZ@std@@@@@std@@QEAA@XZ 000000014000f040 f i NetworkManager.obj
 0001:0000e100       ??1?$deque@V?$function@$$A6AXXZ@std@@V?$StlAllocator@V?$function@$$A6AXXZ@std@@@@@std@@QEAA@XZ 000000014000f100 f i NetworkManager.obj
 0001:0000e180       ?PopAll@?$ConcurrentQueue@V?$function@$$A6AXXZ@std@@@@QEAAXAEAV?$vector@V?$function@$$A6AXXZ@std@@V?$StlAllocator@V?$function@$$A6AXXZ@std@@@@@std@@@Z 000000014000f180 f i NetworkManager.obj
 0001:0000e3b0       ?Push@?$ConcurrentQueue@V?$function@$$A6AXXZ@std@@@@QEAAXV?$function@$$A6AXXZ@std@@@Z 000000014000f3b0 f i NetworkManager.obj
 0001:0000e610       ?_Tidy@?$deque@V?$function@$$A6AXXZ@std@@V?$StlAllocator@V?$function@$$A6AXXZ@std@@@@@std@@AEAAXXZ 000000014000f610 f i NetworkManager.obj
 0001:0000e760       ?Pop@?$ConcurrentQueue@V?$function@$$A6AXXZ@std@@@@QEAA?AV?$function@$$A6AXXZ@std@@XZ 000000014000f760 f i NetworkManager.obj
 0001:0000e9e0       ?deallocate@?$allocator@V?$basic_string@_WU?$char_traits@_W@std@@V?$allocator@_W@2@@std@@@std@@QEAAXQEAV?$basic_string@_WU?$char_traits@_W@std@@V?$allocator@_W@2@@2@_K@Z 000000014000f9e0 f i NetworkManager.obj
 0001:0000ea30       ?deallocate@?$StlAllocator@V?$function@$$A6AXXZ@std@@@@QEAAXPEAV?$function@$$A6AXXZ@std@@_K@Z 000000014000fa30 f i NetworkManager.obj
 0001:0000ea90       ??$?6U?$char_traits@D@std@@@std@@YAAEAV?$basic_ostream@DU?$char_traits@D@std@@@0@AEAV10@PEBD@Z 000000014000fa90 f i NetworkManager.obj
 0001:0000ec60       ??$endl@DU?$char_traits@D@std@@@std@@YAAEAV?$basic_ostream@DU?$char_traits@D@std@@@0@AEAV10@@Z 000000014000fc60 f i NetworkManager.obj
 0001:0000eca0       ??$sleep_for@_JU?$ratio@$00$0DOI@@std@@@this_thread@std@@YAXAEBV?$duration@_JU?$ratio@$00$0DOI@@std@@@chrono@1@@Z 000000014000fca0 f i NetworkManager.obj
 0001:0000ed40       ??$MakeShared@VServerSession@@$$V@@YA?AV?$shared_ptr@VServerSession@@@std@@XZ 000000014000fd40 f i NetworkManager.obj
 0001:0000edc0       ??$_Destroy_range@V?$StlAllocator@V?$function@$$A6AXXZ@std@@@@@std@@YAXPEAV?$function@$$A6AXXZ@0@QEAV10@AEAV?$StlAllocator@V?$function@$$A6AXXZ@std@@@@@Z 000000014000fdc0 f i NetworkManager.obj
 0001:0000ee20       ??$_Destroy_range@V?$allocator@V?$basic_string@_WU?$char_traits@_W@std@@V?$allocator@_W@2@@std@@@std@@@std@@YAXPEAV?$basic_string@_WU?$char_traits@_W@std@@V?$allocator@_W@2@@0@QEAV10@AEAV?$allocator@V?$basic_string@_WU?$char_traits@_W@std@@V?$allocator@_W@2@@std@@@0@@Z 000000014000fe20 f i NetworkManager.obj
 0001:0000eeb0       ??1sentry@?$basic_ostream@DU?$char_traits@D@std@@@std@@QEAA@XZ 000000014000feb0 f i NetworkManager.obj
 0001:0000eef0       ?swap@?$function@$$A6A_NAEAV?$shared_ptr@VPacketSession@@@std@@PEAEH@Z@std@@QEAAXAEAV12@@Z 000000014000fef0 f i NetworkManager.obj
 0001:0000f030       ?_Growmap@?$deque@V?$function@$$A6AXXZ@std@@V?$StlAllocator@V?$function@$$A6AXXZ@std@@@@@std@@AEAAX_K@Z 0000000140010030 f i NetworkManager.obj
 0001:0000f200       ?_Xlen@?$deque@V?$function@$$A6AXXZ@std@@V?$StlAllocator@V?$function@$$A6AXXZ@std@@@@@std@@AEBAXXZ 0000000140010200 f i NetworkManager.obj
 0001:0000f220       ??$cdelete@VIocpCore@@@@YAXPEAVIocpCore@@@Z 0000000140010220 f i NetworkManager.obj
 0001:0000f280       ??$cdelete@VServerSession@@@@YAXPEAVServerSession@@@Z 0000000140010280 f i NetworkManager.obj
 0001:0000f2e0       ??$?0VServerSession@@P6AXPEAV0@@Z$0A@@?$shared_ptr@VServerSession@@@std@@QEAA@PEAVServerSession@@P6AX0@Z@Z 00000001400102e0 f i NetworkManager.obj
 0001:0000f440       ??$cdelete@VClientService@@@@YAXPEAVClientService@@@Z 0000000140010440 f i NetworkManager.obj
 0001:0000f4a0       ??$?0VClientService@@P6AXPEAV0@@Z$0A@@?$shared_ptr@VClientService@@@std@@QEAA@PEAVClientService@@P6AX0@Z@Z 00000001400104a0 f i NetworkManager.obj
 0001:0000f600       ??$_Emplace_reallocate@AEBV?$basic_string@_WU?$char_traits@_W@std@@V?$allocator@_W@2@@std@@@?$vector@V?$basic_string@_WU?$char_traits@_W@std@@V?$allocator@_W@2@@std@@V?$allocator@V?$basic_string@_WU?$char_traits@_W@std@@V?$allocator@_W@2@@std@@@2@@std@@AEAAPEAV?$basic_string@_WU?$char_traits@_W@std@@V?$allocator@_W@2@@1@QEAV21@AEBV21@@Z 0000000140010600 f i NetworkManager.obj
 0001:0000f8c0       ??$_Emplace_reallocate@AEBV?$function@$$A6AXXZ@std@@@?$vector@V?$function@$$A6AXXZ@std@@V?$StlAllocator@V?$function@$$A6AXXZ@std@@@@@std@@AEAAPEAV?$function@$$A6AXXZ@1@QEAV21@AEBV21@@Z 00000001400108c0 f i NetworkManager.obj
 0001:0000fb10       ??$_Reallocate_grow_by@V<lambda_1>@?1??insert@?$basic_string@_WU?$char_traits@_W@std@@V?$allocator@_W@2@@std@@QEAAAEAV34@_KQEB_W0@Z@_KPEB_W_K@?$basic_string@_WU?$char_traits@_W@std@@V?$allocator@_W@2@@std@@AEAAAEAV01@_KV<lambda_1>@?1??insert@01@QEAAAEAV01@0QEB_W0@Z@_KPEB_W3@Z 0000000140010b10 f i NetworkManager.obj
 0001:0000fcb0       ?_Delete_this@?$_Func_impl_no_alloc@P6A?AV?$shared_ptr@VServerSession@@@std@@XZV?$shared_ptr@VSession@@@2@$$V@std@@EEAAX_N@Z 0000000140010cb0 f   NetworkManager.obj
 0001:0000fcb0       ?_Delete_this@?$_Func_impl_no_alloc@P6A_NAEAV?$shared_ptr@VPacketSession@@@std@@PEAEH@Z_NAEAV12@PEAEH@std@@EEAAX_N@Z 0000000140010cb0 f   NetworkManager.obj
 0001:0000fcb0       ?_Delete_this@?$_Func_impl_no_alloc@V<lambda_1>@?1??Initialize@ServerPacketHandler@@SAXXZ@_NAEAV?$shared_ptr@VPacketSession@@@std@@PEAEH@std@@EEAAX_N@Z 0000000140010cb0 f   NetworkManager.obj
 0001:0000fcb0       ?_Delete_this@?$_Func_impl_no_alloc@V<lambda_2>@?1??Initialize@ServerPacketHandler@@SAXXZ@_NAEAV?$shared_ptr@VPacketSession@@@std@@PEAEH@std@@EEAAX_N@Z 0000000140010cb0 f   NetworkManager.obj
 0001:0000fcb0       ?_Delete_this@?$_Func_impl_no_alloc@V<lambda_3>@?1??Initialize@ServerPacketHandler@@SAXXZ@_NAEAV?$shared_ptr@VPacketSession@@@std@@PEAEH@std@@EEAAX_N@Z 0000000140010cb0 f   NetworkManager.obj
 0001:0000fcb0       ?_Delete_this@?$_Func_impl_no_alloc@V<lambda_4>@?1??Initialize@ServerPacketHandler@@SAXXZ@_NAEAV?$shared_ptr@VPacketSession@@@std@@PEAEH@std@@EEAAX_N@Z 0000000140010cb0 f   NetworkManager.obj
 0001:0000fcb0       ?_Delete_this@?$_Func_impl_no_alloc@V<lambda_5>@?1??Initialize@ServerPacketHandler@@SAXXZ@_NAEAV?$shared_ptr@VPacketSession@@@std@@PEAEH@std@@EEAAX_N@Z 0000000140010cb0 f   NetworkManager.obj
 0001:0000fcc0       ?_Get@?$_Func_impl_no_alloc@P6A?AV?$shared_ptr@VServerSession@@@std@@XZV?$shared_ptr@VSession@@@2@$$V@std@@EEBAPEBXXZ 0000000140010cc0 f   NetworkManager.obj
 0001:0000fcc0       ?_Get@?$_Func_impl_no_alloc@P6A_NAEAV?$shared_ptr@VPacketSession@@@std@@PEAEH@Z_NAEAV12@PEAEH@std@@EEBAPEBXXZ 0000000140010cc0 f   NetworkManager.obj
 0001:0000fcc0       ?_Get@?$_Func_impl_no_alloc@V<lambda_1>@?1??Initialize@ServerPacketHandler@@SAXXZ@_NAEAV?$shared_ptr@VPacketSession@@@std@@PEAEH@std@@EEBAPEBXXZ 0000000140010cc0 f   NetworkManager.obj
 0001:0000fcc0       ?_Get@?$_Func_impl_no_alloc@V<lambda_2>@?1??Initialize@ServerPacketHandler@@SAXXZ@_NAEAV?$shared_ptr@VPacketSession@@@std@@PEAEH@std@@EEBAPEBXXZ 0000000140010cc0 f   NetworkManager.obj
 0001:0000fcc0       ?_Get@?$_Func_impl_no_alloc@V<lambda_3>@?1??Initialize@ServerPacketHandler@@SAXXZ@_NAEAV?$shared_ptr@VPacketSession@@@std@@PEAEH@std@@EEBAPEBXXZ 0000000140010cc0 f   NetworkManager.obj
 0001:0000fcc0       ?_Get@?$_Func_impl_no_alloc@V<lambda_4>@?1??Initialize@ServerPacketHandler@@SAXXZ@_NAEAV?$shared_ptr@VPacketSession@@@std@@PEAEH@std@@EEBAPEBXXZ 0000000140010cc0 f   NetworkManager.obj
 0001:0000fcc0       ?_Get@?$_Func_impl_no_alloc@V<lambda_5>@?1??Initialize@ServerPacketHandler@@SAXXZ@_NAEAV?$shared_ptr@VPacketSession@@@std@@PEAEH@std@@EEBAPEBXXZ 0000000140010cc0 f   NetworkManager.obj
 0001:0000fd20       ?_Destroy@?$_Ref_count_resource@PEAVClientService@@P6AXPEAV1@@Z@std@@EEAAXXZ 0000000140010d20 f i NetworkManager.obj
 0001:0000fd20       ?_Destroy@?$_Ref_count_resource@PEAVIocpCore@@P6AXPEAV1@@Z@std@@EEAAXXZ 0000000140010d20 f i NetworkManager.obj
 0001:0000fd20       ?_Destroy@?$_Ref_count_resource@PEAVServerSession@@P6AXPEAV1@@Z@std@@EEAAXXZ 0000000140010d20 f i NetworkManager.obj
 0001:0000fd40       ?_Get_deleter@?$_Ref_count_resource@PEAVClientService@@P6AXPEAV1@@Z@std@@UEBAPEAXAEBVtype_info@@@Z 0000000140010d40 f i NetworkManager.obj
 0001:0000fd70       ??1?$_Temporary_owner_del@PEAVClientService@@P6AXPEAV1@@Z@std@@QEAA@XZ 0000000140010d70 f i NetworkManager.obj
 0001:0000fd70       ??1?$_Temporary_owner_del@PEAVIocpCore@@P6AXPEAV1@@Z@std@@QEAA@XZ 0000000140010d70 f i NetworkManager.obj
 0001:0000fd70       ??1?$_Temporary_owner_del@PEAVServerSession@@P6AXPEAV1@@Z@std@@QEAA@XZ 0000000140010d70 f i NetworkManager.obj
 0001:0000fd90       ?_Get_deleter@?$_Ref_count_resource@PEAVServerSession@@P6AXPEAV1@@Z@std@@UEBAPEAXAEBVtype_info@@@Z 0000000140010d90 f i NetworkManager.obj
 0001:0000fdc0       ?_Get_deleter@?$_Ref_count_resource@PEAVIocpCore@@P6AXPEAV1@@Z@std@@UEBAPEAXAEBVtype_info@@@Z 0000000140010dc0 f i NetworkManager.obj
 0001:0000fdf0       ?_Target_type@?$_Func_impl_no_alloc@V<lambda_5>@?1??Initialize@ServerPacketHandler@@SAXXZ@_NAEAV?$shared_ptr@VPacketSession@@@std@@PEAEH@std@@EEBAAEBVtype_info@@XZ 0000000140010df0 f i NetworkManager.obj
 0001:0000fe00       ?_Do_call@?$_Func_impl_no_alloc@V<lambda_5>@?1??Initialize@ServerPacketHandler@@SAXXZ@_NAEAV?$shared_ptr@VPacketSession@@@std@@PEAEH@std@@EEAA_NAEAV?$shared_ptr@VPacketSession@@@2@$$QEAPEAE$$QEAH@Z 0000000140010e00 f i NetworkManager.obj
 0001:0000ff30       ?_Copy@?$_Func_impl_no_alloc@V<lambda_5>@?1??Initialize@ServerPacketHandler@@SAXXZ@_NAEAV?$shared_ptr@VPacketSession@@@std@@PEAEH@std@@EEBAPEAV?$_Func_base@_NAEAV?$shared_ptr@VPacketSession@@@std@@PEAEH@2@PEAX@Z 0000000140010f30 f i NetworkManager.obj
 0001:0000ff30       ?_Move@?$_Func_impl_no_alloc@V<lambda_5>@?1??Initialize@ServerPacketHandler@@SAXXZ@_NAEAV?$shared_ptr@VPacketSession@@@std@@PEAEH@std@@EEAAPEAV?$_Func_base@_NAEAV?$shared_ptr@VPacketSession@@@std@@PEAEH@2@PEAX@Z 0000000140010f30 f i NetworkManager.obj
 0001:0000ff40       ?_Target_type@?$_Func_impl_no_alloc@V<lambda_4>@?1??Initialize@ServerPacketHandler@@SAXXZ@_NAEAV?$shared_ptr@VPacketSession@@@std@@PEAEH@std@@EEBAAEBVtype_info@@XZ 0000000140010f40 f i NetworkManager.obj
 0001:0000ff50       ?_Do_call@?$_Func_impl_no_alloc@V<lambda_4>@?1??Initialize@ServerPacketHandler@@SAXXZ@_NAEAV?$shared_ptr@VPacketSession@@@std@@PEAEH@std@@EEAA_NAEAV?$shared_ptr@VPacketSession@@@2@$$QEAPEAE$$QEAH@Z 0000000140010f50 f i NetworkManager.obj
 0001:0000ff60       ?_Copy@?$_Func_impl_no_alloc@V<lambda_4>@?1??Initialize@ServerPacketHandler@@SAXXZ@_NAEAV?$shared_ptr@VPacketSession@@@std@@PEAEH@std@@EEBAPEAV?$_Func_base@_NAEAV?$shared_ptr@VPacketSession@@@std@@PEAEH@2@PEAX@Z 0000000140010f60 f i NetworkManager.obj
 0001:0000ff60       ?_Move@?$_Func_impl_no_alloc@V<lambda_4>@?1??Initialize@ServerPacketHandler@@SAXXZ@_NAEAV?$shared_ptr@VPacketSession@@@std@@PEAEH@std@@EEAAPEAV?$_Func_base@_NAEAV?$shared_ptr@VPacketSession@@@std@@PEAEH@2@PEAX@Z 0000000140010f60 f i NetworkManager.obj
 0001:0000ff70       ?_Target_type@?$_Func_impl_no_alloc@V<lambda_3>@?1??Initialize@ServerPacketHandler@@SAXXZ@_NAEAV?$shared_ptr@VPacketSession@@@std@@PEAEH@std@@EEBAAEBVtype_info@@XZ 0000000140010f70 f i NetworkManager.obj
 0001:0000ff80       ?_Do_call@?$_Func_impl_no_alloc@V<lambda_3>@?1??Initialize@ServerPacketHandler@@SAXXZ@_NAEAV?$shared_ptr@VPacketSession@@@std@@PEAEH@std@@EEAA_NAEAV?$shared_ptr@VPacketSession@@@2@$$QEAPEAE$$QEAH@Z 0000000140010f80 f i NetworkManager.obj
 0001:0000ff90       ?_Copy@?$_Func_impl_no_alloc@V<lambda_3>@?1??Initialize@ServerPacketHandler@@SAXXZ@_NAEAV?$shared_ptr@VPacketSession@@@std@@PEAEH@std@@EEBAPEAV?$_Func_base@_NAEAV?$shared_ptr@VPacketSession@@@std@@PEAEH@2@PEAX@Z 0000000140010f90 f i NetworkManager.obj
 0001:0000ff90       ?_Move@?$_Func_impl_no_alloc@V<lambda_3>@?1??Initialize@ServerPacketHandler@@SAXXZ@_NAEAV?$shared_ptr@VPacketSession@@@std@@PEAEH@std@@EEAAPEAV?$_Func_base@_NAEAV?$shared_ptr@VPacketSession@@@std@@PEAEH@2@PEAX@Z 0000000140010f90 f i NetworkManager.obj
 0001:0000ffa0       ?_Target_type@?$_Func_impl_no_alloc@V<lambda_2>@?1??Initialize@ServerPacketHandler@@SAXXZ@_NAEAV?$shared_ptr@VPacketSession@@@std@@PEAEH@std@@EEBAAEBVtype_info@@XZ 0000000140010fa0 f i NetworkManager.obj
 0001:0000ffb0       ?_Do_call@?$_Func_impl_no_alloc@V<lambda_2>@?1??Initialize@ServerPacketHandler@@SAXXZ@_NAEAV?$shared_ptr@VPacketSession@@@std@@PEAEH@std@@EEAA_NAEAV?$shared_ptr@VPacketSession@@@2@$$QEAPEAE$$QEAH@Z 0000000140010fb0 f i NetworkManager.obj
 0001:00010050       ?_Copy@?$_Func_impl_no_alloc@V<lambda_2>@?1??Initialize@ServerPacketHandler@@SAXXZ@_NAEAV?$shared_ptr@VPacketSession@@@std@@PEAEH@std@@EEBAPEAV?$_Func_base@_NAEAV?$shared_ptr@VPacketSession@@@std@@PEAEH@2@PEAX@Z 0000000140011050 f i NetworkManager.obj
 0001:00010050       ?_Move@?$_Func_impl_no_alloc@V<lambda_2>@?1??Initialize@ServerPacketHandler@@SAXXZ@_NAEAV?$shared_ptr@VPacketSession@@@std@@PEAEH@std@@EEAAPEAV?$_Func_base@_NAEAV?$shared_ptr@VPacketSession@@@std@@PEAEH@2@PEAX@Z 0000000140011050 f i NetworkManager.obj
 0001:00010060       ?_Target_type@?$_Func_impl_no_alloc@V<lambda_1>@?1??Initialize@ServerPacketHandler@@SAXXZ@_NAEAV?$shared_ptr@VPacketSession@@@std@@PEAEH@std@@EEBAAEBVtype_info@@XZ 0000000140011060 f i NetworkManager.obj
 0001:00010070       ?_Do_call@?$_Func_impl_no_alloc@V<lambda_1>@?1??Initialize@ServerPacketHandler@@SAXXZ@_NAEAV?$shared_ptr@VPacketSession@@@std@@PEAEH@std@@EEAA_NAEAV?$shared_ptr@VPacketSession@@@2@$$QEAPEAE$$QEAH@Z 0000000140011070 f i NetworkManager.obj
 0001:00010080       ?_Copy@?$_Func_impl_no_alloc@V<lambda_1>@?1??Initialize@ServerPacketHandler@@SAXXZ@_NAEAV?$shared_ptr@VPacketSession@@@std@@PEAEH@std@@EEBAPEAV?$_Func_base@_NAEAV?$shared_ptr@VPacketSession@@@std@@PEAEH@2@PEAX@Z 0000000140011080 f i NetworkManager.obj
 0001:00010080       ?_Move@?$_Func_impl_no_alloc@V<lambda_1>@?1??Initialize@ServerPacketHandler@@SAXXZ@_NAEAV?$shared_ptr@VPacketSession@@@std@@PEAEH@std@@EEAAPEAV?$_Func_base@_NAEAV?$shared_ptr@VPacketSession@@@std@@PEAEH@2@PEAX@Z 0000000140011080 f i NetworkManager.obj
 0001:00010090       ?_Target_type@?$_Func_impl_no_alloc@P6A_NAEAV?$shared_ptr@VPacketSession@@@std@@PEAEH@Z_NAEAV12@PEAEH@std@@EEBAAEBVtype_info@@XZ 0000000140011090 f i NetworkManager.obj
 0001:000100a0       ?_Do_call@?$_Func_impl_no_alloc@P6A_NAEAV?$shared_ptr@VPacketSession@@@std@@PEAEH@Z_NAEAV12@PEAEH@std@@EEAA_NAEAV?$shared_ptr@VPacketSession@@@2@$$QEAPEAE$$QEAH@Z 00000001400110a0 f i NetworkManager.obj
 0001:000100c0       ?_Copy@?$_Func_impl_no_alloc@P6A_NAEAV?$shared_ptr@VPacketSession@@@std@@PEAEH@Z_NAEAV12@PEAEH@std@@EEBAPEAV?$_Func_base@_NAEAV?$shared_ptr@VPacketSession@@@std@@PEAEH@2@PEAX@Z 00000001400110c0 f i NetworkManager.obj
 0001:000100c0       ?_Move@?$_Func_impl_no_alloc@P6A_NAEAV?$shared_ptr@VPacketSession@@@std@@PEAEH@Z_NAEAV12@PEAEH@std@@EEAAPEAV?$_Func_base@_NAEAV?$shared_ptr@VPacketSession@@@std@@PEAEH@2@PEAX@Z 00000001400110c0 f i NetworkManager.obj
 0001:000100e0       ??_E?$_Ref_count_resource@PEAVClientService@@P6AXPEAV1@@Z@std@@UEAAPEAXI@Z 00000001400110e0 f i * CIL library *:* CIL module *
 0001:000100e0       ??_E?$_Ref_count_resource@PEAVIocpCore@@P6AXPEAV1@@Z@std@@UEAAPEAXI@Z 00000001400110e0 f i * CIL library *:* CIL module *
 0001:000100e0       ??_E?$_Ref_count_resource@PEAVServerSession@@P6AXPEAV1@@Z@std@@UEAAPEAXI@Z 00000001400110e0 f i * CIL library *:* CIL module *
 0001:000100e0       ??_G?$_Ref_count_resource@PEAVClientService@@P6AXPEAV1@@Z@std@@UEAAPEAXI@Z 00000001400110e0 f i NetworkManager.obj
 0001:000100e0       ??_G?$_Ref_count_resource@PEAVIocpCore@@P6AXPEAV1@@Z@std@@UEAAPEAXI@Z 00000001400110e0 f i NetworkManager.obj
 0001:000100e0       ??_G?$_Ref_count_resource@PEAVServerSession@@P6AXPEAV1@@Z@std@@UEAAPEAXI@Z 00000001400110e0 f i NetworkManager.obj
 0001:00010110       ?_Target_type@?$_Func_impl_no_alloc@P6A?AV?$shared_ptr@VServerSession@@@std@@XZV?$shared_ptr@VSession@@@2@$$V@std@@EEBAAEBVtype_info@@XZ 0000000140011110 f i NetworkManager.obj
 0001:00010120       ?_Do_call@?$_Func_impl_no_alloc@P6A?AV?$shared_ptr@VServerSession@@@std@@XZV?$shared_ptr@VSession@@@2@$$V@std@@EEAA?AV?$shared_ptr@VSession@@@2@XZ 0000000140011120 f i NetworkManager.obj
 0001:00010160       ?_Copy@?$_Func_impl_no_alloc@P6A?AV?$shared_ptr@VServerSession@@@std@@XZV?$shared_ptr@VSession@@@2@$$V@std@@EEBAPEAV?$_Func_base@V?$shared_ptr@VSession@@@std@@$$V@2@PEAX@Z 0000000140011160 f i NetworkManager.obj
 0001:00010160       ?_Move@?$_Func_impl_no_alloc@P6A?AV?$shared_ptr@VServerSession@@@std@@XZV?$shared_ptr@VSession@@@2@$$V@std@@EEAAPEAV?$_Func_base@V?$shared_ptr@VSession@@@std@@$$V@2@PEAX@Z 0000000140011160 f i NetworkManager.obj
 0001:00010180       ??1?$enable_shared_from_this@VNetworkService@@@std@@IEAA@XZ 0000000140011180 f i ServerCore:NetworkService.obj
 0001:00010180       ??1?$weak_ptr@VNetworkService@@@std@@QEAA@XZ 0000000140011180 f i NetworkManager.obj
 0001:000101a0       ??0?$function@$$A6AXXZ@std@@QEAA@$$QEAV01@@Z 00000001400111a0 f i NetworkManager.obj
 0001:00010220       ??1WriteLockGuard@@QEAA@XZ 0000000140011220 f i NetworkManager.obj
 0001:00010240       ??4?$basic_string@DU?$char_traits@D@std@@V?$allocator@D@2@@std@@QEAAAEAV01@AEBV01@@Z 0000000140011240 f i NetworkManager.obj
 0001:000102d0       ??$?0PEA_W$0A@@?$basic_string@_WU?$char_traits@_W@std@@V?$allocator@_W@2@@std@@QEAA@PEA_W0AEBV?$allocator@_W@1@@Z 00000001400112d0 f i NetworkManager.obj
 0001:00010420       ??_EPauseMenu@@UEAAPEAXI@Z 0000000140011420 f i * CIL library *:* CIL module *
 0001:00010420       ??_GPauseMenu@@UEAAPEAXI@Z 0000000140011420 f i PauseMenu.obj
 0001:00010530       ?Initialize@PauseMenu@@UEAAXXZ 0000000140011530 f   PauseMenu.obj
 0001:000107f0       ?ProcessInput@PauseMenu@@UEAAXAEBUInputState@@@Z 00000001400117f0 f   PauseMenu.obj
 0001:00010a50       ?Encode64@EpsCopyOutputStream@io@protobuf@google@@CA_K_K@Z 0000000140011a50 f i Protocol.pb.obj
 0001:00010a50       ?_Getal@?$vector@VUnknownField@protobuf@google@@V?$allocator@VUnknownField@protobuf@google@@@std@@@std@@AEAAAEAV?$allocator@VUnknownField@protobuf@google@@@2@XZ 0000000140011a50 f i Protocol.pb.obj
 0001:00010a60       ?WriteVarint32ToArray@CodedOutputStream@io@protobuf@google@@SAPEAEIPEAE@Z 0000000140011a60 f i Protocol.pb.obj
 0001:00010ab0       ?WriteVarint64ToArray@CodedOutputStream@io@protobuf@google@@SAPEAE_KPEAE@Z 0000000140011ab0 f i Protocol.pb.obj
 0001:00010b00       ?WriteVarint32SignExtendedToArray@CodedOutputStream@io@protobuf@google@@SAPEAEHPEAE@Z 0000000140011b00 f i Protocol.pb.obj
 0001:00010b50       ??1Message@protobuf@google@@UEAA@XZ 0000000140011b50 f i Protocol.pb.obj
 0001:00010b50       ??1MessageLite@protobuf@google@@UEAA@XZ 0000000140011b50 f i Protocol.pb.obj
 0001:00010b90       ??1UnknownFieldSet@protobuf@google@@QEAA@XZ 0000000140011b90 f i Protocol.pb.obj
 0001:00010c00       ?Clear@UnknownFieldSet@protobuf@google@@QEAAXXZ 0000000140011c00 f i Protocol.pb.obj
 0001:00010c10       ?IsInitialized@C_MOVE@Protocol@@UEBA_NXZ 0000000140011c10 f i Protocol.pb.obj
 0001:00010c10       ?IsInitialized@PlayerInfo@Protocol@@UEBA_NXZ 0000000140011c10 f i Struct.pb.obj
 0001:00010c10       ?IsInitialized@S_DESPAWN@Protocol@@UEBA_NXZ 0000000140011c10 f i Protocol.pb.obj
 0001:00010c10       ?IsInitialized@S_ENTER_GAME@Protocol@@UEBA_NXZ 0000000140011c10 f i Protocol.pb.obj
 0001:00010c10       ?IsInitialized@S_MOVE@Protocol@@UEBA_NXZ 0000000140011c10 f i Protocol.pb.obj
 0001:00010c10       ?IsInitialized@S_SPAWN@Protocol@@UEBA_NXZ 0000000140011c10 f i Protocol.pb.obj
 0001:00010c10       ?IsInitialized@ZeroFieldsBase@internal@protobuf@google@@UEBA_NXZ 0000000140011c10 f i Protocol.pb.obj
 0001:00010c10       __acrt_initialize          0000000140011c10 f i MSVCRT:ucrt_stubs.obj
 0001:00010c10       __acrt_uninitialize        0000000140011c10 f i MSVCRT:ucrt_stubs.obj
 0001:00010c10       __scrt_stub_for_acrt_initialize 0000000140011c10 f i MSVCRT:ucrt_stubs.obj
 0001:00010c10       __scrt_stub_for_acrt_uninitialize 0000000140011c10 f i MSVCRT:ucrt_stubs.obj
 0001:00010c10       __vcrt_initialize          0000000140011c10 f i MSVCRT:ucrt_stubs.obj
 0001:00010c10       __vcrt_uninitialize        0000000140011c10 f i MSVCRT:ucrt_stubs.obj
 0001:00010c10       _should_initialize_environment 0000000140011c10 f i MSVCRT:env_mode.obj
 0001:00010c20       ?GetCachedSize@ZeroFieldsBase@internal@protobuf@google@@UEBAHXZ 0000000140011c20 f i Protocol.pb.obj
 0001:00010c30       ?SetCachedSize@ZeroFieldsBase@internal@protobuf@google@@MEBAXH@Z 0000000140011c30 f i Protocol.pb.obj
 0001:00010c40       ??_ES_LEAVE_GAME@Protocol@@UEAAPEAXI@Z 0000000140011c40 f i * CIL library *:* CIL module *
 0001:00010c40       ??_EZeroFieldsBase@internal@protobuf@google@@MEAAPEAXI@Z 0000000140011c40 f i * CIL library *:* CIL module *
 0001:00010c40       ??_GS_LEAVE_GAME@Protocol@@UEAAPEAXI@Z 0000000140011c40 f i Protocol.pb.obj
 0001:00010c40       ??_GZeroFieldsBase@internal@protobuf@google@@MEAAPEAXI@Z 0000000140011c40 f i Protocol.pb.obj
 0001:00010c80       ?GetCachedSize@PlayerInfo@Protocol@@UEBAHXZ 0000000140011c80 f i Protocol.pb.obj
 0001:00010c80       ?GetCachedSize@S_SPAWN@Protocol@@UEBAHXZ 0000000140011c80 f i Protocol.pb.obj
 0001:00010c90       ?New@S_ENTER_GAME@Protocol@@UEBAPEAV12@PEAVArena@protobuf@google@@@Z 0000000140011c90 f i Protocol.pb.obj
 0001:00010ca0       ?GetCachedSize@C_MOVE@Protocol@@UEBAHXZ 0000000140011ca0 f i Protocol.pb.obj
 0001:00010ca0       ?GetCachedSize@S_ENTER_GAME@Protocol@@UEBAHXZ 0000000140011ca0 f i Protocol.pb.obj
 0001:00010cb0       ?New@S_LEAVE_GAME@Protocol@@UEBAPEAV12@PEAVArena@protobuf@google@@@Z 0000000140011cb0 f i Protocol.pb.obj
 0001:00010cc0       ?New@S_SPAWN@Protocol@@UEBAPEAV12@PEAVArena@protobuf@google@@@Z 0000000140011cc0 f i Protocol.pb.obj
 0001:00010cd0       ?New@S_DESPAWN@Protocol@@UEBAPEAV12@PEAVArena@protobuf@google@@@Z 0000000140011cd0 f i Protocol.pb.obj
 0001:00010ce0       ?GetCachedSize@S_DESPAWN@Protocol@@UEBAHXZ 0000000140011ce0 f i Protocol.pb.obj
 0001:00010cf0       ?New@C_MOVE@Protocol@@UEBAPEAV12@PEAVArena@protobuf@google@@@Z 0000000140011cf0 f i Protocol.pb.obj
 0001:00010d00       ?New@S_MOVE@Protocol@@UEBAPEAV12@PEAVArena@protobuf@google@@@Z 0000000140011d00 f i Protocol.pb.obj
 0001:00010d10       ?GetCachedSize@S_MOVE@Protocol@@UEBAHXZ 0000000140011d10 f i Protocol.pb.obj
 0001:00010d20       ??_ES_ENTER_GAME@Protocol@@UEAAPEAXI@Z 0000000140011d20 f i * CIL library *:* CIL module *
 0001:00010d20       ??_GS_ENTER_GAME@Protocol@@UEAAPEAXI@Z 0000000140011d20 f i Protocol.pb.obj
 0001:00010d60       ??_ES_SPAWN@Protocol@@UEAAPEAXI@Z 0000000140011d60 f i * CIL library *:* CIL module *
 0001:00010d60       ??_GS_SPAWN@Protocol@@UEAAPEAXI@Z 0000000140011d60 f i Protocol.pb.obj
 0001:00010da0       ??_ES_DESPAWN@Protocol@@UEAAPEAXI@Z 0000000140011da0 f i * CIL library *:* CIL module *
 0001:00010da0       ??_GS_DESPAWN@Protocol@@UEAAPEAXI@Z 0000000140011da0 f i Protocol.pb.obj
 0001:00010de0       ??_EC_MOVE@Protocol@@UEAAPEAXI@Z 0000000140011de0 f i * CIL library *:* CIL module *
 0001:00010de0       ??_GC_MOVE@Protocol@@UEAAPEAXI@Z 0000000140011de0 f i Protocol.pb.obj
 0001:00010e60       ??_ES_MOVE@Protocol@@UEAAPEAXI@Z 0000000140011e60 f i * CIL library *:* CIL module *
 0001:00010e60       ??_GS_MOVE@Protocol@@UEAAPEAXI@Z 0000000140011e60 f i Protocol.pb.obj
 0001:00010ee0       ?descriptor_table_Protocol_2eproto_getter@@YAPEBUDescriptorTable@internal@protobuf@google@@XZ 0000000140011ee0 f   Protocol.pb.obj
 0001:00010ef0       ??_EPlayerInfo@Protocol@@UEAAPEAXI@Z 0000000140011ef0 f i * CIL library *:* CIL module *
 0001:00010ef0       ??_GPlayerInfo@Protocol@@UEAAPEAXI@Z 0000000140011ef0 f i Protocol.pb.obj
 0001:00010f30       ??1S_ENTER_GAME@Protocol@@UEAA@XZ 0000000140011f30 f   Protocol.pb.obj
 0001:00010fd0       ?SetCachedSize@C_MOVE@Protocol@@EEBAXH@Z 0000000140011fd0 f   Protocol.pb.obj
 0001:00010fd0       ?SetCachedSize@S_ENTER_GAME@Protocol@@EEBAXH@Z 0000000140011fd0 f   Protocol.pb.obj
 0001:00010fe0       ?Clear@S_ENTER_GAME@Protocol@@UEAAXXZ 0000000140011fe0 f   Protocol.pb.obj
 0001:00011060       ?_InternalParse@S_ENTER_GAME@Protocol@@UEAAPEBDPEBDPEAVParseContext@internal@protobuf@google@@@Z 0000000140012060 f   Protocol.pb.obj
 0001:000111f0       ?_InternalSerialize@S_ENTER_GAME@Protocol@@UEBAPEAEPEAEPEAVEpsCopyOutputStream@io@protobuf@google@@@Z 00000001400121f0 f   Protocol.pb.obj
 0001:00011270       ?ByteSizeLong@S_ENTER_GAME@Protocol@@UEBA_KXZ 0000000140012270 f   Protocol.pb.obj
 0001:000112b0       ?GetClassData@S_ENTER_GAME@Protocol@@UEBAPEBUClassData@Message@protobuf@google@@XZ 00000001400122b0 f   Protocol.pb.obj
 0001:000112c0       ?MergeImpl@S_ENTER_GAME@Protocol@@CAXAEAVMessage@protobuf@google@@AEBV345@@Z 00000001400122c0 f   Protocol.pb.obj
 0001:000113e0       ?GetMetadata@S_ENTER_GAME@Protocol@@UEBA?AUMetadata@protobuf@google@@XZ 00000001400123e0 f   Protocol.pb.obj
 0001:00011420       ?GetClassData@S_LEAVE_GAME@Protocol@@UEBAPEBUClassData@Message@protobuf@google@@XZ 0000000140012420 f   Protocol.pb.obj
 0001:00011430       ?GetMetadata@S_LEAVE_GAME@Protocol@@UEBA?AUMetadata@protobuf@google@@XZ 0000000140012430 f   Protocol.pb.obj
 0001:00011470       ??1S_SPAWN@Protocol@@UEAA@XZ 0000000140012470 f   Protocol.pb.obj
 0001:00011500       ?SetCachedSize@PlayerInfo@Protocol@@EEBAXH@Z 0000000140012500 f   Struct.pb.obj
 0001:00011500       ?SetCachedSize@S_SPAWN@Protocol@@EEBAXH@Z 0000000140012500 f   Protocol.pb.obj
 0001:00011510       ?Clear@S_SPAWN@Protocol@@UEAAXXZ 0000000140012510 f   Protocol.pb.obj
 0001:00011540       ?_InternalParse@S_SPAWN@Protocol@@UEAAPEBDPEBDPEAVParseContext@internal@protobuf@google@@@Z 0000000140012540 f   Protocol.pb.obj
 0001:000116e0       ?_InternalSerialize@S_SPAWN@Protocol@@UEBAPEAEPEAEPEAVEpsCopyOutputStream@io@protobuf@google@@@Z 00000001400126e0 f   Protocol.pb.obj
 0001:00011770       ?ByteSizeLong@S_SPAWN@Protocol@@UEBA_KXZ 0000000140012770 f   Protocol.pb.obj
 0001:000117e0       ?GetClassData@S_SPAWN@Protocol@@UEBAPEBUClassData@Message@protobuf@google@@XZ 00000001400127e0 f   Protocol.pb.obj
 0001:000117f0       ?MergeImpl@S_SPAWN@Protocol@@CAXAEAVMessage@protobuf@google@@AEBV345@@Z 00000001400127f0 f   Protocol.pb.obj
 0001:000118a0       ?GetMetadata@S_SPAWN@Protocol@@UEBA?AUMetadata@protobuf@google@@XZ 00000001400128a0 f   Protocol.pb.obj
 0001:000118e0       ??1S_DESPAWN@Protocol@@UEAA@XZ 00000001400128e0 f   Protocol.pb.obj
 0001:00011960       ?SetCachedSize@S_DESPAWN@Protocol@@EEBAXH@Z 0000000140012960 f   Protocol.pb.obj
 0001:00011970       ?Clear@S_DESPAWN@Protocol@@UEAAXXZ 0000000140012970 f   Protocol.pb.obj
 0001:000119a0       ?_InternalParse@S_DESPAWN@Protocol@@UEAAPEBDPEBDPEAVParseContext@internal@protobuf@google@@@Z 00000001400129a0 f   Protocol.pb.obj
 0001:00011b80       ?_InternalSerialize@S_DESPAWN@Protocol@@UEBAPEAEPEAEPEAVEpsCopyOutputStream@io@protobuf@google@@@Z 0000000140012b80 f   Protocol.pb.obj
 0001:00011cb0       ?ByteSizeLong@S_DESPAWN@Protocol@@UEBA_KXZ 0000000140012cb0 f   Protocol.pb.obj
 0001:00011d30       ?GetClassData@S_DESPAWN@Protocol@@UEBAPEBUClassData@Message@protobuf@google@@XZ 0000000140012d30 f   Protocol.pb.obj
 0001:00011d40       ?MergeImpl@S_DESPAWN@Protocol@@CAXAEAVMessage@protobuf@google@@AEBV345@@Z 0000000140012d40 f   Protocol.pb.obj
 0001:00011d90       ?GetMetadata@S_DESPAWN@Protocol@@UEBA?AUMetadata@protobuf@google@@XZ 0000000140012d90 f   Protocol.pb.obj
 0001:00011dd0       ?Clear@C_MOVE@Protocol@@UEAAXXZ 0000000140012dd0 f   Protocol.pb.obj
 0001:00011df0       ?_InternalParse@C_MOVE@Protocol@@UEAAPEBDPEBDPEAVParseContext@internal@protobuf@google@@@Z 0000000140012df0 f   Protocol.pb.obj
 0001:00012000       ?_InternalSerialize@C_MOVE@Protocol@@UEBAPEAEPEAEPEAVEpsCopyOutputStream@io@protobuf@google@@@Z 0000000140013000 f   Protocol.pb.obj
 0001:00012110       ?ByteSizeLong@C_MOVE@Protocol@@UEBA_KXZ 0000000140013110 f   Protocol.pb.obj
 0001:00012160       ?GetClassData@C_MOVE@Protocol@@UEBAPEBUClassData@Message@protobuf@google@@XZ 0000000140013160 f   Protocol.pb.obj
 0001:00012170       ?MergeImpl@C_MOVE@Protocol@@CAXAEAVMessage@protobuf@google@@AEBV345@@Z 0000000140013170 f   Protocol.pb.obj
 0001:000121a0       ?GetMetadata@C_MOVE@Protocol@@UEBA?AUMetadata@protobuf@google@@XZ 00000001400131a0 f   Protocol.pb.obj
 0001:000121e0       ??1S_MOVE@Protocol@@UEAA@XZ 00000001400131e0 f   Protocol.pb.obj
 0001:00012240       ?SetCachedSize@S_MOVE@Protocol@@EEBAXH@Z 0000000140013240 f   Protocol.pb.obj
 0001:00012250       ?Clear@S_MOVE@Protocol@@UEAAXXZ 0000000140013250 f   Protocol.pb.obj
 0001:00012270       ?_InternalParse@S_MOVE@Protocol@@UEAAPEBDPEBDPEAVParseContext@internal@protobuf@google@@@Z 0000000140013270 f   Protocol.pb.obj
 0001:000124e0       ?_InternalSerialize@S_MOVE@Protocol@@UEBAPEAEPEAEPEAVEpsCopyOutputStream@io@protobuf@google@@@Z 00000001400134e0 f   Protocol.pb.obj
 0001:00012650       ?ByteSizeLong@S_MOVE@Protocol@@UEBA_KXZ 0000000140013650 f   Protocol.pb.obj
 0001:000126c0       ?GetClassData@S_MOVE@Protocol@@UEBAPEBUClassData@Message@protobuf@google@@XZ 00000001400136c0 f   Protocol.pb.obj
 0001:000126d0       ?MergeImpl@S_MOVE@Protocol@@CAXAEAVMessage@protobuf@google@@AEBV345@@Z 00000001400136d0 f   Protocol.pb.obj
 0001:00012710       ?GetMetadata@S_MOVE@Protocol@@UEBA?AUMetadata@protobuf@google@@XZ 0000000140013710 f   Protocol.pb.obj
 0001:00012750       ??$CreateMaybeMessage@VS_ENTER_GAME@Protocol@@$$V@Arena@protobuf@google@@CAPEAVS_ENTER_GAME@Protocol@@PEAV012@@Z 0000000140013750 f   Protocol.pb.obj
 0001:000127d0       ??$CreateMaybeMessage@VS_LEAVE_GAME@Protocol@@$$V@Arena@protobuf@google@@CAPEAVS_LEAVE_GAME@Protocol@@PEAV012@@Z 00000001400137d0 f   Protocol.pb.obj
 0001:00012840       ??$CreateMaybeMessage@VS_SPAWN@Protocol@@$$V@Arena@protobuf@google@@CAPEAVS_SPAWN@Protocol@@PEAV012@@Z 0000000140013840 f   Protocol.pb.obj
 0001:000128d0       ??$CreateMaybeMessage@VS_DESPAWN@Protocol@@$$V@Arena@protobuf@google@@CAPEAVS_DESPAWN@Protocol@@PEAV012@@Z 00000001400138d0 f   Protocol.pb.obj
 0001:00012990       ??$CreateMaybeMessage@VC_MOVE@Protocol@@$$V@Arena@protobuf@google@@CAPEAVC_MOVE@Protocol@@PEAV012@@Z 0000000140013990 f   Protocol.pb.obj
 0001:00012a10       ??$CreateMaybeMessage@VS_MOVE@Protocol@@$$V@Arena@protobuf@google@@CAPEAVS_MOVE@Protocol@@PEAV012@@Z 0000000140013a10 f   Protocol.pb.obj
 0001:00012a90       ?_Tidy@?$vector@VUnknownField@protobuf@google@@V?$allocator@VUnknownField@protobuf@google@@@std@@@std@@AEAAXXZ 0000000140013a90 f i Protocol.pb.obj
 0001:00012af0       ?deallocate@?$allocator@VUnknownField@protobuf@google@@@std@@QEAAXQEAVUnknownField@protobuf@google@@_K@Z 0000000140013af0 f i Protocol.pb.obj
 0001:00012b40       ?Clear@?$RepeatedPtrField@VPlayerInfo@Protocol@@@protobuf@google@@QEAAXXZ 0000000140013b40 f i Protocol.pb.obj
 0001:00012bc0       ??$MessageSize@VPlayerInfo@Protocol@@@WireFormatLite@internal@protobuf@google@@SA_KAEBVPlayerInfo@Protocol@@@Z 0000000140013bc0 f i Protocol.pb.obj
 0001:00012c90       ??$DoMergeFrom@VUnknownFieldSet@protobuf@google@@@InternalMetadata@internal@protobuf@google@@AEAAXAEBVUnknownFieldSet@23@@Z 0000000140013c90 f i Protocol.pb.obj
 0001:00012cd0       ??$DeleteOutOfLineHelper@VUnknownFieldSet@protobuf@google@@@InternalMetadata@internal@protobuf@google@@AEAAPEAVArena@23@XZ 0000000140013cd0 f i Protocol.pb.obj
 0001:00012d40       ??$DoClear@VUnknownFieldSet@protobuf@google@@@InternalMetadata@internal@protobuf@google@@AEAAXXZ 0000000140013d40 f i Protocol.pb.obj
 0001:00012d80       ??$mutable_unknown_fields_slow@VUnknownFieldSet@protobuf@google@@@InternalMetadata@internal@protobuf@google@@AEAAPEAVUnknownFieldSet@23@XZ 0000000140013d80 f i Protocol.pb.obj
 0001:00012e50       ??$MergeFromInnerLoop@VTypeHandler@?$RepeatedPtrField@VPlayerInfo@Protocol@@@protobuf@google@@@RepeatedPtrFieldBase@internal@protobuf@google@@AEAAXPEAPEAX0HH@Z 0000000140013e50 f i Protocol.pb.obj
 0001:00012ee0       ?Merge@?$GenericTypeHandler@VPlayerInfo@Protocol@@@internal@protobuf@google@@SAXAEBVPlayerInfo@Protocol@@PEAV56@@Z 0000000140013ee0 f i Protocol.pb.obj
 0001:00012f70       ??$arena_destruct_object@U?$Container@VUnknownFieldSet@protobuf@google@@@InternalMetadata@internal@protobuf@google@@@internal@protobuf@google@@YAXPEAX@Z 0000000140013f70 f i Protocol.pb.obj
 0001:00012f80       ?Render@RenderManager@@QEAAXXZ 0000000140013f80 f   RenderManager.obj
 0001:00013960       ?Packet_Processing_Function_Undefined@@YA_NAEAV?$shared_ptr@VPacketSession@@@std@@PEAEH@Z 0000000140014960 f   ServerPacketHandler.obj
 0001:00013970       ??0?$function@$$A6A_NAEAV?$shared_ptr@VPacketSession@@@std@@PEAEH@Z@std@@QEAA@XZ 0000000140014970 f i ServerPacketHandler.obj
 0001:00013980       ?OnConnected@ServerSession@@UEAAXXZ 0000000140014980 f   ServerSession.obj
 0001:00013ad0       ?OnRecvPacket@ServerSession@@UEAAXPEAEH@Z 0000000140014ad0 f   ServerSession.obj
 0001:00013c30       ?OnDisconnected@ServerSession@@UEAAXXZ 0000000140014c30 f   ServerSession.obj
 0001:00013d10       ?WriteStringMaybeAliased@EpsCopyOutputStream@io@protobuf@google@@QEAAPEAEIAEBV?$basic_string@DU?$char_traits@D@std@@V?$allocator@D@2@@std@@PEAE@Z 0000000140014d10 f i Struct.pb.obj
 0001:00013e20       ?TagSize@EpsCopyOutputStream@io@protobuf@google@@CAHI@Z 0000000140014e20 f i Struct.pb.obj
 0001:00013e60       ?New@PlayerInfo@Protocol@@UEBAPEAV12@PEAVArena@protobuf@google@@@Z 0000000140014e60 f i Struct.pb.obj
 0001:00013e70       ?descriptor_table_Struct_2eproto_getter@@YAPEBUDescriptorTable@internal@protobuf@google@@XZ 0000000140014e70 f   Struct.pb.obj
 0001:00013e80       ??1PlayerInfo@Protocol@@UEAA@XZ 0000000140014e80 f   Struct.pb.obj
 0001:00013f00       ?Clear@PlayerInfo@Protocol@@UEAAXXZ 0000000140014f00 f   Struct.pb.obj
 0001:00013f40       ?_InternalParse@PlayerInfo@Protocol@@UEAAPEBDPEBDPEAVParseContext@internal@protobuf@google@@@Z 0000000140014f40 f   Struct.pb.obj
 0001:00014270       ?_InternalSerialize@PlayerInfo@Protocol@@UEBAPEAEPEAEPEAVEpsCopyOutputStream@io@protobuf@google@@@Z 0000000140015270 f   Struct.pb.obj
 0001:000144a0       ?ByteSizeLong@PlayerInfo@Protocol@@UEBA_KXZ 00000001400154a0 f   Struct.pb.obj
 0001:00014550       ?GetClassData@PlayerInfo@Protocol@@UEBAPEBUClassData@Message@protobuf@google@@XZ 0000000140015550 f   Struct.pb.obj
 0001:00014560       ?MergeImpl@PlayerInfo@Protocol@@CAXAEAVMessage@protobuf@google@@AEBV345@@Z 0000000140015560 f   Struct.pb.obj
 0001:000145f0       ?GetMetadata@PlayerInfo@Protocol@@UEBA?AUMetadata@protobuf@google@@XZ 00000001400155f0 f   Struct.pb.obj
 0001:00014630       ??$CreateMaybeMessage@VPlayerInfo@Protocol@@$$V@Arena@protobuf@google@@CAPEAVPlayerInfo@Protocol@@PEAV012@@Z 0000000140015630 f   Struct.pb.obj
 0001:000146c0       ??$VarintParse@_K@internal@protobuf@google@@YAPEBDPEBDPEA_K@Z 00000001400156c0 f i Struct.pb.obj
 0001:00014760       ??_ETile@@UEAAPEAXI@Z      0000000140015760 f i * CIL library *:* CIL module *
 0001:00014760       ??_GTile@@UEAAPEAXI@Z      0000000140015760 f i Tile.obj
 0001:00014800       ?IsSameType@TileSpriteComponent@@UEBA_N_K@Z 0000000140015800 f   TileSpriteComponent.obj
 0001:00014820       ??_ETileSpriteComponent@@UEAAPEAXI@Z 0000000140015820 f i * CIL library *:* CIL module *
 0001:00014820       ??_GTileSpriteComponent@@UEAAPEAXI@Z 0000000140015820 f i TileSpriteComponent.obj
 0001:000148c0       ?Render@TileSpriteComponent@@UEAAXAEBVVector2Int@@@Z 00000001400158c0 f   TileSpriteComponent.obj
 0001:00014b40       ?IsSameType@TransformComponent@@UEBA_N_K@Z 0000000140015b40 f   TransformComponent.obj
 0001:00014b60       ??_ETransformComponent@@UEAAPEAXI@Z 0000000140015b60 f i * CIL library *:* CIL module *
 0001:00014b60       ??_GTransformComponent@@UEAAPEAXI@Z 0000000140015b60 f i TransformComponent.obj
 0001:00014bc0       ?Push@MemoryPool@@QEAAXPEAUMemoryHeader@@PEBD@Z 0000000140015bc0 f   ServerCore:MemoryPool.obj
 0001:00014c50       ?Pop@MemoryPool@@QEAAPEAUMemoryHeader@@PEBD@Z 0000000140015c50 f   ServerCore:MemoryPool.obj
 0001:00014ce0       ??0StaticMemoryPool@@QEAA@XZ 0000000140015ce0 f   ServerCore:MemoryPool.obj
 0001:00014ef0       ??1ThreadManager@@QEAA@XZ  0000000140015ef0 f   ServerCore:ThreadManager.obj
 0001:00015100       ?Launch@ThreadManager@@QEAAXAEBV?$basic_string@_WU?$char_traits@_W@std@@V?$allocator@_W@2@@std@@V?$function@$$A6AXXZ@3@@Z 0000000140016100 f   ServerCore:ThreadManager.obj
 0001:000152b0       ??$_Erase_tree@V?$allocator@U?$_Tree_node@U?$pair@$$CBIPEAVThread@@@std@@PEAX@std@@@std@@@?$_Tree_val@U?$_Tree_simple_types@U?$pair@$$CBIPEAVThread@@@std@@@std@@@std@@QEAAXAEAV?$allocator@U?$_Tree_node@U?$pair@$$CBIPEAVThread@@@std@@PEAX@std@@@1@PEAU?$_Tree_node@U?$pair@$$CBIPEAVThread@@@std@@PEAX@1@@Z 00000001400162b0 f i ServerCore:ThreadManager.obj
 0001:00015300       ?_Insert_node@?$_Tree_val@U?$_Tree_simple_types@U?$pair@$$CBIPEAVThread@@@std@@@std@@@std@@QEAAPEAU?$_Tree_node@U?$pair@$$CBIPEAVThread@@@std@@PEAX@2@U?$_Tree_id@PEAU?$_Tree_node@U?$pair@$$CBIPEAVThread@@@std@@PEAX@std@@@2@QEAU32@@Z 0000000140016300 f i ServerCore:ThreadManager.obj
 0001:00015300       ?_Insert_node@?$_Tree_val@U?$_Tree_simple_types@V?$shared_ptr@VSession@@@std@@@std@@@std@@QEAAPEAU?$_Tree_node@V?$shared_ptr@VSession@@@std@@PEAX@2@U?$_Tree_id@PEAU?$_Tree_node@V?$shared_ptr@VSession@@@std@@PEAX@std@@@2@QEAU32@@Z 0000000140016300 f i ServerCore:NetworkService.obj
 0001:00015560       ??1?$_Alloc_construct_ptr@V?$allocator@U?$_Tree_node@U?$pair@$$CBIPEAVThread@@@std@@PEAX@std@@@std@@@std@@QEAA@XZ 0000000140016560 f i ServerCore:ThreadManager.obj
 0001:00015580       ?_Throw_tree_length_error@std@@YAXXZ 0000000140016580 f i ServerCore:ThreadManager.obj
 0001:000155a0       ??1?$lock_guard@Vmutex@std@@@std@@QEAA@XZ 00000001400165a0 f i ServerCore:ThreadManager.obj
 0001:000155b0       ??1Global@@QEAA@XZ         00000001400165b0 f   ServerCore:Global.obj
 0001:00015840       ?Initialize@Global@@QEAAXXZ 0000000140016840 f   ServerCore:Global.obj
 0001:00015ad0       ??1?$vector@UJobTimerInfo@@V?$StlAllocator@UJobTimerInfo@@@@@std@@QEAA@XZ 0000000140016ad0 f i ServerCore:Global.obj
 0001:00015b40       ?FindChildren@XmlNode@@QEAA?AV?$vector@VXmlNode@@V?$StlAllocator@VXmlNode@@@@@std@@PEB_W@Z 0000000140016b40 f   ServerCore:XmlParser.obj
 0001:00015cc0       ??1?$vector@EV?$StlAllocator@E@@@std@@QEAA@XZ 0000000140016cc0 f i ServerCore:XmlParser.obj
 0001:00015d30       ??$_Emplace_reallocate@VXmlNode@@@?$vector@VXmlNode@@V?$StlAllocator@VXmlNode@@@@@std@@AEAAPEAVXmlNode@@QEAV2@$$QEAV2@@Z 0000000140016d30 f i ServerCore:XmlParser.obj
 0001:00015ec0       ??0Session@@QEAA@XZ        0000000140016ec0 f   ServerCore:Session.obj
 0001:000160e0       ??_ESession@@UEAAPEAXI@Z   00000001400170e0 f i * CIL library *:* CIL module *
 0001:000160e0       ??_GSession@@UEAAPEAXI@Z   00000001400170e0 f i ServerCore:Session.obj
 0001:00016120       ??1IocpObject@@QEAA@XZ     0000000140017120 f i ServerCore:Session.obj
 0001:00016140       ??1Session@@UEAA@XZ        0000000140017140 f   ServerCore:Session.obj
 0001:000162d0       ?Disconnect@Session@@QEAAXPEB_W@Z 00000001400172d0 f   ServerCore:Session.obj
 0001:000163e0       ?GetHandle@Session@@EEAAPEAXXZ 00000001400173e0 f   ServerCore:Session.obj
 0001:000163f0       ?Dispatch@Session@@EEAAXPEAVIocpEvent@@H@Z 00000001400173f0 f   ServerCore:Session.obj
 0001:00016430       ?RegisterConnect@Session@@AEAA_NXZ 0000000140017430 f   ServerCore:Session.obj
 0001:00016740       ?RegisterRecv@Session@@AEAAXXZ 0000000140017740 f   ServerCore:Session.obj
 0001:000168e0       ?RegisterSend@Session@@AEAAXXZ 00000001400178e0 f   ServerCore:Session.obj
 0001:00016e80       ?ProcessConnect@Session@@AEAAXXZ 0000000140017e80 f   ServerCore:Session.obj
 0001:00016fb0       ?ProcessDisconnect@Session@@AEAAXXZ 0000000140017fb0 f   ServerCore:Session.obj
 0001:000170c0       ?ProcessRecv@Session@@AEAAXH@Z 00000001400180c0 f   ServerCore:Session.obj
 0001:000173a0       ?ProcessSend@Session@@AEAAXH@Z 00000001400183a0 f   ServerCore:Session.obj
 0001:000175b0       ?ErrorHandling@Session@@AEAAXH@Z 00000001400185b0 f   ServerCore:Session.obj
 0001:00017610       ??_EPacketSession@@MEAAPEAXI@Z 0000000140018610 f i * CIL library *:* CIL module *
 0001:00017610       ??_GPacketSession@@MEAAPEAXI@Z 0000000140018610 f i ServerCore:Session.obj
 0001:00017650       ?OnRecv@PacketSession@@UEAAHPEAEH@Z 0000000140018650 f   ServerCore:Session.obj
 0001:000176d0       ??1?$vector@U_WSABUF@@V?$StlAllocator@U_WSABUF@@@@@std@@QEAA@XZ 00000001400186d0 f i ServerCore:Session.obj
 0001:00017740       ??1?$deque@V?$shared_ptr@VSendBuffer@@@std@@V?$StlAllocator@V?$shared_ptr@VSendBuffer@@@std@@@@@std@@QEAA@XZ 0000000140018740 f i ServerCore:Session.obj
 0001:000177c0       ?_Reallocate_exactly@?$vector@U_WSABUF@@V?$StlAllocator@U_WSABUF@@@@@std@@AEAAX_K@Z 00000001400187c0 f i ServerCore:Session.obj
 0001:000178c0       ?_Tidy@?$deque@V?$shared_ptr@VSendBuffer@@@std@@V?$StlAllocator@V?$shared_ptr@VSendBuffer@@@std@@@@@std@@AEAAXXZ 00000001400188c0 f i ServerCore:Session.obj
 0001:00017a30       ??$?6_WU?$char_traits@_W@std@@@std@@YAAEAV?$basic_ostream@_WU?$char_traits@_W@std@@@0@AEAV10@PEBD@Z 0000000140018a30 f i ServerCore:Session.obj
 0001:00017d80       ??$_Emplace_reallocate@AEBU_WSABUF@@@?$vector@U_WSABUF@@V?$StlAllocator@U_WSABUF@@@@@std@@AEAAPEAU_WSABUF@@QEAU2@AEBU2@@Z 0000000140018d80 f i ServerCore:Session.obj
 0001:00017f10       ??$_Emplace_reallocate@AEBV?$shared_ptr@VSendBuffer@@@std@@@?$vector@V?$shared_ptr@VSendBuffer@@@std@@V?$StlAllocator@V?$shared_ptr@VSendBuffer@@@std@@@@@std@@AEAAPEAV?$shared_ptr@VSendBuffer@@@1@QEAV21@AEBV21@@Z 0000000140018f10 f i ServerCore:Session.obj
 0001:00018160       ?OnRecv@Session@@MEAAHPEAEH@Z 0000000140019160 f i ServerCore:Session.obj
 0001:00018170       ?SetOwner@IocpEvent@@QEAAXV?$shared_ptr@VIocpObject@@@std@@@Z 0000000140019170 f i ServerCore:Session.obj
 0001:00018220       ??1?$vector@V?$shared_ptr@VSendBuffer@@@std@@V?$StlAllocator@V?$shared_ptr@VSendBuffer@@@std@@@@@std@@QEAA@XZ 0000000140019220 f i ServerCore:Session.obj
 0001:000182b0       ??0Lock@@QEAA@XZ           00000001400192b0 f   ServerCore:Lock.obj
 0001:000182f0       ??1Lock@@QEAA@XZ           00000001400192f0 f   ServerCore:Lock.obj
 0001:00018360       ?Dispatch@IocpCore@@QEAA_NI@Z 0000000140019360 f   ServerCore:IocpCore.obj
 0001:00018490       ??0NetworkService@@QEAA@W4ServiceType@@VNetworkAddress@@V?$shared_ptr@VIocpCore@@@std@@V?$function@$$A6A?AV?$shared_ptr@VSession@@@std@@XZ@4@H@Z 0000000140019490 f   ServerCore:NetworkService.obj
 0001:00018610       ??_ENetworkService@@UEAAPEAXI@Z 0000000140019610 f i * CIL library *:* CIL module *
 0001:00018610       ??_GNetworkService@@UEAAPEAXI@Z 0000000140019610 f i ServerCore:NetworkService.obj
 0001:00018650       ??1?$set@V?$shared_ptr@VSession@@@std@@U?$less@V?$shared_ptr@VSession@@@std@@@2@V?$StlAllocator@V?$shared_ptr@VSession@@@std@@@@@std@@QEAA@XZ 0000000140019650 f i ServerCore:NetworkService.obj
 0001:00018660       ??1NetworkService@@UEAA@XZ 0000000140019660 f   ServerCore:NetworkService.obj
 0001:00018730       ?AddSession@NetworkService@@QEAAXV?$shared_ptr@VSession@@@std@@@Z 0000000140019730 f   ServerCore:NetworkService.obj
 0001:00018a10       ?RemoveSession@NetworkService@@QEAAXV?$shared_ptr@VSession@@@std@@@Z 0000000140019a10 f   ServerCore:NetworkService.obj
 0001:00018bc0       ?CreateSession@NetworkService@@QEAA?AV?$shared_ptr@VSession@@@std@@XZ 0000000140019bc0 f   ServerCore:NetworkService.obj
 0001:00018e10       ??_EClientService@@UEAAPEAXI@Z 0000000140019e10 f i * CIL library *:* CIL module *
 0001:00018e10       ??_GClientService@@UEAAPEAXI@Z 0000000140019e10 f i ServerCore:NetworkService.obj
 0001:00018e50       ?Start@ClientService@@UEAA_NXZ 0000000140019e50 f   ServerCore:NetworkService.obj
 0001:00018f50       ??1?$_Tree@V?$_Tset_traits@V?$shared_ptr@VSession@@@std@@U?$less@V?$shared_ptr@VSession@@@std@@@2@V?$StlAllocator@V?$shared_ptr@VSession@@@std@@@@$0A@@std@@@std@@QEAA@XZ 0000000140019f50 f i ServerCore:NetworkService.obj
 0001:00018fc0       ??$_Erase_tree@V?$StlAllocator@U?$_Tree_node@V?$shared_ptr@VSession@@@std@@PEAX@std@@@@@?$_Tree_val@U?$_Tree_simple_types@V?$shared_ptr@VSession@@@std@@@std@@@std@@QEAAXAEAV?$StlAllocator@U?$_Tree_node@V?$shared_ptr@VSession@@@std@@PEAX@std@@@@PEAU?$_Tree_node@V?$shared_ptr@VSession@@@std@@PEAX@1@@Z 0000000140019fc0 f i ServerCore:NetworkService.obj
 0001:000190a0       ?Log@Logger@@QEAAXPEBDZZ   000000014001a0a0 f   ServerCore:Logger.obj
 0001:00019240       printf_s                   000000014001a240 f i ServerCore:Logger.obj
 0001:000192a0       __local_stdio_printf_options 000000014001a2a0 f i ServerCore:Logger.obj
 0001:000192b0       _snprintf_s                000000014001a2b0 f i ServerCore:Logger.obj
 0001:00019320       ??0Thread@@QEAA@AEBV?$basic_string@_WU?$char_traits@_W@std@@V?$allocator@_W@2@@std@@V?$function@$$A6AXXZ@2@@Z 000000014001a320 f   ServerCore:Thread.obj
 0001:000196b0       ??1thread@std@@QEAA@XZ     000000014001a6b0 f i ServerCore:Thread.obj
 0001:000196d0       ??1?$vector@V?$shared_ptr@VSendBufferChunk@@@std@@V?$StlAllocator@V?$shared_ptr@VSendBufferChunk@@@std@@@@@std@@QEAA@XZ 000000014001a6d0 f i ServerCore:SendBuffer.obj
 0001:00019760       ??1?$deque@V?$shared_ptr@VJobBaseObject@@@std@@V?$StlAllocator@V?$shared_ptr@VJobBaseObject@@@std@@@@@std@@QEAA@XZ 000000014001a760 f i ServerCore:DistributeJobBaseObject.obj
 0001:000197e0       ?_Tidy@?$deque@V?$shared_ptr@VJobBaseObject@@@std@@V?$StlAllocator@V?$shared_ptr@VJobBaseObject@@@std@@@@@std@@AEAAXXZ 000000014001a7e0 f i ServerCore:DistributeJobBaseObject.obj
 0001:00019950       ?Clear@JobTimer@@QEAAXXZ   000000014001a950 f   ServerCore:JobTimer.obj
 0001:00019ae0       ?Push@?$ObjectPool@UJobInfo@@@@SAXPEAUJobInfo@@@Z 000000014001aae0 f i ServerCore:JobTimer.obj
 0001:00019be0       ?pop@?$priority_queue@UJobTimerInfo@@V?$vector@UJobTimerInfo@@V?$StlAllocator@UJobTimerInfo@@@@@std@@U?$less@UJobTimerInfo@@@3@@std@@QEAAXXZ 000000014001abe0 f i ServerCore:JobTimer.obj
 0001:00019d00       ?Clear@DBConnectionPool@@QEAAXXZ 000000014001ad00 f   ServerCore:DBConnectionPool.obj
 0001:00019f20       ??1?$vector@PEAVDBConnection@@V?$StlAllocator@PEAVDBConnection@@@@@std@@QEAA@XZ 000000014001af20 f i ServerCore:DBConnectionPool.obj
 0001:00019f90       ?resize@?$vector@EV?$StlAllocator@E@@@std@@QEAAX_K@Z 000000014001af90 f i ServerCore:FileHelper.obj
 0001:0001a010       ?reserve@?$basic_string@DU?$char_traits@D@std@@V?$allocator@D@2@@std@@QEAAX_K@Z 000000014001b010 f i ServerCore:FileHelper.obj
 0001:0001a0c0       ??$_Reallocate_grow_by@V<lambda_1>@?L@??reserve@?$basic_string@DU?$char_traits@D@std@@V?$allocator@D@2@@std@@QEAAX_K@Z@$$V@?$basic_string@DU?$char_traits@D@std@@V?$allocator@D@2@@std@@AEAAAEAV01@_KV<lambda_1>@?L@??reserve@01@QEAAX0@Z@@Z 000000014001b0c0 f i ServerCore:FileHelper.obj
 0001:0001a210       ??$_Resize_reallocate@U_Value_init_tag@std@@@?$vector@EV?$StlAllocator@E@@@std@@AEAAX_KAEBU_Value_init_tag@1@@Z 000000014001b210 f i ServerCore:FileHelper.obj
 0001:0001a350       ??$_Reallocate_grow_by@V<lambda_1>@?1??append@?$basic_string@DU?$char_traits@D@std@@V?$allocator@D@2@@std@@QEAAAEAV34@QEBD_K@Z@PEBD_K@?$basic_string@DU?$char_traits@D@std@@V?$allocator@D@2@@std@@AEAAAEAV01@_KV<lambda_1>@?1??append@01@QEAAAEAV01@QEBD0@Z@PEBD_K@Z 000000014001b350 f i ServerCore:FileHelper.obj
 0001:0001a4e0       ?append@?$basic_string@DU?$char_traits@D@std@@V?$allocator@D@2@@std@@QEAAAEAV12@QEBD_K@Z 000000014001b4e0 f i ServerCore:FileHelper.obj
 0001:0001ac80       ??$Clear@V?$GenericTypeHandler@VMessage@protobuf@google@@@internal@protobuf@google@@@RepeatedPtrFieldBase@internal@protobuf@google@@QEAAXXZ 000000014001bc80 f i libprotobuf:generated_message_reflection.obj
 0001:0001ac80       ??$Clear@VTypeHandler@?$RepeatedPtrField@VMessage@protobuf@google@@@protobuf@google@@@RepeatedPtrFieldBase@internal@protobuf@google@@QEAAXXZ 000000014001bc80 f i libprotobuf:message.obj
 0001:0001ace0       ??$GetRepeatedFieldInternal@H@Reflection@protobuf@google@@AEBAAEBV?$RepeatedField@H@12@AEBVMessage@12@PEBVFieldDescriptor@12@@Z 000000014001bce0 f   libprotobuf:generated_message_reflection.obj
 0001:0001ace0       ??$MutableRepeatedFieldInternal@H@Reflection@protobuf@google@@AEBAPEAV?$RepeatedField@H@12@PEAVMessage@12@PEBVFieldDescriptor@12@@Z 000000014001bce0 f   libprotobuf:generated_message_reflection.obj
 0001:0001ad10       ??$GetRepeatedFieldInternal@I@Reflection@protobuf@google@@AEBAAEBV?$RepeatedField@I@12@AEBVMessage@12@PEBVFieldDescriptor@12@@Z 000000014001bd10 f   libprotobuf:generated_message_reflection.obj
 0001:0001ad10       ??$MutableRepeatedFieldInternal@I@Reflection@protobuf@google@@AEBAPEAV?$RepeatedField@I@12@PEAVMessage@12@PEBVFieldDescriptor@12@@Z 000000014001bd10 f   libprotobuf:generated_message_reflection.obj
 0001:0001ad40       ??$GetRepeatedFieldInternal@M@Reflection@protobuf@google@@AEBAAEBV?$RepeatedField@M@12@AEBVMessage@12@PEBVFieldDescriptor@12@@Z 000000014001bd40 f   libprotobuf:generated_message_reflection.obj
 0001:0001ad40       ??$MutableRepeatedFieldInternal@M@Reflection@protobuf@google@@AEBAPEAV?$RepeatedField@M@12@PEAVMessage@12@PEBVFieldDescriptor@12@@Z 000000014001bd40 f   libprotobuf:generated_message_reflection.obj
 0001:0001ad70       ??$GetRepeatedFieldInternal@N@Reflection@protobuf@google@@AEBAAEBV?$RepeatedField@N@12@AEBVMessage@12@PEBVFieldDescriptor@12@@Z 000000014001bd70 f   libprotobuf:generated_message_reflection.obj
 0001:0001ad70       ??$MutableRepeatedFieldInternal@N@Reflection@protobuf@google@@AEBAPEAV?$RepeatedField@N@12@PEAVMessage@12@PEBVFieldDescriptor@12@@Z 000000014001bd70 f   libprotobuf:generated_message_reflection.obj
 0001:0001ada0       ??$GetRepeatedFieldInternal@_J@Reflection@protobuf@google@@AEBAAEBV?$RepeatedField@_J@12@AEBVMessage@12@PEBVFieldDescriptor@12@@Z 000000014001bda0 f   libprotobuf:generated_message_reflection.obj
 0001:0001ada0       ??$MutableRepeatedFieldInternal@_J@Reflection@protobuf@google@@AEBAPEAV?$RepeatedField@_J@12@PEAVMessage@12@PEBVFieldDescriptor@12@@Z 000000014001bda0 f   libprotobuf:generated_message_reflection.obj
 0001:0001add0       ??$GetRepeatedFieldInternal@_K@Reflection@protobuf@google@@AEBAAEBV?$RepeatedField@_K@12@AEBVMessage@12@PEBVFieldDescriptor@12@@Z 000000014001bdd0 f   libprotobuf:generated_message_reflection.obj
 0001:0001add0       ??$MutableRepeatedFieldInternal@_K@Reflection@protobuf@google@@AEBAPEAV?$RepeatedField@_K@12@PEAVMessage@12@PEBVFieldDescriptor@12@@Z 000000014001bdd0 f   libprotobuf:generated_message_reflection.obj
 0001:0001ae00       ??$GetRepeatedFieldInternal@_N@Reflection@protobuf@google@@AEBAAEBV?$RepeatedField@_N@12@AEBVMessage@12@PEBVFieldDescriptor@12@@Z 000000014001be00 f   libprotobuf:generated_message_reflection.obj
 0001:0001ae00       ??$MutableRepeatedFieldInternal@_N@Reflection@protobuf@google@@AEBAPEAV?$RepeatedField@_N@12@PEAVMessage@12@PEBVFieldDescriptor@12@@Z 000000014001be00 f   libprotobuf:generated_message_reflection.obj
 0001:0001ae30       ??$MutableField@UArenaStringPtr@internal@protobuf@google@@@Reflection@protobuf@google@@AEBAPEAUArenaStringPtr@internal@12@PEAVMessage@12@PEBVFieldDescriptor@12@@Z 000000014001be30 f i libprotobuf:generated_message_reflection.obj
 0001:0001af00       ??$SetField@H@Reflection@protobuf@google@@AEBAXPEAVMessage@12@PEBVFieldDescriptor@12@AEBH@Z 000000014001bf00 f i libprotobuf:generated_message_reflection.obj
 0001:0001af00       ??$SetField@I@Reflection@protobuf@google@@AEBAXPEAVMessage@12@PEBVFieldDescriptor@12@AEBI@Z 000000014001bf00 f i libprotobuf:generated_message_reflection.obj
 0001:0001af00       ??$SetField@M@Reflection@protobuf@google@@AEBAXPEAVMessage@12@PEBVFieldDescriptor@12@AEBM@Z 000000014001bf00 f i libprotobuf:generated_message_reflection.obj
 0001:0001b040       ??$SetField@N@Reflection@protobuf@google@@AEBAXPEAVMessage@12@PEBVFieldDescriptor@12@AEBN@Z 000000014001c040 f i libprotobuf:generated_message_reflection.obj
 0001:0001b040       ??$SetField@UArenaStringPtr@internal@protobuf@google@@@Reflection@protobuf@google@@AEBAXPEAVMessage@12@PEBVFieldDescriptor@12@AEBUArenaStringPtr@internal@12@@Z 000000014001c040 f i libprotobuf:generated_message_reflection.obj
 0001:0001b040       ??$SetField@_J@Reflection@protobuf@google@@AEBAXPEAVMessage@12@PEBVFieldDescriptor@12@AEB_J@Z 000000014001c040 f i libprotobuf:generated_message_reflection.obj
 0001:0001b040       ??$SetField@_K@Reflection@protobuf@google@@AEBAXPEAVMessage@12@PEBVFieldDescriptor@12@AEB_K@Z 000000014001c040 f i libprotobuf:generated_message_reflection.obj
 0001:0001b180       ??$SetField@_N@Reflection@protobuf@google@@AEBAXPEAVMessage@12@PEBVFieldDescriptor@12@AEB_N@Z 000000014001c180 f i libprotobuf:generated_message_reflection.obj
 0001:0001b2c0       ??$SwapOneofField@$00@Reflection@protobuf@google@@AEBAXPEAVMessage@12@0PEBVOneofDescriptor@12@@Z 000000014001c2c0 f i libprotobuf:generated_message_reflection.obj
 0001:0001b490       ??$UnsafeArenaAddAllocated@V?$GenericTypeHandler@VMessage@protobuf@google@@@internal@protobuf@google@@@RepeatedPtrFieldBase@internal@protobuf@google@@IEAAXPEAVMessage@23@@Z 000000014001c490 f i libprotobuf:generated_message_reflection.obj
 0001:0001b490       ??$UnsafeArenaAddAllocated@VTypeHandler@?$RepeatedPtrField@VMessageLite@protobuf@google@@@protobuf@google@@@RepeatedPtrFieldBase@internal@protobuf@google@@IEAAXPEAVMessageLite@23@@Z 000000014001c490 f i libprotobuf:extension_set_heavy.obj
 0001:0001b520       ??$_Emplace_reallocate@AEBQEBVFieldDescriptor@protobuf@google@@@?$vector@PEBVFieldDescriptor@protobuf@google@@V?$allocator@PEBVFieldDescriptor@protobuf@google@@@std@@@std@@QEAAPEAPEBVFieldDescriptor@protobuf@google@@QEAPEBV234@AEBQEBV234@@Z 000000014001c520 f i libprotobuf:generated_message_reflection.obj
 0001:0001b520       ??$_Emplace_reallocate@AEBQEBVFileDescriptor@protobuf@google@@@?$vector@PEBVFileDescriptor@protobuf@google@@V?$allocator@PEBVFileDescriptor@protobuf@google@@@std@@@std@@QEAAPEAPEBVFileDescriptor@protobuf@google@@QEAPEBV234@AEBQEBV234@@Z 000000014001c520 f i libprotobuf:descriptor.obj
 0001:0001b520       ??$_Emplace_reallocate@AEBQEBVMessage@protobuf@google@@@?$vector@PEBVMessage@protobuf@google@@V?$allocator@PEBVMessage@protobuf@google@@@std@@@std@@QEAAPEAPEBVMessage@protobuf@google@@QEAPEBV234@AEBQEBV234@@Z 000000014001c520 f i libprotobuf:text_format.obj
 0001:0001b520       ??$_Emplace_reallocate@PEBVMessage@protobuf@google@@@?$vector@PEBVMessage@protobuf@google@@V?$allocator@PEBVMessage@protobuf@google@@@std@@@std@@QEAAPEAPEBVMessage@protobuf@google@@QEAPEBV234@$$QEAPEBV234@@Z 000000014001c520 f i libprotobuf:wire_format.obj
 0001:0001b620       ??$_Emplace_reallocate@AEBUParseLocationRange@TextFormat@protobuf@google@@@?$vector@UParseLocationRange@TextFormat@protobuf@google@@V?$allocator@UParseLocationRange@TextFormat@protobuf@google@@@std@@@std@@QEAAPEAUParseLocationRange@TextFormat@protobuf@google@@QEAU2345@AEBU2345@@Z 000000014001c620 f i libprotobuf:text_format.obj
 0001:0001b620       ??$_Emplace_reallocate@U?$pair@P6AXPEBX@ZPEBX@std@@@?$vector@U?$pair@P6AXPEBX@ZPEBX@std@@V?$allocator@U?$pair@P6AXPEBX@ZPEBX@std@@@2@@std@@QEAAPEAU?$pair@P6AXPEBX@ZPEBX@1@QEAU21@$$QEAU21@@Z 000000014001c620 f i libprotobuf:message_lite.obj
 0001:0001b620       ??$_Emplace_reallocate@U?$pair@PEBUMetadata@protobuf@google@@PEBU123@@std@@@?$vector@U?$pair@PEBUMetadata@protobuf@google@@PEBU123@@std@@V?$allocator@U?$pair@PEBUMetadata@protobuf@google@@PEBU123@@std@@@2@@std@@QEAAPEAU?$pair@PEBUMetadata@protobuf@google@@PEBU123@@1@QEAU21@$$QEAU21@@Z 000000014001c620 f i libprotobuf:generated_message_reflection.obj
 0001:0001b810       ??$_Erase_tree@V?$allocator@U?$_Tree_node@HPEAX@std@@@std@@@?$_Tree_val@U?$_Tree_simple_types@H@std@@@std@@QEAAXAEAV?$allocator@U?$_Tree_node@HPEAX@std@@@1@PEAU?$_Tree_node@HPEAX@1@@Z 000000014001c810 f i libprotobuf:generated_message_reflection.obj
 0001:0001be90       ?<lambda_invoker_cdecl>@<lambda_2e4babd665f3bbe8c9492f0fc74f58b9>@@CA@PEBX@Z 000000014001ce90 f i libprotobuf:descriptor.obj
 0001:0001be90       ??$arena_delete_object@VMessageLite@protobuf@google@@@internal@protobuf@google@@YAXPEAX@Z 000000014001ce90 f i libprotobuf:generated_message_reflection.obj
 0001:0001beb0       ??$arena_destruct_object@V?$basic_string@DU?$char_traits@D@std@@V?$allocator@D@2@@std@@@internal@protobuf@google@@YAXPEAX@Z 000000014001ceb0 f i libprotobuf:generated_message_reflection.obj
 0001:0001beb0       ??1?$pair@$$CBV?$basic_string@DU?$char_traits@D@std@@V?$allocator@D@2@@std@@W4WellKnownType@Descriptor@protobuf@google@@@std@@QEAA@XZ 000000014001ceb0 f i libprotobuf:descriptor.obj
 0001:0001beb0       ??1?$pair@V?$basic_string@DU?$char_traits@D@std@@V?$allocator@D@2@@std@@H@std@@QEAA@XZ 000000014001ceb0 f i libprotobuf:descriptor_database.obj
 0001:0001beb0       ??1?$pair@V?$basic_string@DU?$char_traits@D@std@@V?$allocator@D@2@@std@@PEBVDescriptor@protobuf@google@@@std@@QEAA@XZ 000000014001ceb0 f i libprotobuf:descriptor.obj
 0001:0001beb0       ??1?$pair@V?$basic_string@DU?$char_traits@D@std@@V?$allocator@D@2@@std@@PEBVEnumValueDescriptor@protobuf@google@@@std@@QEAA@XZ 000000014001ceb0 f i libprotobuf:descriptor.obj
 0001:0001beb0       ?DestroyString@internal@protobuf@google@@YAXPEBX@Z 000000014001ceb0 f i libprotobuf:generated_message_util.obj
 0001:0001beb0       ?Destruct@?$ExplicitlyConstructed@V?$basic_string@DU?$char_traits@D@std@@V?$allocator@D@2@@std@@$00@internal@protobuf@google@@QEAAXXZ 000000014001ceb0 f i libprotobuf:generated_message_reflection.obj
 0001:0001bf10       ??0AddDescriptorsRunner@internal@protobuf@google@@QEAA@PEBUDescriptorTable@123@@Z 000000014001cf10 f   libprotobuf:generated_message_reflection.obj
 0001:0001bf30       ??0MapIterator@protobuf@google@@QEAA@PEAVMessage@12@PEBVFieldDescriptor@12@@Z 000000014001cf30 f i libprotobuf:generated_message_reflection.obj
 0001:0001c060       ??0Reflection@protobuf@google@@AEAA@PEBVDescriptor@12@AEBUReflectionSchema@internal@12@PEBVDescriptorPool@12@PEAVMessageFactory@12@@Z 000000014001d060 f   libprotobuf:generated_message_reflection.obj
 0001:0001c0d0       ??1?$CallOnceInitializedMutex@Vmutex@std@@@internal@protobuf@google@@QEAA@XZ 000000014001d0d0 f i libprotobuf:generated_message_reflection.obj
 0001:0001c140       ??1?$_Alloc_construct_ptr@V?$allocator@U?$_List_node@U?$pair@QEBVDescriptor@protobuf@google@@PEBUTypeInfo@DynamicMessageFactory@23@@std@@PEAX@std@@@std@@@std@@QEAA@XZ 000000014001d140 f i libprotobuf:dynamic_message.obj
 0001:0001c140       ??1?$_Alloc_construct_ptr@V?$allocator@U?$_List_node@U?$pair@QEBVDescriptor@protobuf@google@@PEBVMessage@23@@std@@PEAX@std@@@std@@@std@@QEAA@XZ 000000014001d140 f i libprotobuf:message.obj
 0001:0001c140       ??1?$_Alloc_construct_ptr@V?$allocator@U?$_Tree_node@HPEAX@std@@@std@@@std@@QEAA@XZ 000000014001d140 f i libprotobuf:generated_message_reflection.obj
 0001:0001c140       ??1?$_List_node_emplace_op2@V?$allocator@U?$_List_node@U?$pair@QEBVDescriptor@protobuf@google@@PEBUTypeInfo@DynamicMessageFactory@23@@std@@PEAX@std@@@std@@@std@@QEAA@XZ 000000014001d140 f i libprotobuf:dynamic_message.obj
 0001:0001c140       ??1?$_List_node_emplace_op2@V?$allocator@U?$_List_node@U?$pair@QEBVDescriptor@protobuf@google@@PEBVMessage@23@@std@@PEAX@std@@@std@@@std@@QEAA@XZ 000000014001d140 f i libprotobuf:message.obj
 0001:0001c160       ??1?$set@HU?$less@H@std@@V?$allocator@H@2@@std@@QEAA@XZ 000000014001d160 f i libprotobuf:generated_message_reflection.obj
 0001:0001c1c0       ??1?$vector@PEBVFieldDescriptor@protobuf@google@@V?$allocator@PEBVFieldDescriptor@protobuf@google@@@std@@@std@@QEAA@XZ 000000014001d1c0 f i libprotobuf:generated_message_reflection.obj
 0001:0001c1c0       ??1?$vector@PEBVFileDescriptor@protobuf@google@@V?$allocator@PEBVFileDescriptor@protobuf@google@@@std@@@std@@QEAA@XZ 000000014001d1c0 f i libprotobuf:descriptor.obj
 0001:0001c1c0       ??1?$vector@PEBVMessage@protobuf@google@@V?$allocator@PEBVMessage@protobuf@google@@@std@@@std@@QEAA@XZ 000000014001d1c0 f i libprotobuf:wire_format.obj
 0001:0001c1c0       ??1?$vector@VSymbol@protobuf@google@@V?$allocator@VSymbol@protobuf@google@@@std@@@std@@QEAA@XZ 000000014001d1c0 f i libprotobuf:descriptor.obj
 0001:0001c220       ??1?$pair@$$CBHV?$basic_string@DU?$char_traits@D@std@@V?$allocator@D@2@@std@@@std@@QEAA@XZ 000000014001d220 f i libprotobuf:descriptor.obj
 0001:0001c220       ??1ExtensionEntry@DescriptorIndex@EncodedDescriptorDatabase@protobuf@google@@QEAA@XZ 000000014001d220 f i libprotobuf:descriptor_database.obj
 0001:0001c220       ??1FileEntry@DescriptorIndex@EncodedDescriptorDatabase@protobuf@google@@QEAA@XZ 000000014001d220 f i libprotobuf:descriptor_database.obj
 0001:0001c220       ??1LocalVarWrapper@?1???$SwapOneofField@$00@Reflection@protobuf@google@@AEBAXPEAVMessage@23@0PEBVOneofDescriptor@23@@Z@QEAA@XZ 000000014001d220 f i libprotobuf:generated_message_reflection.obj
 0001:0001c220       ??1SymbolEntry@DescriptorIndex@EncodedDescriptorDatabase@protobuf@google@@QEAA@XZ 000000014001d220 f i libprotobuf:descriptor_database.obj
 0001:0001c220       ??1Token@Tokenizer@io@protobuf@google@@QEAA@XZ 000000014001d220 f i libprotobuf:tokenizer.obj
 0001:0001c290       ??1MapIterator@protobuf@google@@QEAA@XZ 000000014001d290 f i libprotobuf:generated_message_reflection.obj
 0001:0001c2d0       ??$arena_destruct_object@VMapKey@protobuf@google@@@internal@protobuf@google@@YAXPEAX@Z 000000014001d2d0 f i libprotobuf:map_field.obj
 0001:0001c2d0       ??1MapKey@protobuf@google@@QEAA@XZ 000000014001d2d0 f i libprotobuf:generated_message_reflection.obj
 0001:0001c2e0       ??1_Init_once_completer@std@@QEAA@XZ 000000014001d2e0 f i libprotobuf:generated_message_reflection.obj
 0001:0001c310       ??4?$basic_string@DU?$char_traits@D@std@@V?$allocator@D@2@@std@@QEAAAEAV01@$$QEAV01@@Z 000000014001d310 f i libprotobuf:generated_message_reflection.obj
 0001:0001c490       ?AddBool@Reflection@protobuf@google@@QEBAXPEAVMessage@23@PEBVFieldDescriptor@23@_N@Z 000000014001d490 f   libprotobuf:generated_message_reflection.obj
 0001:0001c620       ?AddDouble@Reflection@protobuf@google@@QEBAXPEAVMessage@23@PEBVFieldDescriptor@23@N@Z 000000014001d620 f   libprotobuf:generated_message_reflection.obj
 0001:0001c740       ?AddEnum@Reflection@protobuf@google@@QEBAXPEAVMessage@23@PEBVFieldDescriptor@23@PEBVEnumValueDescriptor@23@@Z 000000014001d740 f   libprotobuf:generated_message_reflection.obj
 0001:0001c7b0       ?AddEnumValue@Reflection@protobuf@google@@QEBAXPEAVMessage@23@PEBVFieldDescriptor@23@H@Z 000000014001d7b0 f   libprotobuf:generated_message_reflection.obj
 0001:0001c8d0       ?AddEnumValueInternal@Reflection@protobuf@google@@AEBAXPEAVMessage@23@PEBVFieldDescriptor@23@H@Z 000000014001d8d0 f   libprotobuf:generated_message_reflection.obj
 0001:0001c960       ?AddFloat@Reflection@protobuf@google@@QEBAXPEAVMessage@23@PEBVFieldDescriptor@23@M@Z 000000014001d960 f   libprotobuf:generated_message_reflection.obj
 0001:0001ca80       ?AddInt32@Reflection@protobuf@google@@QEBAXPEAVMessage@23@PEBVFieldDescriptor@23@H@Z 000000014001da80 f   libprotobuf:generated_message_reflection.obj
 0001:0001cb90       ?AddInt64@Reflection@protobuf@google@@QEBAXPEAVMessage@23@PEBVFieldDescriptor@23@_J@Z 000000014001db90 f   libprotobuf:generated_message_reflection.obj
 0001:0001cca0       ?AddMessage@Reflection@protobuf@google@@QEBAPEAVMessage@23@PEAV423@PEBVFieldDescriptor@23@PEAVMessageFactory@23@@Z 000000014001dca0 f   libprotobuf:generated_message_reflection.obj
 0001:0001ce20       ?AddString@Reflection@protobuf@google@@QEBAXPEAVMessage@23@PEBVFieldDescriptor@23@V?$basic_string@DU?$char_traits@D@std@@V?$allocator@D@2@@std@@@Z 000000014001de20 f   libprotobuf:generated_message_reflection.obj
 0001:0001d000       ?AddUInt32@Reflection@protobuf@google@@QEBAXPEAVMessage@23@PEBVFieldDescriptor@23@I@Z 000000014001e000 f   libprotobuf:generated_message_reflection.obj
 0001:0001d110       ?AddUInt64@Reflection@protobuf@google@@QEBAXPEAVMessage@23@PEBVFieldDescriptor@23@_K@Z 000000014001e110 f   libprotobuf:generated_message_reflection.obj
 0001:0001d220       ?AssignDescriptors@internal@protobuf@google@@YA?AUMetadata@23@P6APEBUDescriptorTable@123@XZPEAUonce_flag@std@@AEBU423@@Z 000000014001e220 f   libprotobuf:generated_message_reflection.obj
 0001:0001d2c0       ?AssignDescriptors@internal@protobuf@google@@YAXPEBUDescriptorTable@123@_N@Z 000000014001e2c0 f   libprotobuf:generated_message_reflection.obj
 0001:0001d9e0       ?AssignMessageDescriptor@AssignDescriptorsHelper@protobuf@google@@QEAAXPEBVDescriptor@23@@Z 000000014001e9e0 f i libprotobuf:generated_message_reflection.obj
 0001:0001dbb0       ?ClearBit@Reflection@protobuf@google@@AEBAXPEAVMessage@23@PEBVFieldDescriptor@23@@Z 000000014001ebb0 f i libprotobuf:generated_message_reflection.obj
 0001:0001dc10       ?ClearField@Reflection@protobuf@google@@QEBAXPEAVMessage@23@PEBVFieldDescriptor@23@@Z 000000014001ec10 f   libprotobuf:generated_message_reflection.obj
 0001:0001e050       ?ClearOneof@Reflection@protobuf@google@@QEBAXPEAVMessage@23@PEBVOneofDescriptor@23@@Z 000000014001f050 f   libprotobuf:generated_message_reflection.obj
 0001:0001e180       ?FieldSize@Reflection@protobuf@google@@QEBAHAEBVMessage@23@PEBVFieldDescriptor@23@@Z 000000014001f180 f   libprotobuf:generated_message_reflection.obj
 0001:0001e3c0       ?FindKnownExtensionByNumber@Reflection@protobuf@google@@QEBAPEBVFieldDescriptor@23@H@Z 000000014001f3c0 f   libprotobuf:generated_message_reflection.obj
 0001:0001e3e0       ?GetBool@MessageWrapper@?1???$SwapOneofField@$00@Reflection@protobuf@google@@AEBAXPEAVMessage@34@0PEBVOneofDescriptor@34@@Z@QEBA_NXZ 000000014001f3e0 f i libprotobuf:generated_message_reflection.obj
 0001:0001e410       ?GetBool@Reflection@protobuf@google@@QEBA_NAEBVMessage@23@PEBVFieldDescriptor@23@@Z 000000014001f410 f   libprotobuf:generated_message_reflection.obj
 0001:0001e530       ?GetDefaultMessageInstance@Reflection@protobuf@google@@AEBAPEBVMessage@23@PEBVFieldDescriptor@23@@Z 000000014001f530 f   libprotobuf:generated_message_reflection.obj
 0001:0001e6b0       ?GetDouble@MessageWrapper@?1???$SwapOneofField@$00@Reflection@protobuf@google@@AEBAXPEAVMessage@34@0PEBVOneofDescriptor@34@@Z@QEBANXZ 000000014001f6b0 f i libprotobuf:generated_message_reflection.obj
 0001:0001e6e0       ?GetDouble@Reflection@protobuf@google@@QEBANAEBVMessage@23@PEBVFieldDescriptor@23@@Z 000000014001f6e0 f   libprotobuf:generated_message_reflection.obj
 0001:0001e800       ?GetEnum@Reflection@protobuf@google@@QEBAPEBVEnumValueDescriptor@23@AEBVMessage@23@PEBVFieldDescriptor@23@@Z 000000014001f800 f   libprotobuf:generated_message_reflection.obj
 0001:0001e940       ?GetEnumValue@Reflection@protobuf@google@@QEBAHAEBVMessage@23@PEBVFieldDescriptor@23@@Z 000000014001f940 f   libprotobuf:generated_message_reflection.obj
 0001:0001ea70       ?GetFieldOffset@ReflectionSchema@internal@protobuf@google@@QEBAIPEBVFieldDescriptor@34@@Z 000000014001fa70 f i libprotobuf:generated_message_reflection.obj
 0001:0001eb20       ?GetFieldOffsetNonOneof@ReflectionSchema@internal@protobuf@google@@QEBAIPEBVFieldDescriptor@34@@Z 000000014001fb20 f i libprotobuf:generated_message_reflection.obj
 0001:0001ebe0       ?GetFloat@MessageWrapper@?1???$SwapOneofField@$00@Reflection@protobuf@google@@AEBAXPEAVMessage@34@0PEBVOneofDescriptor@34@@Z@QEBAMXZ 000000014001fbe0 f i libprotobuf:generated_message_reflection.obj
 0001:0001ec10       ?GetFloat@Reflection@protobuf@google@@QEBAMAEBVMessage@23@PEBVFieldDescriptor@23@@Z 000000014001fc10 f   libprotobuf:generated_message_reflection.obj
 0001:0001ed30       ?GetInt32@Reflection@protobuf@google@@QEBAHAEBVMessage@23@PEBVFieldDescriptor@23@@Z 000000014001fd30 f   libprotobuf:generated_message_reflection.obj
 0001:0001ee50       ?GetInt64@MessageWrapper@?1???$SwapOneofField@$00@Reflection@protobuf@google@@AEBAXPEAVMessage@34@0PEBVOneofDescriptor@34@@Z@QEBA_JXZ 000000014001fe50 f i libprotobuf:generated_message_reflection.obj
 0001:0001ee50       ?GetUint64@MessageWrapper@?1???$SwapOneofField@$00@Reflection@protobuf@google@@AEBAXPEAVMessage@34@0PEBVOneofDescriptor@34@@Z@QEBA_KXZ 000000014001fe50 f i libprotobuf:generated_message_reflection.obj
 0001:0001ee80       ?GetInt64@Reflection@protobuf@google@@QEBA_JAEBVMessage@23@PEBVFieldDescriptor@23@@Z 000000014001fe80 f   libprotobuf:generated_message_reflection.obj
 0001:0001efa0       ?GetInternalMetadata@Reflection@protobuf@google@@AEBAAEBVInternalMetadata@internal@23@AEBVMessage@23@@Z 000000014001ffa0 f   libprotobuf:generated_message_reflection.obj
 0001:0001efa0       ?MutableInternalMetadata@Reflection@protobuf@google@@AEBAPEAVInternalMetadata@internal@23@PEAVMessage@23@@Z 000000014001ffa0 f   libprotobuf:generated_message_reflection.obj
 0001:0001efb0       ?GetMapData@Reflection@protobuf@google@@AEBAPEBVMapFieldBase@internal@23@AEBVMessage@23@PEBVFieldDescriptor@23@@Z 000000014001ffb0 f   libprotobuf:generated_message_reflection.obj
 0001:0001f020       ?GetMessage@Reflection@protobuf@google@@QEBAAEBVMessage@23@AEBV423@PEBVFieldDescriptor@23@PEAVMessageFactory@23@@Z 0000000140020020 f   libprotobuf:generated_message_reflection.obj
 0001:0001f160       ?GetMessageFactory@Reflection@protobuf@google@@QEBAPEAVMessageFactory@23@XZ 0000000140020160 f   libprotobuf:generated_message_reflection.obj
 0001:0001f170       ?GetOneofFieldDescriptor@Reflection@protobuf@google@@QEBAPEBVFieldDescriptor@23@AEBVMessage@23@PEBVOneofDescriptor@23@@Z 0000000140020170 f   libprotobuf:generated_message_reflection.obj
 0001:0001f1f0       ?GetRawRepeatedField@Reflection@protobuf@google@@AEBAPEBXAEBVMessage@23@PEBVFieldDescriptor@23@W4CppType@523@HPEBVDescriptor@23@@Z 00000001400201f0 f   libprotobuf:generated_message_reflection.obj
 0001:0001f400       ?GetRepeatedBool@Reflection@protobuf@google@@QEBA_NAEBVMessage@23@PEBVFieldDescriptor@23@H@Z 0000000140020400 f   libprotobuf:generated_message_reflection.obj
 0001:0001f4d0       ?GetRepeatedDouble@Reflection@protobuf@google@@QEBANAEBVMessage@23@PEBVFieldDescriptor@23@H@Z 00000001400204d0 f   libprotobuf:generated_message_reflection.obj
 0001:0001f5a0       ?GetRepeatedEnum@Reflection@protobuf@google@@QEBAPEBVEnumValueDescriptor@23@AEBVMessage@23@PEBVFieldDescriptor@23@H@Z 00000001400205a0 f   libprotobuf:generated_message_reflection.obj
 0001:0001f680       ?GetRepeatedEnumValue@Reflection@protobuf@google@@QEBAHAEBVMessage@23@PEBVFieldDescriptor@23@H@Z 0000000140020680 f   libprotobuf:generated_message_reflection.obj
 0001:0001f750       ?GetRepeatedFloat@Reflection@protobuf@google@@QEBAMAEBVMessage@23@PEBVFieldDescriptor@23@H@Z 0000000140020750 f   libprotobuf:generated_message_reflection.obj
 0001:0001f820       ?GetRepeatedInt32@Reflection@protobuf@google@@QEBAHAEBVMessage@23@PEBVFieldDescriptor@23@H@Z 0000000140020820 f   libprotobuf:generated_message_reflection.obj
 0001:0001f8f0       ?GetRepeatedInt64@Reflection@protobuf@google@@QEBA_JAEBVMessage@23@PEBVFieldDescriptor@23@H@Z 00000001400208f0 f   libprotobuf:generated_message_reflection.obj
 0001:0001f9c0       ?GetRepeatedMessage@Reflection@protobuf@google@@QEBAAEBVMessage@23@AEBV423@PEBVFieldDescriptor@23@H@Z 00000001400209c0 f   libprotobuf:generated_message_reflection.obj
 0001:0001fad0       ?GetRepeatedString@Reflection@protobuf@google@@QEBA?AV?$basic_string@DU?$char_traits@D@std@@V?$allocator@D@2@@std@@AEBVMessage@23@PEBVFieldDescriptor@23@H@Z 0000000140020ad0 f   libprotobuf:generated_message_reflection.obj
 0001:0001fbc0       ?GetRepeatedStringReference@Reflection@protobuf@google@@QEBAAEBV?$basic_string@DU?$char_traits@D@std@@V?$allocator@D@2@@std@@AEBVMessage@23@PEBVFieldDescriptor@23@HPEAV45@@Z 0000000140020bc0 f   libprotobuf:generated_message_reflection.obj
 0001:0001fc90       ?GetRepeatedUInt32@Reflection@protobuf@google@@QEBAIAEBVMessage@23@PEBVFieldDescriptor@23@H@Z 0000000140020c90 f   libprotobuf:generated_message_reflection.obj
 0001:0001fd60       ?GetRepeatedUInt64@Reflection@protobuf@google@@QEBA_KAEBVMessage@23@PEBVFieldDescriptor@23@H@Z 0000000140020d60 f   libprotobuf:generated_message_reflection.obj
 0001:0001fe30       ?GetString@Reflection@protobuf@google@@QEBA?AV?$basic_string@DU?$char_traits@D@std@@V?$allocator@D@2@@std@@AEBVMessage@23@PEBVFieldDescriptor@23@@Z 0000000140020e30 f   libprotobuf:generated_message_reflection.obj
 0001:0001ffc0       ?GetStringReference@Reflection@protobuf@google@@QEBAAEBV?$basic_string@DU?$char_traits@D@std@@V?$allocator@D@2@@std@@AEBVMessage@23@PEBVFieldDescriptor@23@PEAV45@@Z 0000000140020fc0 f   libprotobuf:generated_message_reflection.obj
 0001:00020130       ?GetUInt32@Reflection@protobuf@google@@QEBAIAEBVMessage@23@PEBVFieldDescriptor@23@@Z 0000000140021130 f   libprotobuf:generated_message_reflection.obj
 0001:00020250       ?GetUInt64@Reflection@protobuf@google@@QEBA_KAEBVMessage@23@PEBVFieldDescriptor@23@@Z 0000000140021250 f   libprotobuf:generated_message_reflection.obj
 0001:00020370       ?GetUnknownFields@Reflection@protobuf@google@@QEBAAEBVUnknownFieldSet@23@AEBVMessage@23@@Z 0000000140021370 f   libprotobuf:generated_message_reflection.obj
 0001:00020390       ?HasBit@Reflection@protobuf@google@@AEBA_NAEBVMessage@23@PEBVFieldDescriptor@23@@Z 0000000140021390 f i libprotobuf:generated_message_reflection.obj
 0001:000205b0       ?HasBitIndex@ReflectionSchema@internal@protobuf@google@@QEBAIPEBVFieldDescriptor@34@@Z 00000001400215b0 f i libprotobuf:generated_message_reflection.obj
 0001:000205f0       ?HasField@Reflection@protobuf@google@@QEBA_NAEBVMessage@23@PEBVFieldDescriptor@23@@Z 00000001400215f0 f   libprotobuf:generated_message_reflection.obj
 0001:000206e0       ?HasOneof@Reflection@protobuf@google@@QEBA_NAEBVMessage@23@PEBVOneofDescriptor@23@@Z 00000001400216e0 f   libprotobuf:generated_message_reflection.obj
 0001:00020730       ?HasOneofField@Reflection@protobuf@google@@AEBA_NAEBVMessage@23@PEBVFieldDescriptor@23@@Z 0000000140021730 f i libprotobuf:generated_message_reflection.obj
 0001:00020780       ?InlinedStringIndex@ReflectionSchema@internal@protobuf@google@@QEBAIPEBVFieldDescriptor@34@@Z 0000000140021780 f i libprotobuf:generated_message_reflection.obj
 0001:00020800       ?IsInlined@Reflection@protobuf@google@@AEBA_NPEBVFieldDescriptor@23@@Z 0000000140021800 f i libprotobuf:generated_message_reflection.obj
 0001:000208f0       ?ListFields@Reflection@protobuf@google@@QEBAXAEBVMessage@23@PEAV?$vector@PEBVFieldDescriptor@protobuf@google@@V?$allocator@PEBVFieldDescriptor@protobuf@google@@@std@@@std@@@Z 00000001400218f0 f   libprotobuf:generated_message_reflection.obj
 0001:00020900       ?ListFieldsMayFailOnStripped@Reflection@protobuf@google@@AEBAXAEBVMessage@23@_NPEAV?$vector@PEBVFieldDescriptor@protobuf@google@@V?$allocator@PEBVFieldDescriptor@protobuf@google@@@std@@@std@@@Z 0000000140021900 f   libprotobuf:generated_message_reflection.obj
 0001:00020b70       ?ListFieldsOmitStripped@Reflection@protobuf@google@@AEBAXAEBVMessage@23@PEAV?$vector@PEBVFieldDescriptor@protobuf@google@@V?$allocator@PEBVFieldDescriptor@protobuf@google@@@std@@@std@@@Z 0000000140021b70 f   libprotobuf:generated_message_reflection.obj
 0001:00020b80       ?Lock@WrappedMutex@internal@protobuf@google@@QEAAXXZ 0000000140021b80 f i libprotobuf:generated_message_reflection.obj
 0001:00020bf0       ?LookupMapValue@Reflection@protobuf@google@@AEBA_NAEBVMessage@23@PEBVFieldDescriptor@23@AEBVMapKey@23@PEAVMapValueConstRef@23@@Z 0000000140021bf0 f   libprotobuf:generated_message_reflection.obj
 0001:00020c90       ?MapBegin@Reflection@protobuf@google@@AEBA?AVMapIterator@23@PEAVMessage@23@PEBVFieldDescriptor@23@@Z 0000000140021c90 f   libprotobuf:generated_message_reflection.obj
 0001:00020d30       ?MapEnd@Reflection@protobuf@google@@AEBA?AVMapIterator@23@PEAVMessage@23@PEBVFieldDescriptor@23@@Z 0000000140021d30 f   libprotobuf:generated_message_reflection.obj
 0001:00020dd0       ?Merge@?$GenericTypeHandler@VMessage@protobuf@google@@@internal@protobuf@google@@SAXAEBVMessage@34@PEAV534@@Z 0000000140021dd0 f i libprotobuf:generated_message_reflection.obj
 0001:00020de0       ?MutableMapData@Reflection@protobuf@google@@AEBAPEAVMapFieldBase@internal@23@PEAVMessage@23@PEBVFieldDescriptor@23@@Z 0000000140021de0 f   libprotobuf:generated_message_reflection.obj
 0001:00020e50       ?MutableMessage@Reflection@protobuf@google@@QEBAPEAVMessage@23@PEAV423@PEBVFieldDescriptor@23@PEAVMessageFactory@23@@Z 0000000140021e50 f   libprotobuf:generated_message_reflection.obj
 0001:000210a0       ?MutableRawRepeatedField@Reflection@protobuf@google@@AEBAPEAXPEAVMessage@23@PEBVFieldDescriptor@23@W4CppType@523@HPEBVDescriptor@23@@Z 00000001400220a0 f   libprotobuf:generated_message_reflection.obj
 0001:00021250       ?MutableUnknownFields@Reflection@protobuf@google@@QEBAPEAVUnknownFieldSet@23@PEAVMessage@23@@Z 0000000140022250 f   libprotobuf:generated_message_reflection.obj
 0001:00021270       ?RegisterFileLevelMetadata@internal@protobuf@google@@YAXPEBUDescriptorTable@123@@Z 0000000140022270 f   libprotobuf:generated_message_reflection.obj
 0001:00021330       ?RepeatedFieldData@Reflection@protobuf@google@@AEBAPEAXPEAVMessage@23@PEBVFieldDescriptor@23@W4CppType@523@PEBVDescriptor@23@@Z 0000000140022330 f   libprotobuf:generated_message_reflection.obj
 0001:000218a0       ?SetAllocatedMessage@Reflection@protobuf@google@@QEBAXPEAVMessage@23@0PEBVFieldDescriptor@23@@Z 00000001400228a0 f   libprotobuf:generated_message_reflection.obj
 0001:00021980       ?SetBit@Reflection@protobuf@google@@AEBAXPEAVMessage@23@PEBVFieldDescriptor@23@@Z 0000000140022980 f i libprotobuf:generated_message_reflection.obj
 0001:000219e0       ?SetBool@Reflection@protobuf@google@@QEBAXPEAVMessage@23@PEBVFieldDescriptor@23@_N@Z 00000001400229e0 f   libprotobuf:generated_message_reflection.obj
 0001:00021ad0       ?SetDouble@Reflection@protobuf@google@@QEBAXPEAVMessage@23@PEBVFieldDescriptor@23@N@Z 0000000140022ad0 f   libprotobuf:generated_message_reflection.obj
 0001:00021bc0       ?SetEnum@Reflection@protobuf@google@@QEBAXPEAVMessage@23@PEBVFieldDescriptor@23@PEBVEnumValueDescriptor@23@@Z 0000000140022bc0 f   libprotobuf:generated_message_reflection.obj
 0001:00021c60       ?SetEnumValue@Reflection@protobuf@google@@QEBAXPEAVMessage@23@PEBVFieldDescriptor@23@H@Z 0000000140022c60 f   libprotobuf:generated_message_reflection.obj
 0001:00021db0       ?SetFloat@Reflection@protobuf@google@@QEBAXPEAVMessage@23@PEBVFieldDescriptor@23@M@Z 0000000140022db0 f   libprotobuf:generated_message_reflection.obj
 0001:00021ea0       ?SetInt32@Reflection@protobuf@google@@QEBAXPEAVMessage@23@PEBVFieldDescriptor@23@H@Z 0000000140022ea0 f   libprotobuf:generated_message_reflection.obj
 0001:00021f90       ?SetInt64@Reflection@protobuf@google@@QEBAXPEAVMessage@23@PEBVFieldDescriptor@23@_J@Z 0000000140022f90 f   libprotobuf:generated_message_reflection.obj
 0001:00022080       ?SetOneofCase@Reflection@protobuf@google@@AEBAXPEAVMessage@23@PEBVFieldDescriptor@23@@Z 0000000140023080 f i libprotobuf:generated_message_reflection.obj
 0001:000220d0       ?SetString@Reflection@protobuf@google@@QEBAXPEAVMessage@23@PEBVFieldDescriptor@23@V?$basic_string@DU?$char_traits@D@std@@V?$allocator@D@2@@std@@@Z 00000001400230d0 f   libprotobuf:generated_message_reflection.obj
 0001:00022460       ?SetUInt32@Reflection@protobuf@google@@QEBAXPEAVMessage@23@PEBVFieldDescriptor@23@I@Z 0000000140023460 f   libprotobuf:generated_message_reflection.obj
 0001:00022550       ?SetUInt64@Reflection@protobuf@google@@QEBAXPEAVMessage@23@PEBVFieldDescriptor@23@_K@Z 0000000140023550 f   libprotobuf:generated_message_reflection.obj
 0001:00022640       ?SpaceUsedLong@Reflection@protobuf@google@@QEBA_KAEBVMessage@23@@Z 0000000140023640 f   libprotobuf:generated_message_reflection.obj
 0001:00022a40       ?SupportsUnknownEnumValues@Reflection@protobuf@google@@QEBA_NXZ 0000000140023a40 f   libprotobuf:generated_message_reflection.obj
 0001:00022a50       ?Swap@Reflection@protobuf@google@@QEBAXPEAVMessage@23@0@Z 0000000140023a50 f   libprotobuf:generated_message_reflection.obj
 0001:00022d30       ?SwapNonMessageNonStringField@SwapFieldHelper@internal@protobuf@google@@SAXPEBVReflection@34@PEAVMessage@34@1PEBVFieldDescriptor@34@@Z 0000000140023d30 f   libprotobuf:generated_message_reflection.obj
 0001:00022f20       ?Unlock@WrappedMutex@internal@protobuf@google@@QEAAXXZ 0000000140023f20 f i libprotobuf:generated_message_reflection.obj
 0001:00022f90       ?UnsafeArenaReleaseMessage@Reflection@protobuf@google@@QEBAPEAVMessage@23@PEAV423@PEBVFieldDescriptor@23@PEAVMessageFactory@23@@Z 0000000140023f90 f   libprotobuf:generated_message_reflection.obj
 0001:00023100       ?UnsafeArenaSetAllocatedMessage@Reflection@protobuf@google@@QEBAXPEAVMessage@23@0PEBVFieldDescriptor@23@@Z 0000000140024100 f   libprotobuf:generated_message_reflection.obj
 0001:00023270       ?UnsafeArenaSwap@Reflection@protobuf@google@@QEBAXPEAVMessage@23@0@Z 0000000140024270 f   libprotobuf:generated_message_reflection.obj
 0001:000235d0       ?UnsafeShallowSwapField@Reflection@protobuf@google@@AEBAXPEAVMessage@23@0PEBVFieldDescriptor@23@@Z 00000001400245d0 f   libprotobuf:generated_message_reflection.obj
 0001:000239d0       ?_Change_array@?$vector@PEBVFieldDescriptor@protobuf@google@@V?$allocator@PEBVFieldDescriptor@protobuf@google@@@std@@@std@@AEAAXQEAPEBVFieldDescriptor@protobuf@google@@_K1@Z 00000001400249d0 f i libprotobuf:generated_message_reflection.obj
 0001:000239d0       ?_Change_array@?$vector@PEBVFileDescriptor@protobuf@google@@V?$allocator@PEBVFileDescriptor@protobuf@google@@@std@@@std@@AEAAXQEAPEBVFileDescriptor@protobuf@google@@_K1@Z 00000001400249d0 f i libprotobuf:descriptor.obj
 0001:000239d0       ?_Change_array@?$vector@PEBVMessage@protobuf@google@@V?$allocator@PEBVMessage@protobuf@google@@@std@@@std@@AEAAXQEAPEBVMessage@protobuf@google@@_K1@Z 00000001400249d0 f i libprotobuf:wire_format.obj
 0001:000239d0       ?_Change_array@?$vector@VSymbol@protobuf@google@@V?$allocator@VSymbol@protobuf@google@@@std@@@std@@AEAAXQEAVSymbol@protobuf@google@@_K1@Z 00000001400249d0 f i libprotobuf:descriptor.obj
 0001:00023a60       ?_Getal@?$vector@PEBVFieldDescriptor@protobuf@google@@V?$allocator@PEBVFieldDescriptor@protobuf@google@@@std@@@std@@AEAAAEAV?$allocator@PEBVFieldDescriptor@protobuf@google@@@2@XZ 0000000140024a60 f i libprotobuf:generated_message_reflection.obj
 0001:00023a60       ?_Getal@?$vector@PEBVFileDescriptor@protobuf@google@@V?$allocator@PEBVFileDescriptor@protobuf@google@@@std@@@std@@AEAAAEAV?$allocator@PEBVFileDescriptor@protobuf@google@@@2@XZ 0000000140024a60 f i libprotobuf:descriptor.obj
 0001:00023a60       ?_Getal@?$vector@PEBVMessage@protobuf@google@@V?$allocator@PEBVMessage@protobuf@google@@@std@@@std@@AEAAAEAV?$allocator@PEBVMessage@protobuf@google@@@2@XZ 0000000140024a60 f i libprotobuf:wire_format.obj
 0001:00023a60       ?_Getal@?$vector@U?$pair@PEBVDescriptor@protobuf@google@@H@std@@V?$allocator@U?$pair@PEBVDescriptor@protobuf@google@@H@std@@@2@@std@@AEAAAEAV?$allocator@U?$pair@PEBVDescriptor@protobuf@google@@H@std@@@2@XZ 0000000140024a60 f i libprotobuf:descriptor.obj
 0001:00023a60       ?_Getal@?$vector@UEncodedEntry@DescriptorIndex@EncodedDescriptorDatabase@protobuf@google@@V?$allocator@UEncodedEntry@DescriptorIndex@EncodedDescriptorDatabase@protobuf@google@@@std@@@std@@AEAAAEAV?$allocator@UEncodedEntry@DescriptorIndex@EncodedDescriptorDatabase@protobuf@google@@@2@XZ 0000000140024a60 f i libprotobuf:descriptor_database.obj
 0001:00023a60       ?_Getal@?$vector@V?$basic_string@DU?$char_traits@D@std@@V?$allocator@D@2@@std@@V?$allocator@V?$basic_string@DU?$char_traits@D@std@@V?$allocator@D@2@@std@@@2@@std@@AEAAAEAV?$allocator@V?$basic_string@DU?$char_traits@D@std@@V?$allocator@D@2@@std@@@2@XZ 0000000140024a60 f i libprotobuf:descriptor_database.obj
 0001:00023a60       ?_Getal@?$vector@V?$unique_ptr@HUMiscDeleter@Tables@DescriptorPool@protobuf@google@@@std@@V?$allocator@V?$unique_ptr@HUMiscDeleter@Tables@DescriptorPool@protobuf@google@@@std@@@2@@std@@AEAAAEAV?$allocator@V?$unique_ptr@HUMiscDeleter@Tables@DescriptorPool@protobuf@google@@@std@@@2@XZ 0000000140024a60 f i libprotobuf:descriptor.obj
 0001:00023a60       ?_Getal@?$vector@VSymbol@protobuf@google@@V?$allocator@VSymbol@protobuf@google@@@std@@@std@@AEAAAEAV?$allocator@VSymbol@protobuf@google@@@2@XZ 0000000140024a60 f i libprotobuf:descriptor.obj
 0001:00023a70       ?_Insert_node@?$_Tree_val@U?$_Tree_simple_types@H@std@@@std@@QEAAPEAU?$_Tree_node@HPEAX@2@U?$_Tree_id@PEAU?$_Tree_node@HPEAX@std@@@2@QEAU32@@Z 0000000140024a70 f i libprotobuf:generated_message_reflection.obj
 0001:00023a70       ?_Insert_node@?$_Tree_val@U?$_Tree_simple_types@PEBVDescriptor@protobuf@google@@@std@@@std@@QEAAPEAU?$_Tree_node@PEBVDescriptor@protobuf@google@@PEAX@2@U?$_Tree_id@PEAU?$_Tree_node@PEBVDescriptor@protobuf@google@@PEAX@std@@@2@QEAU32@@Z 0000000140024a70 f i libprotobuf:descriptor.obj
 0001:00023a70       ?_Insert_node@?$_Tree_val@U?$_Tree_simple_types@PEBVFileDescriptor@protobuf@google@@@std@@@std@@QEAAPEAU?$_Tree_node@PEBVFileDescriptor@protobuf@google@@PEAX@2@U?$_Tree_id@PEAU?$_Tree_node@PEBVFileDescriptor@protobuf@google@@PEAX@std@@@2@QEAU32@@Z 0000000140024a70 f i libprotobuf:descriptor.obj
 0001:00023a70       ?_Insert_node@?$_Tree_val@U?$_Tree_simple_types@U?$pair@$$CBHUExtension@ExtensionSet@internal@protobuf@google@@@std@@@std@@@std@@QEAAPEAU?$_Tree_node@U?$pair@$$CBHUExtension@ExtensionSet@internal@protobuf@google@@@std@@PEAX@2@U?$_Tree_id@PEAU?$_Tree_node@U?$pair@$$CBHUExtension@ExtensionSet@internal@protobuf@google@@@std@@PEAX@std@@@2@QEAU32@@Z 0000000140024a70 f i libprotobuf:extension_set.obj
 0001:00023a70       ?_Insert_node@?$_Tree_val@U?$_Tree_simple_types@U?$pair@$$CBHV?$basic_string@DU?$char_traits@D@std@@V?$allocator@D@2@@std@@@std@@@std@@@std@@QEAAPEAU?$_Tree_node@U?$pair@$$CBHV?$basic_string@DU?$char_traits@D@std@@V?$allocator@D@2@@std@@@std@@PEAX@2@U?$_Tree_id@PEAU?$_Tree_node@U?$pair@$$CBHV?$basic_string@DU?$char_traits@D@std@@V?$allocator@D@2@@std@@@std@@PEAX@std@@@2@QEAU32@@Z 0000000140024a70 f i libprotobuf:descriptor.obj
 0001:00023a70       ?_Insert_node@?$_Tree_val@U?$_Tree_simple_types@U?$pair@$$CBU?$pair@PEBVDescriptor@protobuf@google@@H@std@@PEBVFieldDescriptor@protobuf@google@@@std@@@std@@@std@@QEAAPEAU?$_Tree_node@U?$pair@$$CBU?$pair@PEBVDescriptor@protobuf@google@@H@std@@PEBVFieldDescriptor@protobuf@google@@@std@@PEAX@2@U?$_Tree_id@PEAU?$_Tree_node@U?$pair@$$CBU?$pair@PEBVDescriptor@protobuf@google@@H@std@@PEBVFieldDescriptor@protobuf@google@@@std@@PEAX@std@@@2@QEAU32@@Z 0000000140024a70 f i libprotobuf:descriptor.obj
 0001:00023a70       ?_Insert_node@?$_Tree_val@U?$_Tree_simple_types@U?$pair@$$CBV?$basic_string@DU?$char_traits@D@std@@V?$allocator@D@2@@std@@PEBVDescriptor@protobuf@google@@@std@@@std@@@std@@QEAAPEAU?$_Tree_node@U?$pair@$$CBV?$basic_string@DU?$char_traits@D@std@@V?$allocator@D@2@@std@@PEBVDescriptor@protobuf@google@@@std@@PEAX@2@U?$_Tree_id@PEAU?$_Tree_node@U?$pair@$$CBV?$basic_string@DU?$char_traits@D@std@@V?$allocator@D@2@@std@@PEBVDescriptor@protobuf@google@@@std@@PEAX@std@@@2@QEAU32@@Z 0000000140024a70 f i libprotobuf:descriptor.obj
 0001:00023a70       ?_Insert_node@?$_Tree_val@U?$_Tree_simple_types@U?$pair@$$CBV?$basic_string@DU?$char_traits@D@std@@V?$allocator@D@2@@std@@PEBVEnumValueDescriptor@protobuf@google@@@std@@@std@@@std@@QEAAPEAU?$_Tree_node@U?$pair@$$CBV?$basic_string@DU?$char_traits@D@std@@V?$allocator@D@2@@std@@PEBVEnumValueDescriptor@protobuf@google@@@std@@PEAX@2@U?$_Tree_id@PEAU?$_Tree_node@U?$pair@$$CBV?$basic_string@DU?$char_traits@D@std@@V?$allocator@D@2@@std@@PEBVEnumValueDescriptor@protobuf@google@@@std@@PEAX@std@@@2@QEAU32@@Z 0000000140024a70 f i libprotobuf:descriptor.obj
 0001:00023a70       ?_Insert_node@?$_Tree_val@U?$_Tree_simple_types@U?$pair@$$CBV?$basic_string@DU?$char_traits@D@std@@V?$allocator@D@2@@std@@PEBVFieldDescriptor@protobuf@google@@@std@@@std@@@std@@QEAAPEAU?$_Tree_node@U?$pair@$$CBV?$basic_string@DU?$char_traits@D@std@@V?$allocator@D@2@@std@@PEBVFieldDescriptor@protobuf@google@@@std@@PEAX@2@U?$_Tree_id@PEAU?$_Tree_node@U?$pair@$$CBV?$basic_string@DU?$char_traits@D@std@@V?$allocator@D@2@@std@@PEBVFieldDescriptor@protobuf@google@@@std@@PEAX@std@@@2@QEAU32@@Z 0000000140024a70 f i libprotobuf:descriptor.obj
 0001:00023a70       ?_Insert_node@?$_Tree_val@U?$_Tree_simple_types@U?$pair@$$CBV?$reference_wrapper@$$CBVMapKey@protobuf@google@@@std@@PEAX@std@@@std@@@std@@QEAAPEAU?$_Tree_node@U?$pair@$$CBV?$reference_wrapper@$$CBVMapKey@protobuf@google@@@std@@PEAX@std@@PEAX@2@U?$_Tree_id@PEAU?$_Tree_node@U?$pair@$$CBV?$reference_wrapper@$$CBVMapKey@protobuf@google@@@std@@PEAX@std@@PEAX@std@@@2@QEAU32@@Z 0000000140024a70 f i libprotobuf:map_field.obj
 0001:00023a70       ?_Insert_node@?$_Tree_val@U?$_Tree_simple_types@U?$pair@$$CBV?$vector@HV?$allocator@H@std@@@std@@H@std@@@std@@@std@@QEAAPEAU?$_Tree_node@U?$pair@$$CBV?$vector@HV?$allocator@H@std@@@std@@H@std@@PEAX@2@U?$_Tree_id@PEAU?$_Tree_node@U?$pair@$$CBV?$vector@HV?$allocator@H@std@@@std@@H@std@@PEAX@std@@@2@QEAU32@@Z 0000000140024a70 f i libprotobuf:descriptor.obj
 0001:00023a70       ?_Insert_node@?$_Tree_val@U?$_Tree_simple_types@U?$pair@$$CBV?$vector@HV?$allocator@H@std@@@std@@V12@@std@@@std@@@std@@QEAAPEAU?$_Tree_node@U?$pair@$$CBV?$vector@HV?$allocator@H@std@@@std@@V12@@std@@PEAX@2@U?$_Tree_id@PEAU?$_Tree_node@U?$pair@$$CBV?$vector@HV?$allocator@H@std@@@std@@V12@@std@@PEAX@std@@@2@QEAU32@@Z 0000000140024a70 f i libprotobuf:descriptor.obj
 0001:00023a70       ?_Insert_node@?$_Tree_val@U?$_Tree_simple_types@U?$pair@QEBVFieldDescriptor@protobuf@google@@V?$vector@UParseLocationRange@TextFormat@protobuf@google@@V?$allocator@UParseLocationRange@TextFormat@protobuf@google@@@std@@@std@@@std@@@std@@@std@@QEAAPEAU?$_Tree_node@U?$pair@QEBVFieldDescriptor@protobuf@google@@V?$vector@UParseLocationRange@TextFormat@protobuf@google@@V?$allocator@UParseLocationRange@TextFormat@protobuf@google@@@std@@@std@@@std@@PEAX@2@U?$_Tree_id@PEAU?$_Tree_node@U?$pair@QEBVFieldDescriptor@protobuf@google@@V?$vector@UParseLocationRange@TextFormat@protobuf@google@@V?$allocator@UParseLocationRange@TextFormat@protobuf@google@@@std@@@std@@@std@@PEAX@std@@@2@QEAU32@@Z 0000000140024a70 f i libprotobuf:text_format.obj
 0001:00023a70       ?_Insert_node@?$_Tree_val@U?$_Tree_simple_types@U?$pair@QEBVFieldDescriptor@protobuf@google@@V?$vector@V?$unique_ptr@VParseInfoTree@TextFormat@protobuf@google@@U?$default_delete@VParseInfoTree@TextFormat@protobuf@google@@@std@@@std@@V?$allocator@V?$unique_ptr@VParseInfoTree@TextFormat@protobuf@google@@U?$default_delete@VParseInfoTree@TextFormat@protobuf@google@@@std@@@std@@@2@@std@@@std@@@std@@@std@@QEAAPEAU?$_Tree_node@U?$pair@QEBVFieldDescriptor@protobuf@google@@V?$vector@V?$unique_ptr@VParseInfoTree@TextFormat@protobuf@google@@U?$default_delete@VParseInfoTree@TextFormat@protobuf@google@@@std@@@std@@V?$allocator@V?$unique_ptr@VParseInfoTree@TextFormat@protobuf@google@@U?$default_delete@VParseInfoTree@TextFormat@protobuf@google@@@std@@@std@@@2@@std@@@std@@PEAX@2@U?$_Tree_id@PEAU?$_Tree_node@U?$pair@QEBVFieldDescriptor@protobuf@google@@V?$vector@V?$unique_ptr@VParseInfoTree@TextFormat@protobuf@google@@U?$default_delete@VParseInfoTree@TextFormat@protobuf@google@@@std@@@std@@V?$allocator@V?$unique_ptr@VParseInfoTree@TextFormat@protobuf@google@@U?$default_delete@VParseInfoTree@TextFormat@protobuf@google@@@std@@@std@@@2@@std@@@std@@PEAX@std@@@2@QEAU32@@Z 0000000140024a70 f i libprotobuf:text_format.obj
 0001:00023a70       ?_Insert_node@?$_Tree_val@U?$_Tree_simple_types@UExtensionEntry@DescriptorIndex@EncodedDescriptorDatabase@protobuf@google@@@std@@@std@@QEAAPEAU?$_Tree_node@UExtensionEntry@DescriptorIndex@EncodedDescriptorDatabase@protobuf@google@@PEAX@2@U?$_Tree_id@PEAU?$_Tree_node@UExtensionEntry@DescriptorIndex@EncodedDescriptorDatabase@protobuf@google@@PEAX@std@@@2@QEAU32@@Z 0000000140024a70 f i libprotobuf:descriptor_database.obj
 0001:00023a70       ?_Insert_node@?$_Tree_val@U?$_Tree_simple_types@UFileEntry@DescriptorIndex@EncodedDescriptorDatabase@protobuf@google@@@std@@@std@@QEAAPEAU?$_Tree_node@UFileEntry@DescriptorIndex@EncodedDescriptorDatabase@protobuf@google@@PEAX@2@U?$_Tree_id@PEAU?$_Tree_node@UFileEntry@DescriptorIndex@EncodedDescriptorDatabase@protobuf@google@@PEAX@std@@@2@QEAU32@@Z 0000000140024a70 f i libprotobuf:descriptor_database.obj
 0001:00023a70       ?_Insert_node@?$_Tree_val@U?$_Tree_simple_types@USymbolEntry@DescriptorIndex@EncodedDescriptorDatabase@protobuf@google@@@std@@@std@@QEAAPEAU?$_Tree_node@USymbolEntry@DescriptorIndex@EncodedDescriptorDatabase@protobuf@google@@PEAX@2@U?$_Tree_id@PEAU?$_Tree_node@USymbolEntry@DescriptorIndex@EncodedDescriptorDatabase@protobuf@google@@PEAX@std@@@2@QEAU32@@Z 0000000140024a70 f i libprotobuf:descriptor_database.obj
 0001:00023a70       ?_Insert_node@?$_Tree_val@U?$_Tree_simple_types@V?$basic_string@DU?$char_traits@D@std@@V?$allocator@D@2@@std@@@std@@@std@@QEAAPEAU?$_Tree_node@V?$basic_string@DU?$char_traits@D@std@@V?$allocator@D@2@@std@@PEAX@2@U?$_Tree_id@PEAU?$_Tree_node@V?$basic_string@DU?$char_traits@D@std@@V?$allocator@D@2@@std@@PEAX@std@@@2@QEAU32@@Z 0000000140024a70 f i libprotobuf:descriptor.obj
 0001:00023cf0       ?_Reallocate_exactly@?$vector@PEBVFieldDescriptor@protobuf@google@@V?$allocator@PEBVFieldDescriptor@protobuf@google@@@std@@@std@@AEAAX_K@Z 0000000140024cf0 f i libprotobuf:generated_message_reflection.obj
 0001:00023cf0       ?_Reallocate_exactly@?$vector@PEBVMessage@protobuf@google@@V?$allocator@PEBVMessage@protobuf@google@@@std@@@std@@AEAAX_K@Z 0000000140024cf0 f i libprotobuf:wire_format.obj
 0001:00023d60       ?_Xlength@?$vector@PEBVFieldDescriptor@protobuf@google@@V?$allocator@PEBVFieldDescriptor@protobuf@google@@@std@@@std@@CAXXZ 0000000140024d60 f i libprotobuf:generated_message_reflection.obj
 0001:00023d60       ?_Xlength@?$vector@PEBVFileDescriptor@protobuf@google@@V?$allocator@PEBVFileDescriptor@protobuf@google@@@std@@@std@@CAXXZ 0000000140024d60 f i libprotobuf:descriptor.obj
 0001:00023d60       ?_Xlength@?$vector@PEBVMessage@protobuf@google@@V?$allocator@PEBVMessage@protobuf@google@@@std@@@std@@CAXXZ 0000000140024d60 f i libprotobuf:wire_format.obj
 0001:00023d60       ?_Xlength@?$vector@U?$pair@P6AXPEBX@ZPEBX@std@@V?$allocator@U?$pair@P6AXPEBX@ZPEBX@std@@@2@@std@@CAXXZ 0000000140024d60 f i libprotobuf:message_lite.obj
 0001:00023d60       ?_Xlength@?$vector@U?$pair@PEBUMetadata@protobuf@google@@PEBU123@@std@@V?$allocator@U?$pair@PEBUMetadata@protobuf@google@@PEBU123@@std@@@2@@std@@CAXXZ 0000000140024d60 f i libprotobuf:generated_message_reflection.obj
 0001:00023d60       ?_Xlength@?$vector@U?$pair@PEBVDescriptor@protobuf@google@@H@std@@V?$allocator@U?$pair@PEBVDescriptor@protobuf@google@@H@std@@@2@@std@@CAXXZ 0000000140024d60 f i libprotobuf:descriptor.obj
 0001:00023d60       ?_Xlength@?$vector@UCheckPoint@Tables@DescriptorPool@protobuf@google@@V?$allocator@UCheckPoint@Tables@DescriptorPool@protobuf@google@@@std@@@std@@CAXXZ 0000000140024d60 f i libprotobuf:descriptor.obj
 0001:00023d60       ?_Xlength@?$vector@UEncodedEntry@DescriptorIndex@EncodedDescriptorDatabase@protobuf@google@@V?$allocator@UEncodedEntry@DescriptorIndex@EncodedDescriptorDatabase@protobuf@google@@@std@@@std@@CAXXZ 0000000140024d60 f i libprotobuf:descriptor_database.obj
 0001:00023d60       ?_Xlength@?$vector@UExtensionEntry@DescriptorIndex@EncodedDescriptorDatabase@protobuf@google@@V?$allocator@UExtensionEntry@DescriptorIndex@EncodedDescriptorDatabase@protobuf@google@@@std@@@std@@CAXXZ 0000000140024d60 f i libprotobuf:descriptor_database.obj
 0001:00023d60       ?_Xlength@?$vector@UFileEntry@DescriptorIndex@EncodedDescriptorDatabase@protobuf@google@@V?$allocator@UFileEntry@DescriptorIndex@EncodedDescriptorDatabase@protobuf@google@@@std@@@std@@CAXXZ 0000000140024d60 f i libprotobuf:descriptor_database.obj
 0001:00023d60       ?_Xlength@?$vector@UParseLocationRange@TextFormat@protobuf@google@@V?$allocator@UParseLocationRange@TextFormat@protobuf@google@@@std@@@std@@CAXXZ 0000000140024d60 f i libprotobuf:text_format.obj
 0001:00023d60       ?_Xlength@?$vector@USymbolEntry@DescriptorIndex@EncodedDescriptorDatabase@protobuf@google@@V?$allocator@USymbolEntry@DescriptorIndex@EncodedDescriptorDatabase@protobuf@google@@@std@@@std@@CAXXZ 0000000140024d60 f i libprotobuf:descriptor_database.obj
 0001:00023d60       ?_Xlength@?$vector@V?$basic_string@DU?$char_traits@D@std@@V?$allocator@D@2@@std@@V?$allocator@V?$basic_string@DU?$char_traits@D@std@@V?$allocator@D@2@@std@@@2@@std@@CAXXZ 0000000140024d60 f i libprotobuf:descriptor.obj
 0001:00023d60       ?_Xlength@?$vector@V?$unique_ptr@HUMiscDeleter@Tables@DescriptorPool@protobuf@google@@@std@@V?$allocator@V?$unique_ptr@HUMiscDeleter@Tables@DescriptorPool@protobuf@google@@@std@@@2@@std@@CAXXZ 0000000140024d60 f i libprotobuf:descriptor.obj
 0001:00023d60       ?_Xlength@?$vector@V?$unique_ptr@VParseInfoTree@TextFormat@protobuf@google@@U?$default_delete@VParseInfoTree@TextFormat@protobuf@google@@@std@@@std@@V?$allocator@V?$unique_ptr@VParseInfoTree@TextFormat@protobuf@google@@U?$default_delete@VParseInfoTree@TextFormat@protobuf@google@@@std@@@std@@@2@@std@@CAXXZ 0000000140024d60 f i libprotobuf:text_format.obj
 0001:00023d60       ?_Xlength@?$vector@VMapKey@protobuf@google@@V?$allocator@VMapKey@protobuf@google@@@std@@@std@@CAXXZ 0000000140024d60 f i libprotobuf:wire_format.obj
 0001:00023d60       ?_Xlength@?$vector@VSymbol@protobuf@google@@V?$allocator@VSymbol@protobuf@google@@@std@@@std@@CAXXZ 0000000140024d60 f i libprotobuf:descriptor.obj
 0001:00023d60       ?_Xlength@?$vector@VUnknownField@protobuf@google@@V?$allocator@VUnknownField@protobuf@google@@@std@@@std@@CAXXZ 0000000140024d60 f i libprotobuf:unknown_field_set.obj
 0001:00023d80       ?allocate@?$allocator@PEBVFieldDescriptor@protobuf@google@@@std@@QEAAPEAPEBVFieldDescriptor@protobuf@google@@_K@Z 0000000140024d80 f i libprotobuf:generated_message_reflection.obj
 0001:00023d80       ?allocate@?$allocator@PEBVFileDescriptor@protobuf@google@@@std@@QEAAPEAPEBVFileDescriptor@protobuf@google@@_K@Z 0000000140024d80 f i libprotobuf:descriptor.obj
 0001:00023d80       ?allocate@?$allocator@PEBVMessage@protobuf@google@@@std@@QEAAPEAPEBVMessage@protobuf@google@@_K@Z 0000000140024d80 f i libprotobuf:wire_format.obj
 0001:00023d80       ?allocate@?$allocator@V?$unique_ptr@HUMiscDeleter@Tables@DescriptorPool@protobuf@google@@@std@@@std@@QEAAPEAV?$unique_ptr@HUMiscDeleter@Tables@DescriptorPool@protobuf@google@@@2@_K@Z 0000000140024d80 f i libprotobuf:descriptor.obj
 0001:00023d80       ?allocate@?$allocator@VSymbol@protobuf@google@@@std@@QEAAPEAVSymbol@protobuf@google@@_K@Z 0000000140024d80 f i libprotobuf:descriptor.obj
 0001:00023df0       ?deallocate@?$allocator@PEBVFieldDescriptor@protobuf@google@@@std@@QEAAXQEAPEBVFieldDescriptor@protobuf@google@@_K@Z 0000000140024df0 f i libprotobuf:generated_message_reflection.obj
 0001:00023df0       ?deallocate@?$allocator@PEBVFileDescriptor@protobuf@google@@@std@@QEAAXQEAPEBVFileDescriptor@protobuf@google@@_K@Z 0000000140024df0 f i libprotobuf:descriptor.obj
 0001:00023df0       ?deallocate@?$allocator@PEBVMessage@protobuf@google@@@std@@QEAAXQEAPEBVMessage@protobuf@google@@_K@Z 0000000140024df0 f i libprotobuf:wire_format.obj
 0001:00023df0       ?deallocate@?$allocator@V?$unique_ptr@HUMiscDeleter@Tables@DescriptorPool@protobuf@google@@@std@@@std@@QEAAXQEAV?$unique_ptr@HUMiscDeleter@Tables@DescriptorPool@protobuf@google@@@2@_K@Z 0000000140024df0 f i libprotobuf:descriptor.obj
 0001:00023df0       ?deallocate@?$allocator@V?$unique_ptr@VParseInfoTree@TextFormat@protobuf@google@@U?$default_delete@VParseInfoTree@TextFormat@protobuf@google@@@std@@@std@@@std@@QEAAXQEAV?$unique_ptr@VParseInfoTree@TextFormat@protobuf@google@@U?$default_delete@VParseInfoTree@TextFormat@protobuf@google@@@std@@@2@_K@Z 0000000140024df0 f i libprotobuf:text_format.obj
 0001:00023df0       ?deallocate@?$allocator@VSymbol@protobuf@google@@@std@@QEAAXQEAVSymbol@protobuf@google@@_K@Z 0000000140024df0 f i libprotobuf:descriptor.obj
 0001:00023e40       ?deallocate@?$allocator@U?$pair@P6AXPEBX@ZPEBX@std@@@std@@QEAAXQEAU?$pair@P6AXPEBX@ZPEBX@2@_K@Z 0000000140024e40 f i libprotobuf:message_lite.obj
 0001:00023e40       ?deallocate@?$allocator@U?$pair@PEBUMetadata@protobuf@google@@PEBU123@@std@@@std@@QEAAXQEAU?$pair@PEBUMetadata@protobuf@google@@PEBU123@@2@_K@Z 0000000140024e40 f i libprotobuf:generated_message_reflection.obj
 0001:00023e40       ?deallocate@?$allocator@U?$pair@PEBVDescriptor@protobuf@google@@H@std@@@std@@QEAAXQEAU?$pair@PEBVDescriptor@protobuf@google@@H@2@_K@Z 0000000140024e40 f i libprotobuf:descriptor.obj
 0001:00023e40       ?deallocate@?$allocator@UParseLocationRange@TextFormat@protobuf@google@@@std@@QEAAXQEAUParseLocationRange@TextFormat@protobuf@google@@_K@Z 0000000140024e40 f i libprotobuf:text_format.obj
 0001:00023e90       ?extension_scope@FieldDescriptor@protobuf@google@@QEBAPEBVDescriptor@23@XZ 0000000140024e90 f i libprotobuf:generated_message_reflection.obj
 0001:00023f30       ?index@FieldDescriptor@protobuf@google@@QEBAHXZ 0000000140024f30 f i libprotobuf:generated_message_reflection.obj
 0001:00023f90       ?type@FieldDescriptor@protobuf@google@@QEBA?AW4Type@123@XZ 0000000140024f90 f i libprotobuf:generated_message_reflection.obj
 0001:00024010       ?type@MapValueConstRef@protobuf@google@@IEBA?AW4CppType@FieldDescriptor@23@XZ 0000000140025010 f i libprotobuf:generated_message_reflection.obj
 0001:000240a0       ??$_Reallocate_grow_by@V<lambda_65e615be2a453ca0576c979606f46740>@@PEBD_K@?$basic_string@DU?$char_traits@D@std@@V?$allocator@D@2@@std@@AEAAAEAV01@_KV<lambda_65e615be2a453ca0576c979606f46740>@@PEBD_K@Z 00000001400250a0 f i libprotobuf:message_lite.obj
 0001:00024230       ??$_Reallocate_grow_by@V<lambda_9013ee9e23efe4882b67eff5b0ecf103>@@$$V@?$basic_string@DU?$char_traits@D@std@@V?$allocator@D@2@@std@@AEAAAEAV01@_KV<lambda_9013ee9e23efe4882b67eff5b0ecf103>@@@Z 0000000140025230 f i libprotobuf:message_lite.obj
 0001:00024380       ??$_Reallocate_grow_by@V<lambda_e1befb086ad3257e3f042a63030725f7>@@_KD@?$basic_string@DU?$char_traits@D@std@@V?$allocator@D@2@@std@@AEAAAEAV01@_KV<lambda_e1befb086ad3257e3f042a63030725f7>@@_KD@Z 0000000140025380 f i libprotobuf:message_lite.obj
 0001:00024510       ??1MutexLock@internal@protobuf@google@@QEAA@XZ 0000000140025510 f i libprotobuf:message_lite.obj
 0001:00024580       ??1ArrayInputStream@io@protobuf@google@@UEAA@XZ 0000000140025580 f i libprotobuf:unknown_field_set.obj
 0001:00024580       ??1ZeroCopyCodedInputStream@protobuf@google@@UEAA@XZ 0000000140025580 f i libprotobuf:message_lite.obj
 0001:00024590       ??_EZeroCopyCodedInputStream@protobuf@google@@UEAAPEAXI@Z 0000000140025590 f i libprotobuf:message_lite.obj
 0001:00024590       ??_GZeroCopyCodedInputStream@protobuf@google@@UEAAPEAXI@Z 0000000140025590 f i libprotobuf:message_lite.obj
 0001:000245c0       ??_EZeroCopyInputStream@io@protobuf@google@@UEAAPEAXI@Z 00000001400255c0 f i libprotobuf:message_lite.obj
 0001:000245c0       ??_GZeroCopyInputStream@io@protobuf@google@@UEAAPEAXI@Z 00000001400255c0 f i libprotobuf:message_lite.obj
 0001:000245f0       ??_EZeroCopyOutputStream@io@protobuf@google@@UEAAPEAXI@Z 00000001400255f0 f i libprotobuf:message_lite.obj
 0001:000245f0       ??_GZeroCopyOutputStream@io@protobuf@google@@UEAAPEAXI@Z 00000001400255f0 f i libprotobuf:message_lite.obj
 0001:00024620       ?AllowsAliasing@ZeroCopyOutputStream@io@protobuf@google@@UEBA_NXZ 0000000140025620 f i libprotobuf:message_lite.obj
 0001:00024620       ?FindAllExtensionNumbers@DescriptorDatabase@protobuf@google@@UEAA_NAEBV?$basic_string@DU?$char_traits@D@std@@V?$allocator@D@2@@std@@PEAV?$vector@HV?$allocator@H@std@@@5@@Z 0000000140025620 f i libprotobuf:descriptor_database.obj
 0001:00024620       ?FindAllFileNames@DescriptorDatabase@protobuf@google@@UEAA_NPEAV?$vector@V?$basic_string@DU?$char_traits@D@std@@V?$allocator@D@2@@std@@V?$allocator@V?$basic_string@DU?$char_traits@D@std@@V?$allocator@D@2@@std@@@2@@std@@@Z 0000000140025620 f i libprotobuf:descriptor_database.obj
 0001:00024620       ?PrintMessageContent@FastFieldValuePrinter@TextFormat@protobuf@google@@UEBA_NAEBVMessage@34@HH_NPEAVBaseTextGenerator@234@@Z 0000000140025620 f i libprotobuf:text_format.obj
 0001:00024630       ?AppendPartialToString@MessageLite@protobuf@google@@QEBA_NPEAV?$basic_string@DU?$char_traits@D@std@@V?$allocator@D@2@@std@@@Z 0000000140025630 f   libprotobuf:message_lite.obj
 0001:00024890       ?AppendToString@MessageLite@protobuf@google@@QEBA_NPEAV?$basic_string@DU?$char_traits@D@std@@V?$allocator@D@2@@std@@@Z 0000000140025890 f   libprotobuf:message_lite.obj
 0001:000248a0       ?BackUp@ZeroCopyCodedInputStream@protobuf@google@@UEAAXH@Z 00000001400258a0 f i libprotobuf:message_lite.obj
 0001:000248b0       ?BeginIterator@RandomAccessRepeatedFieldAccessor@internal@protobuf@google@@UEBAPEAXPEBX@Z 00000001400258b0 f i libprotobuf:message.obj
 0001:000248b0       ?ByteCount@ZeroCopyCodedInputStream@protobuf@google@@UEBA_JXZ 00000001400258b0 f i libprotobuf:message_lite.obj
 0001:000248b0       ?FindExtensionFactory@Finder@TextFormat@protobuf@google@@UEBAPEAVMessageFactory@34@PEBVFieldDescriptor@34@@Z 00000001400258b0 f i libprotobuf:text_format.obj
 0001:000248b0       ?GetCurrentIndentationSize@BaseTextGenerator@TextFormat@protobuf@google@@UEBA_KXZ 00000001400258b0 f i libprotobuf:text_format.obj
 0001:00024be0       ?InitializationErrorString@MessageLite@protobuf@google@@UEBA?AV?$basic_string@DU?$char_traits@D@std@@V?$allocator@D@2@@std@@XZ 0000000140025be0 f   libprotobuf:message_lite.obj
 0001:00024c20       ?MergeFromImpl@MessageLite@protobuf@google@@AEAA_NPEAVCodedInputStream@io@23@W4ParseFlags@123@@Z 0000000140025c20 f   libprotobuf:message_lite.obj
 0001:00024d70       ?Next@ZeroCopyCodedInputStream@protobuf@google@@UEAA_NPEAPEBXPEAH@Z 0000000140025d70 f i libprotobuf:message_lite.obj
 0001:00024de0       ?OnShutdownRun@internal@protobuf@google@@YAXP6AXPEBX@Z0@Z 0000000140025de0 f   libprotobuf:message_lite.obj
 0001:00024f10       ?ParseFromArray@MessageLite@protobuf@google@@QEAA_NPEBXH@Z 0000000140025f10 f   libprotobuf:message_lite.obj
 0001:00025040       ?ParseFromCodedStream@MessageLite@protobuf@google@@QEAA_NPEAVCodedInputStream@io@23@@Z 0000000140026040 f   libprotobuf:message_lite.obj
 0001:00025080       ?ParseFromString@MessageLite@protobuf@google@@QEAA_NAEBV?$basic_string@DU?$char_traits@D@std@@V?$allocator@D@2@@std@@@Z 0000000140026080 f   libprotobuf:message_lite.obj
 0001:000251c0       ?SerializeAsString@MessageLite@protobuf@google@@QEBA?AV?$basic_string@DU?$char_traits@D@std@@V?$allocator@D@2@@std@@XZ 00000001400261c0 f   libprotobuf:message_lite.obj
 0001:00025220       ?SerializeToArrayImpl@protobuf@google@@YAPEAEAEBVMessageLite@12@PEAEH@Z 0000000140026220 f i libprotobuf:message_lite.obj
 0001:00025280       ?SerializeToString@MessageLite@protobuf@google@@QEBA_NPEAV?$basic_string@DU?$char_traits@D@std@@V?$allocator@D@2@@std@@@Z 0000000140026280 f   libprotobuf:message_lite.obj
 0001:000252b0       ?ShutdownProtobufLibrary@protobuf@google@@YAXXZ 00000001400262b0 f   libprotobuf:message_lite.obj
 0001:000253d0       ?Skip@ZeroCopyCodedInputStream@protobuf@google@@UEAA_NH@Z 00000001400263d0 f i libprotobuf:message_lite.obj
 0001:00025400       ?get@ShutdownData@internal@protobuf@google@@SAPEAU1234@XZ 0000000140026400 f i libprotobuf:message_lite.obj
 0001:000254b0       ??1ZeroFieldsBase@internal@protobuf@google@@MEAA@XZ 00000001400264b0 f   libprotobuf:generated_message_bases.obj
 0001:00025510       ?ByteSizeLong@ZeroFieldsBase@internal@protobuf@google@@UEBA_KXZ 0000000140026510 f   libprotobuf:generated_message_bases.obj
 0001:00025520       ?Clear@ZeroFieldsBase@internal@protobuf@google@@UEAAXXZ 0000000140026520 f   libprotobuf:generated_message_bases.obj
 0001:00025530       ?CopyImpl@ZeroFieldsBase@internal@protobuf@google@@KAXAEAVMessage@34@AEBV534@@Z 0000000140026530 f   libprotobuf:generated_message_bases.obj
 0001:00025580       ?MergeImpl@ZeroFieldsBase@internal@protobuf@google@@KAXAEAVMessage@34@AEBV534@@Z 0000000140026580 f   libprotobuf:generated_message_bases.obj
 0001:000255a0       ?_InternalParse@ZeroFieldsBase@internal@protobuf@google@@UEAAPEBDPEBDPEAVParseContext@234@@Z 00000001400265a0 f   libprotobuf:generated_message_bases.obj
 0001:000256e0       ?_InternalSerialize@ZeroFieldsBase@internal@protobuf@google@@UEBAPEAEPEAEPEAVEpsCopyOutputStream@io@34@@Z 00000001400266e0 f   libprotobuf:generated_message_bases.obj
 0001:00025700       ??1CodedInputStream@io@protobuf@google@@QEAA@XZ 0000000140026700 f   libprotobuf:coded_stream.obj
 0001:00025750       ?EnsureSpaceFallback@EpsCopyOutputStream@io@protobuf@google@@AEAAPEAEPEAE@Z 0000000140026750 f   libprotobuf:coded_stream.obj
 0001:00025860       ?Flush@EpsCopyOutputStream@io@protobuf@google@@AEAAHPEAE@Z 0000000140026860 f   libprotobuf:coded_stream.obj
 0001:000259c0       ?GetDirectBufferPointer@CodedInputStream@io@protobuf@google@@QEAA_NPEAPEBXPEAH@Z 00000001400269c0 f   libprotobuf:coded_stream.obj
 0001:00025a20       ?ReadLittleEndian32Fallback@CodedInputStream@io@protobuf@google@@AEAA_NPEAI@Z 0000000140026a20 f   libprotobuf:coded_stream.obj
 0001:00025a80       ?ReadLittleEndian64Fallback@CodedInputStream@io@protobuf@google@@AEAA_NPEA_K@Z 0000000140026a80 f   libprotobuf:coded_stream.obj
 0001:00025b00       ?ReadRaw@CodedInputStream@io@protobuf@google@@QEAA_NPEAXH@Z 0000000140026b00 f   libprotobuf:coded_stream.obj
 0001:00025d70       ?ReadString@CodedInputStream@io@protobuf@google@@QEAA_NPEAV?$basic_string@DU?$char_traits@D@std@@V?$allocator@D@2@@std@@H@Z 0000000140026d70 f   libprotobuf:coded_stream.obj
 0001:00025e60       ?ReadStringFallback@CodedInputStream@io@protobuf@google@@AEAA_NPEAV?$basic_string@DU?$char_traits@D@std@@V?$allocator@D@2@@std@@H@Z 0000000140026e60 f   libprotobuf:coded_stream.obj
 0001:00026030       ?ReadTagFallback@CodedInputStream@io@protobuf@google@@AEAAII@Z 0000000140027030 f   libprotobuf:coded_stream.obj
 0001:000261b0       ?ReadVarint32Fallback@CodedInputStream@io@protobuf@google@@AEAA_JI@Z 00000001400271b0 f   libprotobuf:coded_stream.obj
 0001:00026290       ?ReadVarint64Fallback@CodedInputStream@io@protobuf@google@@AEAA?AU?$pair@_K_N@std@@XZ 0000000140027290 f   libprotobuf:coded_stream.obj
 0001:00026510       ?ReadVarint64Slow@CodedInputStream@io@protobuf@google@@AEAA_NPEA_K@Z 0000000140027510 f   libprotobuf:coded_stream.obj
 0001:00026790       ?RecomputeBufferLimits@CodedInputStream@io@protobuf@google@@AEAAXXZ 0000000140027790 f i libprotobuf:coded_stream.obj
 0001:000267d0       ?Refresh@CodedInputStream@io@protobuf@google@@AEAA_NXZ 00000001400277d0 f   libprotobuf:coded_stream.obj
 0001:000269a0       ?SkipFallback@CodedInputStream@io@protobuf@google@@AEAA_NHH@Z 00000001400279a0 f   libprotobuf:coded_stream.obj
 0001:00026a40       ?WriteRawFallback@EpsCopyOutputStream@io@protobuf@google@@AEAAPEAEPEBXHPEAE@Z 0000000140027a40 f   libprotobuf:coded_stream.obj
 0001:00026bc0       ?WriteStringMaybeAliasedOutline@EpsCopyOutputStream@io@protobuf@google@@AEAAPEAEIAEBV?$basic_string@DU?$char_traits@D@std@@V?$allocator@D@2@@std@@PEAE@Z 0000000140027bc0 f   libprotobuf:coded_stream.obj
 0001:00026d60       ?WriteStringOutline@EpsCopyOutputStream@io@protobuf@google@@AEAAPEAEIAEBV?$basic_string@DU?$char_traits@D@std@@V?$allocator@D@2@@std@@PEAE@Z 0000000140027d60 f   libprotobuf:coded_stream.obj
 0001:00026e50       ?DefaultLogHandler@internal@protobuf@google@@YAXW4LogLevel@23@PEBDHAEBV?$basic_string@DU?$char_traits@D@std@@V?$allocator@D@2@@std@@@Z 0000000140027e50 f   libprotobuf:common.obj
 0001:00026ef0       ??0FatalException@protobuf@google@@QEAA@AEBV012@@Z 0000000140027ef0 f i libprotobuf:common.obj
 0001:00026f60       ??0FatalException@protobuf@google@@QEAA@PEBDHAEBV?$basic_string@DU?$char_traits@D@std@@V?$allocator@D@2@@std@@@Z 0000000140027f60 f i libprotobuf:common.obj
 0001:00026fa0       ??0LogMessage@internal@protobuf@google@@QEAA@W4LogLevel@23@PEBDH@Z 0000000140027fa0 f   libprotobuf:common.obj
 0001:00026fd0       ??1FatalException@protobuf@google@@UEAA@XZ 0000000140027fd0 f   libprotobuf:common.obj
 0001:00027050       ??1LogMessage@internal@protobuf@google@@QEAA@XZ 0000000140028050 f   libprotobuf:common.obj
 0001:000270c0       ??4LogFinisher@internal@protobuf@google@@QEAAXAEAVLogMessage@123@@Z 00000001400280c0 f   libprotobuf:common.obj
 0001:00027160       ??6LogMessage@internal@protobuf@google@@QEAAAEAV0123@AEBV?$basic_string@DU?$char_traits@D@std@@V?$allocator@D@2@@std@@@Z 0000000140028160 f   libprotobuf:common.obj
 0001:00027190       ??6LogMessage@internal@protobuf@google@@QEAAAEAV0123@AEBVStringPiece@stringpiece_internal@23@@Z 0000000140028190 f   libprotobuf:common.obj
 0001:00027260       ??6LogMessage@internal@protobuf@google@@QEAAAEAV0123@H@Z 0000000140028260 f   libprotobuf:common.obj
 0001:000272d0       ??6LogMessage@internal@protobuf@google@@QEAAAEAV0123@PEBD@Z 00000001400282d0 f   libprotobuf:common.obj
 0001:00027300       ??6LogMessage@internal@protobuf@google@@QEAAAEAV0123@_K@Z 0000000140028300 f   libprotobuf:common.obj
 0001:00027370       ??_EFatalException@protobuf@google@@UEAAPEAXI@Z 0000000140028370 f i libprotobuf:common.obj
 0001:00027370       ??_GFatalException@protobuf@google@@UEAAPEAXI@Z 0000000140028370 f i libprotobuf:common.obj
 0001:00027410       ?ghtonl@protobuf@google@@YAII@Z 0000000140028410 f   libprotobuf:common.obj
 0001:00027440       ?what@FatalException@protobuf@google@@UEBAPEBDXZ 0000000140028440 f   libprotobuf:common.obj
 0001:00027450       _snprintf                  0000000140028450 f i libprotobuf:common.obj
 0001:000274b0       fprintf                    00000001400284b0 f i libprotobuf:common.obj
 0001:00027500       ?<lambda_invoker_cdecl>@<lambda_0b0f202340eb07540d131ae539056cbc>@@CA@PEBX@Z 0000000140028500 f i libprotobuf:unknown_field_set.obj
 0001:00027530       ??$FieldParser@VUnknownFieldParserHelper@internal@protobuf@google@@@internal@protobuf@google@@YAPEBD_KAEAVUnknownFieldParserHelper@012@PEBDPEAVParseContext@012@@Z 0000000140028530 f i libprotobuf:unknown_field_set.obj
 0001:000278a0       ??$WireFormatParser@VUnknownFieldParserHelper@internal@protobuf@google@@@internal@protobuf@google@@YAPEBDAEAVUnknownFieldParserHelper@012@PEBDPEAVParseContext@012@@Z 00000001400288a0 f i libprotobuf:unknown_field_set.obj
 0001:000279a0       ??$_Emplace_reallocate@AEBVUnknownField@protobuf@google@@@?$vector@VUnknownField@protobuf@google@@V?$allocator@VUnknownField@protobuf@google@@@std@@@std@@QEAAPEAVUnknownField@protobuf@google@@QEAV234@AEBV234@@Z 00000001400289a0 f i libprotobuf:unknown_field_set.obj
 0001:00027aa0       ??$_Insert_range@V?$move_iterator@PEAVUnknownField@protobuf@google@@@std@@@?$vector@VUnknownField@protobuf@google@@V?$allocator@VUnknownField@protobuf@google@@@std@@@std@@AEAAXV?$_Vector_const_iterator@V?$_Vector_val@U?$_Simple_types@VUnknownField@protobuf@google@@@std@@@std@@@1@V?$move_iterator@PEAVUnknownField@protobuf@google@@@1@1Uforward_iterator_tag@1@@Z 0000000140028aa0 f i libprotobuf:unknown_field_set.obj
 0001:00027cf0       ??$_Move_unchecked@PEAVUnknownField@protobuf@google@@PEAV123@@std@@YAPEAVUnknownField@protobuf@google@@PEAV123@00@Z 0000000140028cf0 f i libprotobuf:unknown_field_set.obj
 0001:00027d20       ??_G?$basic_string@DU?$char_traits@D@std@@V?$allocator@D@2@@std@@QEAAPEAXI@Z 0000000140028d20 f i libprotobuf:unknown_field_set.obj
 0001:00027da0       ?AddFixed32@UnknownFieldSet@protobuf@google@@QEAAXHI@Z 0000000140028da0 f   libprotobuf:unknown_field_set.obj
 0001:00027de0       ?AddFixed64@UnknownFieldSet@protobuf@google@@QEAAXH_K@Z 0000000140028de0 f   libprotobuf:unknown_field_set.obj
 0001:00027e30       ?AddGroup@UnknownFieldSet@protobuf@google@@QEAAPEAV123@H@Z 0000000140028e30 f   libprotobuf:unknown_field_set.obj
 0001:00027ed0       ?AddLengthDelimited@UnknownFieldSet@protobuf@google@@QEAAPEAV?$basic_string@DU?$char_traits@D@std@@V?$allocator@D@2@@std@@H@Z 0000000140028ed0 f   libprotobuf:unknown_field_set.obj
 0001:00027f60       ?AddVarint@UnknownFieldSet@protobuf@google@@QEAAXH_K@Z 0000000140028f60 f   libprotobuf:unknown_field_set.obj
 0001:00027fb0       ?ClearFallback@UnknownFieldSet@protobuf@google@@AEAAXXZ 0000000140028fb0 f   libprotobuf:unknown_field_set.obj
 0001:000280a0       ?DeepCopy@UnknownField@protobuf@google@@QEAAXAEBV123@@Z 00000001400290a0 f   libprotobuf:unknown_field_set.obj
 0001:00028200       ?InternalSerializeLengthDelimitedNoTag@UnknownField@protobuf@google@@QEBAPEAEPEAEPEAVEpsCopyOutputStream@io@23@@Z 0000000140029200 f   libprotobuf:unknown_field_set.obj
 0001:000282a0       ?MergeFrom@UnknownFieldSet@protobuf@google@@QEAAXAEBV123@@Z 00000001400292a0 f   libprotobuf:unknown_field_set.obj
 0001:00028390       ?ParseFromArray@UnknownFieldSet@protobuf@google@@QEAA_NPEBXH@Z 0000000140029390 f   libprotobuf:unknown_field_set.obj
 0001:000283c0       ?ParseFromCodedStream@UnknownFieldSet@protobuf@google@@QEAA_NPEAVCodedInputStream@io@23@@Z 00000001400293c0 f   libprotobuf:unknown_field_set.obj
 0001:00028570       ?ParseFromZeroCopyStream@UnknownFieldSet@protobuf@google@@QEAA_NPEAVZeroCopyInputStream@io@23@@Z 0000000140029570 f   libprotobuf:unknown_field_set.obj
 0001:00028760       ?SerializeToString@UnknownFieldSet@protobuf@google@@QEBA_NPEAV?$basic_string@DU?$char_traits@D@std@@V?$allocator@D@2@@std@@@Z 0000000140029760 f   libprotobuf:unknown_field_set.obj
 0001:00028920       ?SpaceUsedExcludingSelfLong@UnknownFieldSet@protobuf@google@@QEBA_KXZ 0000000140029920 f   libprotobuf:unknown_field_set.obj
 0001:000289b0       ?ToIntSize@internal@protobuf@google@@YAH_K@Z 00000001400299b0 f i libprotobuf:unknown_field_set.obj
 0001:000289c0       ?UnknownFieldParse@internal@protobuf@google@@YAPEBD_KPEAVUnknownFieldSet@23@PEBDPEAVParseContext@123@@Z 00000001400299c0 f   libprotobuf:unknown_field_set.obj
 0001:000289e0       ?_Change_array@?$vector@U?$pair@PEBVDescriptor@protobuf@google@@H@std@@V?$allocator@U?$pair@PEBVDescriptor@protobuf@google@@H@std@@@2@@std@@AEAAXQEAU?$pair@PEBVDescriptor@protobuf@google@@H@2@_K1@Z 00000001400299e0 f i libprotobuf:descriptor.obj
 0001:000289e0       ?_Change_array@?$vector@VUnknownField@protobuf@google@@V?$allocator@VUnknownField@protobuf@google@@@std@@@std@@AEAAXQEAVUnknownField@protobuf@google@@_K1@Z 00000001400299e0 f i libprotobuf:unknown_field_set.obj
 0001:00028a70       ?_Reallocate_exactly@?$vector@VUnknownField@protobuf@google@@V?$allocator@VUnknownField@protobuf@google@@@std@@@std@@AEAAX_K@Z 0000000140029a70 f i libprotobuf:unknown_field_set.obj
 0001:00028ae0       ?_Umove@?$vector@VUnknownField@protobuf@google@@V?$allocator@VUnknownField@protobuf@google@@@std@@@std@@AEAAPEAVUnknownField@protobuf@google@@PEAV345@00@Z 0000000140029ae0 f i libprotobuf:unknown_field_set.obj
 0001:00028b20       ?allocate@?$allocator@U?$pair@PEBVDescriptor@protobuf@google@@H@std@@@std@@QEAAPEAU?$pair@PEBVDescriptor@protobuf@google@@H@2@_K@Z 0000000140029b20 f i libprotobuf:descriptor.obj
 0001:00028b20       ?allocate@?$allocator@VUnknownField@protobuf@google@@@std@@QEAAPEAVUnknownField@protobuf@google@@_K@Z 0000000140029b20 f i libprotobuf:unknown_field_set.obj
 0001:00028b90       ?default_instance@UnknownFieldSet@protobuf@google@@SAAEBV123@XZ 0000000140029b90 f   libprotobuf:unknown_field_set.obj
 0001:00028c40       ??$FieldParser@VUnknownFieldLiteParserHelper@internal@protobuf@google@@@internal@protobuf@google@@YAPEBD_KAEAVUnknownFieldLiteParserHelper@012@PEBDPEAVParseContext@012@@Z 0000000140029c40 f i libprotobuf:parse_context.obj
 0001:00028fd0       ??$ReadPackedFixed@H@EpsCopyInputStream@internal@protobuf@google@@QEAAPEBDPEBDHPEAV?$RepeatedField@H@23@@Z 0000000140029fd0 f i libprotobuf:parse_context.obj
 0001:00028fd0       ??$ReadPackedFixed@I@EpsCopyInputStream@internal@protobuf@google@@QEAAPEBDPEBDHPEAV?$RepeatedField@I@23@@Z 0000000140029fd0 f i libprotobuf:parse_context.obj
 0001:00028fd0       ??$ReadPackedFixed@M@EpsCopyInputStream@internal@protobuf@google@@QEAAPEBDPEBDHPEAV?$RepeatedField@M@23@@Z 0000000140029fd0 f i libprotobuf:parse_context.obj
 0001:00029120       ??$ReadPackedFixed@N@EpsCopyInputStream@internal@protobuf@google@@QEAAPEBDPEBDHPEAV?$RepeatedField@N@23@@Z 000000014002a120 f i libprotobuf:parse_context.obj
 0001:00029120       ??$ReadPackedFixed@_J@EpsCopyInputStream@internal@protobuf@google@@QEAAPEBDPEBDHPEAV?$RepeatedField@_J@23@@Z 000000014002a120 f i libprotobuf:parse_context.obj
 0001:00029120       ??$ReadPackedFixed@_K@EpsCopyInputStream@internal@protobuf@google@@QEAAPEBDPEBDHPEAV?$RepeatedField@_K@23@@Z 000000014002a120 f i libprotobuf:parse_context.obj
 0001:00029270       ??$ReadPackedVarint@V<lambda_2445345cb3b134d170e8ee193f099e7d>@@@EpsCopyInputStream@internal@protobuf@google@@QEAAPEBDPEBDV<lambda_2445345cb3b134d170e8ee193f099e7d>@@@Z 000000014002a270 f i libprotobuf:parse_context.obj
 0001:000293e0       ??$ReadPackedVarint@V<lambda_3a41b6b9138eaf6088bfa6fcb8a495b5>@@@EpsCopyInputStream@internal@protobuf@google@@QEAAPEBDPEBDV<lambda_3a41b6b9138eaf6088bfa6fcb8a495b5>@@@Z 000000014002a3e0 f i libprotobuf:parse_context.obj
 0001:000293e0       ??$ReadPackedVarint@V<lambda_d8a5a68100ae2a0b7936eabfebd4ef1d>@@@EpsCopyInputStream@internal@protobuf@google@@QEAAPEBDPEBDV<lambda_d8a5a68100ae2a0b7936eabfebd4ef1d>@@@Z 000000014002a3e0 f i libprotobuf:parse_context.obj
 0001:00029550       ??$ReadPackedVarint@V<lambda_4a870f6fe8f1a3b39ec2f37a4e0055dc>@@@EpsCopyInputStream@internal@protobuf@google@@QEAAPEBDPEBDV<lambda_4a870f6fe8f1a3b39ec2f37a4e0055dc>@@@Z 000000014002a550 f i libprotobuf:parse_context.obj
 0001:000296c0       ??$ReadPackedVarint@V<lambda_69962c3e6e3604826fbe0c504e3195e7>@@@EpsCopyInputStream@internal@protobuf@google@@QEAAPEBDPEBDV<lambda_69962c3e6e3604826fbe0c504e3195e7>@@@Z 000000014002a6c0 f i libprotobuf:parse_context.obj
 0001:000296c0       ??$ReadPackedVarint@V<lambda_f30daaeca8ef5592c2ffbda46b6b85e1>@@@EpsCopyInputStream@internal@protobuf@google@@QEAAPEBDPEBDV<lambda_f30daaeca8ef5592c2ffbda46b6b85e1>@@@Z 000000014002a6c0 f i libprotobuf:parse_context.obj
 0001:00029830       ??$ReadPackedVarint@V<lambda_b8353ada37acf7b400661bb3b16393ca>@@@EpsCopyInputStream@internal@protobuf@google@@QEAAPEBDPEBDV<lambda_b8353ada37acf7b400661bb3b16393ca>@@@Z 000000014002a830 f i libprotobuf:parse_context.obj
 0001:000299a0       ??$ReadPackedVarintArray@V<lambda_2445345cb3b134d170e8ee193f099e7d>@@@internal@protobuf@google@@YAPEBDPEBD0V<lambda_2445345cb3b134d170e8ee193f099e7d>@@@Z 000000014002a9a0 f i libprotobuf:parse_context.obj
 0001:00029a90       ??$ReadPackedVarintArray@V<lambda_3a41b6b9138eaf6088bfa6fcb8a495b5>@@@internal@protobuf@google@@YAPEBDPEBD0V<lambda_3a41b6b9138eaf6088bfa6fcb8a495b5>@@@Z 000000014002aa90 f i libprotobuf:parse_context.obj
 0001:00029a90       ??$ReadPackedVarintArray@V<lambda_d8a5a68100ae2a0b7936eabfebd4ef1d>@@@internal@protobuf@google@@YAPEBDPEBD0V<lambda_d8a5a68100ae2a0b7936eabfebd4ef1d>@@@Z 000000014002aa90 f i libprotobuf:parse_context.obj
 0001:00029b70       ??$ReadPackedVarintArray@V<lambda_4a870f6fe8f1a3b39ec2f37a4e0055dc>@@@internal@protobuf@google@@YAPEBDPEBD0V<lambda_4a870f6fe8f1a3b39ec2f37a4e0055dc>@@@Z 000000014002ab70 f i libprotobuf:parse_context.obj
 0001:00029c50       ??$ReadPackedVarintArray@V<lambda_69962c3e6e3604826fbe0c504e3195e7>@@@internal@protobuf@google@@YAPEBDPEBD0V<lambda_69962c3e6e3604826fbe0c504e3195e7>@@@Z 000000014002ac50 f i libprotobuf:parse_context.obj
 0001:00029c50       ??$ReadPackedVarintArray@V<lambda_f30daaeca8ef5592c2ffbda46b6b85e1>@@@internal@protobuf@google@@YAPEBDPEBD0V<lambda_f30daaeca8ef5592c2ffbda46b6b85e1>@@@Z 000000014002ac50 f i libprotobuf:parse_context.obj
 0001:00029d30       ??$ReadPackedVarintArray@V<lambda_b8353ada37acf7b400661bb3b16393ca>@@@internal@protobuf@google@@YAPEBDPEBD0V<lambda_b8353ada37acf7b400661bb3b16393ca>@@@Z 000000014002ad30 f i libprotobuf:parse_context.obj
 0001:00029e20       ??$WireFormatParser@VUnknownFieldLiteParserHelper@internal@protobuf@google@@@internal@protobuf@google@@YAPEBDAEAVUnknownFieldLiteParserHelper@012@PEBDPEAVParseContext@012@@Z 000000014002ae20 f i libprotobuf:parse_context.obj
 0001:00029f40       ??$_Reallocate_grow_by@V<lambda_319d5e083f45f90dcdce5dce53cbb275>@@D@?$basic_string@DU?$char_traits@D@std@@V?$allocator@D@2@@std@@AEAAAEAV01@_KV<lambda_319d5e083f45f90dcdce5dce53cbb275>@@D@Z 000000014002af40 f i libprotobuf:parse_context.obj
 0001:0002a0b0       ?AppendString@EpsCopyInputStream@internal@protobuf@google@@QEAAPEBDPEBDHPEAV?$basic_string@DU?$char_traits@D@std@@V?$allocator@D@2@@std@@@Z 000000014002b0b0 f i libprotobuf:parse_context.obj
 0001:0002a200       ?DoneFallback@EpsCopyInputStream@internal@protobuf@google@@AEAA?AU?$pair@PEBD_N@std@@HH@Z 000000014002b200 f   libprotobuf:parse_context.obj
 0001:0002a400       ?InitFrom@EpsCopyInputStream@internal@protobuf@google@@IEAAPEBDPEAVZeroCopyInputStream@io@34@@Z 000000014002b400 f   libprotobuf:parse_context.obj
 0001:0002a4d0       ?InlineGreedyStringParser@internal@protobuf@google@@YAPEBDPEAV?$basic_string@DU?$char_traits@D@std@@V?$allocator@D@2@@std@@PEBDPEAVParseContext@123@@Z 000000014002b4d0 f   libprotobuf:parse_context.obj
 0001:0002a520       ?Next@EpsCopyInputStream@internal@protobuf@google@@AEAAPEBDXZ 000000014002b520 f   libprotobuf:parse_context.obj
 0001:0002a580       ?NextBuffer@EpsCopyInputStream@internal@protobuf@google@@AEAAPEBDHH@Z 000000014002b580 f i libprotobuf:parse_context.obj
 0001:0002a6f0       ?PackedBoolParser@internal@protobuf@google@@YAPEBDPEAXPEBDPEAVParseContext@123@@Z 000000014002b6f0 f   libprotobuf:parse_context.obj
 0001:0002a700       ?PackedDoubleParser@internal@protobuf@google@@YAPEBDPEAXPEBDPEAVParseContext@123@@Z 000000014002b700 f   libprotobuf:parse_context.obj
 0001:0002a700       ?PackedFixed64Parser@internal@protobuf@google@@YAPEBDPEAXPEBDPEAVParseContext@123@@Z 000000014002b700 f   libprotobuf:parse_context.obj
 0001:0002a700       ?PackedSFixed64Parser@internal@protobuf@google@@YAPEBDPEAXPEBDPEAVParseContext@123@@Z 000000014002b700 f   libprotobuf:parse_context.obj
 0001:0002a740       ?PackedEnumParser@internal@protobuf@google@@YAPEBDPEAXPEBDPEAVParseContext@123@@Z 000000014002b740 f   libprotobuf:parse_context.obj
 0001:0002a740       ?PackedInt32Parser@internal@protobuf@google@@YAPEBDPEAXPEBDPEAVParseContext@123@@Z 000000014002b740 f   libprotobuf:parse_context.obj
 0001:0002a740       ?PackedUInt32Parser@internal@protobuf@google@@YAPEBDPEAXPEBDPEAVParseContext@123@@Z 000000014002b740 f   libprotobuf:parse_context.obj
 0001:0002a750       ?PackedFixed32Parser@internal@protobuf@google@@YAPEBDPEAXPEBDPEAVParseContext@123@@Z 000000014002b750 f   libprotobuf:parse_context.obj
 0001:0002a750       ?PackedFloatParser@internal@protobuf@google@@YAPEBDPEAXPEBDPEAVParseContext@123@@Z 000000014002b750 f   libprotobuf:parse_context.obj
 0001:0002a750       ?PackedSFixed32Parser@internal@protobuf@google@@YAPEBDPEAXPEBDPEAVParseContext@123@@Z 000000014002b750 f   libprotobuf:parse_context.obj
 0001:0002a790       ?PackedInt64Parser@internal@protobuf@google@@YAPEBDPEAXPEBDPEAVParseContext@123@@Z 000000014002b790 f   libprotobuf:parse_context.obj
 0001:0002a790       ?PackedUInt64Parser@internal@protobuf@google@@YAPEBDPEAXPEBDPEAVParseContext@123@@Z 000000014002b790 f   libprotobuf:parse_context.obj
 0001:0002a7a0       ?PackedSInt32Parser@internal@protobuf@google@@YAPEBDPEAXPEBDPEAVParseContext@123@@Z 000000014002b7a0 f   libprotobuf:parse_context.obj
 0001:0002a7b0       ?PackedSInt64Parser@internal@protobuf@google@@YAPEBDPEAXPEBDPEAVParseContext@123@@Z 000000014002b7b0 f   libprotobuf:parse_context.obj
 0001:0002a9f0       ?ParseMessage@ParseContext@internal@protobuf@google@@QEAAPEBDPEAVMessageLite@34@PEBD@Z 000000014002b9f0 f   libprotobuf:parse_context.obj
 0001:0002aaa0       ?ReadSize@internal@protobuf@google@@YAIPEAPEBD@Z 000000014002baa0 f i libprotobuf:parse_context.obj
 0001:0002ab40       ?ReadSizeFallback@internal@protobuf@google@@YA?AU?$pair@PEBDH@std@@PEBDI@Z 000000014002bb40 f   libprotobuf:parse_context.obj
 0001:0002abe0       ?ReadString@EpsCopyInputStream@internal@protobuf@google@@QEAAPEBDPEBDHPEAV?$basic_string@DU?$char_traits@D@std@@V?$allocator@D@2@@std@@@Z 000000014002bbe0 f i libprotobuf:parse_context.obj
 0001:0002ad30       ?ReadStringFallback@EpsCopyInputStream@internal@protobuf@google@@AEAAPEBDPEBDHPEAV?$basic_string@DU?$char_traits@D@std@@V?$allocator@D@2@@std@@@Z 000000014002bd30 f   libprotobuf:parse_context.obj
 0001:0002ae50       ?ReadTagFallback@internal@protobuf@google@@YA?AU?$pair@PEBDI@std@@PEBDI@Z 000000014002be50 f   libprotobuf:parse_context.obj
 0001:0002aec0       ?UnknownFieldParse@internal@protobuf@google@@YAPEBDIPEAV?$basic_string@DU?$char_traits@D@std@@V?$allocator@D@2@@std@@PEBDPEAVParseContext@123@@Z 000000014002bec0 f   libprotobuf:parse_context.obj
 0001:0002aee0       ?VarintParseSlow32@internal@protobuf@google@@YA?AU?$pair@PEBDI@std@@PEBDI@Z 000000014002bee0 f   libprotobuf:parse_context.obj
 0001:0002af70       ?VarintParseSlow64@internal@protobuf@google@@YA?AU?$pair@PEBD_K@std@@PEBDI@Z 000000014002bf70 f   libprotobuf:parse_context.obj
 0001:0002aff0       ?VerifyUTF8@internal@protobuf@google@@YA_NVStringPiece@stringpiece_internal@23@PEBD@Z 000000014002bff0 f   libprotobuf:parse_context.obj
 0001:0002b090       ?WriteVarint@internal@protobuf@google@@YAX_KPEAV?$basic_string@DU?$char_traits@D@std@@V?$allocator@D@2@@std@@@Z 000000014002c090 f i libprotobuf:parse_context.obj
 0001:0002b150       ??$MessageSize@VMessage@protobuf@google@@@WireFormatLite@internal@protobuf@google@@SA_KAEBVMessage@23@@Z 000000014002c150 f i libprotobuf:wire_format.obj
 0001:0002b150       ??$MessageSize@VMessageLite@protobuf@google@@@WireFormatLite@internal@protobuf@google@@SA_KAEBVMessageLite@23@@Z 000000014002c150 f i libprotobuf:extension_set.obj
 0001:0002b260       ??$_Buffered_inplace_merge_divide_and_conquer2@PEAPEBVMessage@protobuf@google@@VMapEntryMessageComparator@DynamicMapSorter@23@@std@@YAXPEAPEBVMessage@protobuf@google@@00_J1QEAPEBV123@_JVMapEntryMessageComparator@DynamicMapSorter@23@0011@Z 000000014002c260 f i libprotobuf:wire_format.obj
 0001:0002b420       ??$_Buffered_inplace_merge_unchecked@PEAPEBVMessage@protobuf@google@@VMapEntryMessageComparator@DynamicMapSorter@23@@std@@YAXPEAPEBVMessage@protobuf@google@@00_J1QEAPEBV123@_JVMapEntryMessageComparator@DynamicMapSorter@23@@Z 000000014002c420 f i libprotobuf:wire_format.obj
 0001:0002b560       ??$_Buffered_inplace_merge_unchecked_impl@PEAPEBVMessage@protobuf@google@@VMapEntryMessageComparator@DynamicMapSorter@23@@std@@YAXPEAPEBVMessage@protobuf@google@@00_J1QEAPEBV123@_JVMapEntryMessageComparator@DynamicMapSorter@23@@Z 000000014002c560 f i libprotobuf:wire_format.obj
 0001:0002b810       ??$_Buffered_merge_sort_unchecked@PEAPEBVMessage@protobuf@google@@VMapEntryMessageComparator@DynamicMapSorter@23@@std@@YAXQEAPEBVMessage@protobuf@google@@0_J0VMapEntryMessageComparator@DynamicMapSorter@23@@Z 000000014002c810 f i libprotobuf:wire_format.obj
 0001:0002ba10       ??$_Buffered_rotate_unchecked@PEAPEBVMessage@protobuf@google@@@std@@YAPEAPEBVMessage@protobuf@google@@QEAPEBV123@00_J101@Z 000000014002ca10 f i libprotobuf:wire_format.obj
 0001:0002bb40       ??$_Chunked_merge_unchecked@PEAPEBVMessage@protobuf@google@@PEAPEBV123@VMapEntryMessageComparator@DynamicMapSorter@23@@std@@YAXPEAPEBVMessage@protobuf@google@@QEAPEBV123@0_J_JVMapEntryMessageComparator@DynamicMapSorter@23@@Z 000000014002cb40 f i libprotobuf:wire_format.obj
 0001:0002bc80       ??$_Destroy_range@V?$allocator@VMapKey@protobuf@google@@@std@@@std@@YAXPEAVMapKey@protobuf@google@@QEAV123@AEAV?$allocator@VMapKey@protobuf@google@@@0@@Z 000000014002cc80 f i libprotobuf:wire_format.obj
 0001:0002bd10       ??$_Emplace_reallocate@AEBVMapKey@protobuf@google@@@?$vector@VMapKey@protobuf@google@@V?$allocator@VMapKey@protobuf@google@@@std@@@std@@QEAAPEAVMapKey@protobuf@google@@QEAV234@AEBV234@@Z 000000014002cd10 f i libprotobuf:wire_format.obj
 0001:0002bfd0       ??$_Emplace_reallocate@PEBVFieldDescriptor@protobuf@google@@@?$vector@PEBVFieldDescriptor@protobuf@google@@V?$allocator@PEBVFieldDescriptor@protobuf@google@@@std@@@std@@QEAAPEAPEBVFieldDescriptor@protobuf@google@@QEAPEBV234@$$QEAPEBV234@@Z 000000014002cfd0 f i libprotobuf:wire_format.obj
 0001:0002c170       ??$_Insertion_sort_unchecked@PEAPEBVMessage@protobuf@google@@VMapEntryMessageComparator@DynamicMapSorter@23@@std@@YAPEAPEBVMessage@protobuf@google@@QEAPEBV123@0VMapEntryMessageComparator@DynamicMapSorter@23@@Z 000000014002d170 f i libprotobuf:wire_format.obj
 0001:0002c520       ??$_Insertion_sort_unchecked@PEAVMapKey@protobuf@google@@VMapKeyComparator@MapKeySorter@internal@23@@std@@YAPEAVMapKey@protobuf@google@@QEAV123@0VMapKeyComparator@MapKeySorter@internal@23@@Z 000000014002d520 f i libprotobuf:wire_format.obj
 0001:0002c990       ??$_Make_heap_unchecked@PEAVMapKey@protobuf@google@@VMapKeyComparator@MapKeySorter@internal@23@@std@@YAXPEAVMapKey@protobuf@google@@0VMapKeyComparator@MapKeySorter@internal@23@@Z 000000014002d990 f i libprotobuf:wire_format.obj
 0001:0002ccc0       ??$_Med3_unchecked@PEAVMapKey@protobuf@google@@VMapKeyComparator@MapKeySorter@internal@23@@std@@YAXPEAVMapKey@protobuf@google@@00VMapKeyComparator@MapKeySorter@internal@23@@Z 000000014002dcc0 f i libprotobuf:wire_format.obj
 0001:0002cd50       ??$_Partition_by_median_guess_unchecked@PEAVMapKey@protobuf@google@@VMapKeyComparator@MapKeySorter@internal@23@@std@@YA?AU?$pair@PEAVMapKey@protobuf@google@@PEAV123@@0@PEAVMapKey@protobuf@google@@0VMapKeyComparator@MapKeySorter@internal@34@@Z 000000014002dd50 f i libprotobuf:wire_format.obj
 0001:0002dc20       ??$_Pop_heap_hole_by_index@PEAVMapKey@protobuf@google@@V123@VMapKeyComparator@MapKeySorter@internal@23@@std@@YAXPEAVMapKey@protobuf@google@@_J1$$QEAV123@VMapKeyComparator@MapKeySorter@internal@23@@Z 000000014002ec20 f i libprotobuf:wire_format.obj
 0001:0002de80       ??$_Push_heap_by_index@PEAVMapKey@protobuf@google@@V123@VMapKeyComparator@MapKeySorter@internal@23@@std@@YAXPEAVMapKey@protobuf@google@@_J1$$QEAV123@VMapKeyComparator@MapKeySorter@internal@23@@Z 000000014002ee80 f i libprotobuf:wire_format.obj
 0001:0002e050       ??$_Sort_unchecked@PEAVMapKey@protobuf@google@@VMapKeyComparator@MapKeySorter@internal@23@@std@@YAXPEAVMapKey@protobuf@google@@0_JVMapKeyComparator@MapKeySorter@internal@23@@Z 000000014002f050 f i libprotobuf:wire_format.obj
 0001:0002e270       ??$_Stable_sort_unchecked@PEAPEBVMessage@protobuf@google@@VMapEntryMessageComparator@DynamicMapSorter@23@@std@@YAXQEAPEBVMessage@protobuf@google@@0_J01VMapEntryMessageComparator@DynamicMapSorter@23@@Z 000000014002f270 f i libprotobuf:wire_format.obj
 0001:0002e380       ??$iter_swap@PEAVMapKey@protobuf@google@@PEAV123@@std@@YAXPEAVMapKey@protobuf@google@@0@Z 000000014002f380 f i libprotobuf:wire_format.obj
 0001:0002e400       ??$lower_bound@PEAPEBVMessage@protobuf@google@@PEBV123@VMapEntryMessageComparator@DynamicMapSorter@23@@std@@YAPEAPEBVMessage@protobuf@google@@PEAPEBV123@QEAPEBV123@AEBQEBV123@VMapEntryMessageComparator@DynamicMapSorter@23@@Z 000000014002f400 f i libprotobuf:wire_format.obj
 0001:0002e780       ??$upper_bound@PEAPEBVMessage@protobuf@google@@PEBV123@VMapEntryMessageComparator@DynamicMapSorter@23@@std@@YAPEAPEBVMessage@protobuf@google@@PEAPEBV123@0AEBQEBV123@VMapEntryMessageComparator@DynamicMapSorter@23@@Z 000000014002f780 f i libprotobuf:wire_format.obj
 0001:0002eb00       ??1?$RepeatedFieldRefIterator@VMessage@protobuf@google@@@internal@protobuf@google@@QEAA@XZ 000000014002fb00 f i libprotobuf:wire_format.obj
 0001:0002eb40       ??1?$_Optimistic_temporary_buffer@PEBVMessage@protobuf@google@@@std@@QEAA@XZ 000000014002fb40 f i libprotobuf:wire_format.obj
 0001:0002eb60       ??1?$_Uninitialized_backout_al@V?$allocator@VMapKey@protobuf@google@@@std@@@std@@QEAA@XZ 000000014002fb60 f i libprotobuf:wire_format.obj
 0001:0002eb70       ??1?$vector@VMapKey@protobuf@google@@V?$allocator@VMapKey@protobuf@google@@@std@@@std@@QEAA@XZ 000000014002fb70 f i libprotobuf:wire_format.obj
 0001:0002ec00       ??RMapEntryMessageComparator@DynamicMapSorter@protobuf@google@@QEAA_NPEBVMessage@23@0@Z 000000014002fc00 f i libprotobuf:wire_format.obj
 0001:0002ef00       ??RMapKeyComparator@MapKeySorter@internal@protobuf@google@@QEBA_NAEBVMapKey@34@0@Z 000000014002ff00 f i libprotobuf:wire_format.obj
 0001:0002f080       ?ByteSize@WireFormat@internal@protobuf@google@@SA_KAEBVMessage@34@@Z 0000000140030080 f   libprotobuf:wire_format.obj
 0001:0002f270       ?ComputeUnknownFieldsSize@WireFormat@internal@protobuf@google@@SA_KAEBVUnknownFieldSet@34@@Z 0000000140030270 f   libprotobuf:wire_format.obj
 0001:0002f430       ?CopyFrom@MapKey@protobuf@google@@QEAAXAEBV123@@Z 0000000140030430 f i libprotobuf:wire_format.obj
 0001:0002f560       ?FieldByteSize@WireFormat@internal@protobuf@google@@SA_KPEBVFieldDescriptor@34@AEBVMessage@34@@Z 0000000140030560 f   libprotobuf:wire_format.obj
 0001:0002f780       ?FieldDataOnlyByteSize@WireFormat@internal@protobuf@google@@SA_KPEBVFieldDescriptor@34@AEBVMessage@34@@Z 0000000140030780 f   libprotobuf:wire_format.obj
 0001:0002feb0       ?GetBoolValue@MapKey@protobuf@google@@QEBA_NXZ 0000000140030eb0 f i libprotobuf:wire_format.obj
 0001:0002ffe0       ?GetEnumValue@MapValueConstRef@protobuf@google@@QEBAHXZ 0000000140030fe0 f i libprotobuf:wire_format.obj
 0001:00030110       ?GetInt32Value@MapKey@protobuf@google@@QEBAHXZ 0000000140031110 f i libprotobuf:wire_format.obj
 0001:00030230       ?GetInt32Value@MapValueConstRef@protobuf@google@@QEBAHXZ 0000000140031230 f i libprotobuf:wire_format.obj
 0001:00030360       ?GetInt64Value@MapKey@protobuf@google@@QEBA_JXZ 0000000140031360 f i libprotobuf:wire_format.obj
 0001:00030480       ?GetInt64Value@MapValueConstRef@protobuf@google@@QEBA_JXZ 0000000140031480 f i libprotobuf:wire_format.obj
 0001:000305b0       ?GetMessageValue@MapValueConstRef@protobuf@google@@QEBAAEBVMessage@23@XZ 00000001400315b0 f i libprotobuf:wire_format.obj
 0001:000306d0       ?GetStringValue@MapKey@protobuf@google@@QEBAAEBV?$basic_string@DU?$char_traits@D@std@@V?$allocator@D@2@@std@@XZ 00000001400316d0 f i libprotobuf:wire_format.obj
 0001:000307f0       ?GetStringValue@MapValueConstRef@protobuf@google@@QEBAAEBV?$basic_string@DU?$char_traits@D@std@@V?$allocator@D@2@@std@@XZ 00000001400317f0 f i libprotobuf:wire_format.obj
 0001:00030910       ?GetUInt32Value@MapKey@protobuf@google@@QEBAIXZ 0000000140031910 f i libprotobuf:wire_format.obj
 0001:00030a30       ?GetUInt32Value@MapValueConstRef@protobuf@google@@QEBAIXZ 0000000140031a30 f i libprotobuf:wire_format.obj
 0001:00030b60       ?GetUInt64Value@MapKey@protobuf@google@@QEBA_KXZ 0000000140031b60 f i libprotobuf:wire_format.obj
 0001:00030c80       ?GetUInt64Value@MapValueConstRef@protobuf@google@@QEBA_KXZ 0000000140031c80 f i libprotobuf:wire_format.obj
 0001:00030db0       ?InternalSerializeField@WireFormat@internal@protobuf@google@@SAPEAEPEBVFieldDescriptor@34@AEBVMessage@34@PEAEPEAVEpsCopyOutputStream@io@34@@Z 0000000140031db0 f   libprotobuf:wire_format.obj
 0001:00032db0       ?InternalSerializeUnknownFieldsToArray@WireFormat@internal@protobuf@google@@SAPEAEAEBVUnknownFieldSet@34@PEAEPEAVEpsCopyOutputStream@io@34@@Z 0000000140033db0 f   libprotobuf:wire_format.obj
 0001:00033180       ?MapKeyDataOnlyByteSize@internal@protobuf@google@@YA_KPEBVFieldDescriptor@23@AEBVMapKey@23@@Z 0000000140034180 f   libprotobuf:wire_format.obj
 0001:00033690       ?ParseMessageSet@MessageSetParser@WireFormat@internal@protobuf@google@@QEAAPEBDPEBDPEAVParseContext@345@@Z 0000000140034690 f i libprotobuf:wire_format.obj
 0001:00033830       ?SerializeMapKeyWithCachedSizes@internal@protobuf@google@@YAPEAEPEBVFieldDescriptor@23@AEBVMapKey@23@PEAEPEAVEpsCopyOutputStream@io@23@@Z 0000000140034830 f   libprotobuf:wire_format.obj
 0001:000343e0       ?SkipField@WireFormat@internal@protobuf@google@@SA_NPEAVCodedInputStream@io@34@IPEAVUnknownFieldSet@34@@Z 00000001400353e0 f   libprotobuf:wire_format.obj
 0001:00034610       ?SkipMessage@WireFormat@internal@protobuf@google@@SA_NPEAVCodedInputStream@io@34@PEAVUnknownFieldSet@34@@Z 0000000140035610 f   libprotobuf:wire_format.obj
 0001:00034690       ?Sort@DynamicMapSorter@protobuf@google@@SA?AV?$vector@PEBVMessage@protobuf@google@@V?$allocator@PEBVMessage@protobuf@google@@@std@@@std@@AEBVMessage@23@HPEBVReflection@23@PEBVFieldDescriptor@23@@Z 0000000140035690 f i libprotobuf:wire_format.obj
 0001:000349c0       ?SortKey@MapKeySorter@internal@protobuf@google@@SA?AV?$vector@VMapKey@protobuf@google@@V?$allocator@VMapKey@protobuf@google@@@std@@@std@@AEBVMessage@34@PEBVReflection@34@PEBVFieldDescriptor@34@@Z 00000001400359c0 f i libprotobuf:wire_format.obj
 0001:00034bc0       ?_Destroy@?$vector@VMapKey@protobuf@google@@V?$allocator@VMapKey@protobuf@google@@@std@@@std@@AEAAXPEAVMapKey@protobuf@google@@0@Z 0000000140035bc0 f i libprotobuf:wire_format.obj
 0001:00034be0       ?_InternalParse@MessageSetParser@WireFormat@internal@protobuf@google@@QEAAPEBDPEBDPEAVParseContext@345@@Z 0000000140035be0 f i libprotobuf:wire_format.obj
 0001:000350b0       ?_InternalParse@WireFormat@internal@protobuf@google@@SAPEBDPEAVMessage@34@PEBDPEAVParseContext@234@@Z 00000001400360b0 f   libprotobuf:wire_format.obj
 0001:000352a0       ?_InternalParseAndMergeField@WireFormat@internal@protobuf@google@@CAPEBDPEAVMessage@34@PEBDPEAVParseContext@234@_KPEBVReflection@34@PEBVFieldDescriptor@34@@Z 00000001400362a0 f   libprotobuf:wire_format.obj
 0001:00035f10       ?_InternalSerialize@WireFormat@internal@protobuf@google@@SAPEAEAEBVMessage@34@PEAEPEAVEpsCopyOutputStream@io@34@@Z 0000000140036f10 f   libprotobuf:wire_format.obj
 0001:000361a0       ?_Umove@?$vector@VMapKey@protobuf@google@@V?$allocator@VMapKey@protobuf@google@@@std@@@std@@AEAAPEAVMapKey@protobuf@google@@PEAV345@00@Z 00000001400371a0 f i libprotobuf:wire_format.obj
 0001:00036230       ?compare@?$basic_string@DU?$char_traits@D@std@@V?$allocator@D@2@@std@@QEBAHAEBV12@@Z 0000000140037230 f i libprotobuf:wire_format.obj
 0001:000362a0       ?deallocate@?$allocator@VMapKey@protobuf@google@@@std@@QEAAXQEAVMapKey@protobuf@google@@_K@Z 00000001400372a0 f i libprotobuf:wire_format.obj
 0001:000362f0       ?type@MapKey@protobuf@google@@QEBA?AW4CppType@FieldDescriptor@23@XZ 00000001400372f0 f i libprotobuf:wire_format.obj
 0001:00036390       ??$arena_destruct_object@VImplicitWeakMessage@internal@protobuf@google@@@internal@protobuf@google@@YAXPEAX@Z 0000000140037390 f i libprotobuf:repeated_ptr_field.obj
 0001:000363a0       ??_EImplicitWeakMessage@internal@protobuf@google@@UEAAPEAXI@Z 00000001400373a0 f i libprotobuf:repeated_ptr_field.obj
 0001:000363a0       ??_GImplicitWeakMessage@internal@protobuf@google@@UEAAPEAXI@Z 00000001400373a0 f i libprotobuf:repeated_ptr_field.obj
 0001:00036480       ?AddOutOfLineHelper@RepeatedPtrFieldBase@internal@protobuf@google@@AEAAPEAXPEAX@Z 0000000140037480 f   libprotobuf:repeated_ptr_field.obj
 0001:000364e0       ?ByteSizeLong@ImplicitWeakMessage@internal@protobuf@google@@UEBA_KXZ 00000001400374e0 f i libprotobuf:repeated_ptr_field.obj
 0001:000364f0       ?CheckTypeAndMergeFrom@ImplicitWeakMessage@internal@protobuf@google@@UEAAXAEBVMessageLite@34@@Z 00000001400374f0 f i libprotobuf:repeated_ptr_field.obj
 0001:00036520       ?Clear@ImplicitWeakMessage@internal@protobuf@google@@UEAAXXZ 0000000140037520 f i libprotobuf:repeated_ptr_field.obj
 0001:00036540       ?DestroyProtos@RepeatedPtrFieldBase@internal@protobuf@google@@IEAAXXZ 0000000140037540 f   libprotobuf:repeated_ptr_field.obj
 0001:000365c0       ?GetCachedSize@ImplicitWeakMessage@internal@protobuf@google@@UEBAHXZ 00000001400375c0 f i libprotobuf:repeated_ptr_field.obj
 0001:000365d0       ?GetTypeName@ImplicitWeakMessage@internal@protobuf@google@@UEBA?AV?$basic_string@DU?$char_traits@D@std@@V?$allocator@D@2@@std@@XZ 00000001400375d0 f i libprotobuf:repeated_ptr_field.obj
 0001:000365f0       ?InternalExtend@RepeatedPtrFieldBase@internal@protobuf@google@@AEAAPEAPEAXH@Z 00000001400375f0 f   libprotobuf:repeated_ptr_field.obj
 0001:00036700       ?IsInitialized@DescriptorProto_ReservedRange@protobuf@google@@UEBA_NXZ 0000000140037700 f i libprotobuf:descriptor.pb.obj
 0001:00036700       ?IsInitialized@EnumDescriptorProto_EnumReservedRange@protobuf@google@@UEBA_NXZ 0000000140037700 f i libprotobuf:descriptor.pb.obj
 0001:00036700       ?IsInitialized@GeneratedCodeInfo@protobuf@google@@UEBA_NXZ 0000000140037700 f i libprotobuf:descriptor.pb.obj
 0001:00036700       ?IsInitialized@GeneratedCodeInfo_Annotation@protobuf@google@@UEBA_NXZ 0000000140037700 f i libprotobuf:descriptor.pb.obj
 0001:00036700       ?IsInitialized@ImplicitWeakMessage@internal@protobuf@google@@UEBA_NXZ 0000000140037700 f i libprotobuf:repeated_ptr_field.obj
 0001:00036700       ?IsInitialized@SourceCodeInfo@protobuf@google@@UEBA_NXZ 0000000140037700 f i libprotobuf:descriptor.pb.obj
 0001:00036700       ?IsInitialized@SourceCodeInfo_Location@protobuf@google@@UEBA_NXZ 0000000140037700 f i libprotobuf:descriptor.pb.obj
 0001:00036710       ?New@ImplicitWeakMessage@internal@protobuf@google@@UEBAPEAVMessageLite@34@PEAVArena@34@@Z 0000000140037710 f i libprotobuf:repeated_ptr_field.obj
 0001:00036810       ?Reserve@RepeatedPtrFieldBase@internal@protobuf@google@@IEAAXH@Z 0000000140037810 f   libprotobuf:repeated_ptr_field.obj
 0001:00036820       ?ReturnArrayMemory@ThreadSafeArena@internal@protobuf@google@@QEAAXPEAX_K@Z 0000000140037820 f i libprotobuf:repeated_ptr_field.obj
 0001:00036920       ?_InternalSerialize@ImplicitWeakMessage@internal@protobuf@google@@UEBAPEAEPEAEPEAVEpsCopyOutputStream@io@34@@Z 0000000140037920 f i libprotobuf:repeated_ptr_field.obj
 0001:00036990       ??$AllocateAligned@$0A@@ThreadSafeArena@internal@protobuf@google@@QEAAPEAX_KPEBVtype_info@@@Z 0000000140037990 f i libprotobuf:arena.obj
 0001:00036a80       ??1ThreadSafeArena@internal@protobuf@google@@QEAA@XZ 0000000140037a80 f   libprotobuf:arena.obj
 0001:00036b30       ?AddCleanup@ThreadSafeArena@internal@protobuf@google@@QEAAXPEAXP6AX0@Z@Z 0000000140037b30 f   libprotobuf:arena.obj
 0001:00036c20       ?AllocateAlignedFallback@SerialArena@internal@protobuf@google@@AEAAPEAX_KPEBUAllocationPolicy@234@@Z 0000000140037c20 f   libprotobuf:arena.obj
 0001:00036c50       ?AllocateAlignedFallback@ThreadSafeArena@internal@protobuf@google@@AEAAPEAX_KPEBVtype_info@@@Z 0000000140037c50 f   libprotobuf:arena.obj
 0001:00036dc0       ?AllocateAlignedWithCleanup@Arena@protobuf@google@@AEAA?AU?$pair@PEAXPEAUCleanupNode@SerialArena@internal@protobuf@google@@@std@@_KPEBVtype_info@@@Z 0000000140037dc0 f   libprotobuf:arena.obj
 0001:00036eb0       ?AllocateAlignedWithCleanupFallback@SerialArena@internal@protobuf@google@@AEAA?AU?$pair@PEAXPEAUCleanupNode@SerialArena@internal@protobuf@google@@@std@@_KPEBUAllocationPolicy@234@@Z 0000000140037eb0 f   libprotobuf:arena.obj
 0001:00036f10       ?AllocateAlignedWithCleanupFallback@ThreadSafeArena@internal@protobuf@google@@AEAA?AU?$pair@PEAXPEAUCleanupNode@SerialArena@internal@protobuf@google@@@std@@_KPEBVtype_info@@@Z 0000000140037f10 f   libprotobuf:arena.obj
 0001:00037070       ?AllocateAlignedWithHook@Arena@protobuf@google@@AEAAPEAX_KPEBVtype_info@@@Z 0000000140038070 f   libprotobuf:arena.obj
 0001:00037080       ?AllocateAlignedWithHookForArray@Arena@protobuf@google@@AEAAPEAX_KPEBVtype_info@@@Z 0000000140038080 f   libprotobuf:arena.obj
 0001:000372d0       ?AllocateNewBlock@SerialArena@internal@protobuf@google@@AEAAX_KPEBUAllocationPolicy@234@@Z 00000001400382d0 f   libprotobuf:arena.obj
 0001:00037360       ?CacheSerialArena@ThreadSafeArena@internal@protobuf@google@@AEAAXPEAVSerialArena@234@@Z 0000000140038360 f i libprotobuf:arena.obj
 0001:000373f0       ?CleanupList@ThreadSafeArena@internal@protobuf@google@@AEAAXXZ 00000001400383f0 f   libprotobuf:arena.obj
 0001:00037480       ?Free@ThreadSafeArena@internal@protobuf@google@@AEAA?AUMemory@SerialArena@234@PEA_K@Z 0000000140038480 f   libprotobuf:arena.obj
 0001:00037580       ?GetSerialArenaFallback@ThreadSafeArena@internal@protobuf@google@@AEAAPEAVSerialArena@234@PEAX@Z 0000000140038580 f   libprotobuf:arena.obj
 0001:00037660       ?SpaceAllocated@ThreadSafeArena@internal@protobuf@google@@QEBA_KXZ 0000000140038660 f   libprotobuf:arena.obj
 0001:00037690       ?SpaceUsed@ThreadSafeArena@internal@protobuf@google@@QEBA_KXZ 0000000140038690 f   libprotobuf:arena.obj
 0001:000376e0       ?Int32Size@WireFormatLite@internal@protobuf@google@@SA_KAEBV?$RepeatedField@H@34@@Z 00000001400386e0 f   libprotobuf:wire_format_lite.obj
 0001:00037750       ?InternalWriteGroup@WireFormatLite@internal@protobuf@google@@SAPEAEHAEBVMessageLite@34@PEAEPEAVEpsCopyOutputStream@io@34@@Z 0000000140038750 f   libprotobuf:wire_format_lite.obj
 0001:00037850       ?InternalWriteMessage@WireFormatLite@internal@protobuf@google@@SAPEAEHAEBVMessageLite@34@HPEAEPEAVEpsCopyOutputStream@io@34@@Z 0000000140038850 f   libprotobuf:wire_format_lite.obj
 0001:00037940       ?PrintUTF8ErrorLog@internal@protobuf@google@@YAXVStringPiece@stringpiece_internal@23@0PEBD_N@Z 0000000140038940 f   libprotobuf:wire_format_lite.obj
 0001:00037e10       ?VerifyUtf8String@WireFormatLite@internal@protobuf@google@@SA_NPEBDHW4Operation@1234@0@Z 0000000140038e10 f   libprotobuf:wire_format_lite.obj
 0001:00037ed0       ??$AddAllocatedSlowWithCopy@VTypeHandler@?$RepeatedPtrField@V?$basic_string@DU?$char_traits@D@std@@V?$allocator@D@2@@std@@@protobuf@google@@@RepeatedPtrFieldBase@internal@protobuf@google@@IEAAXPEAV?$basic_string@DU?$char_traits@D@std@@V?$allocator@D@2@@std@@PEAVArena@23@1@Z 0000000140038ed0 f i libprotobuf:repeated_field.obj
 0001:00038060       ??$Destroy@VTypeHandler@?$RepeatedPtrField@V?$basic_string@DU?$char_traits@D@std@@V?$allocator@D@2@@std@@@protobuf@google@@@RepeatedPtrFieldBase@internal@protobuf@google@@IEAAXXZ 0000000140039060 f i libprotobuf:repeated_field.obj
 0001:00038140       ??$MergeFromInnerLoop@VTypeHandler@?$RepeatedPtrField@V?$basic_string@DU?$char_traits@D@std@@V?$allocator@D@2@@std@@@protobuf@google@@@RepeatedPtrFieldBase@internal@protobuf@google@@AEAAXPEAPEAX0HH@Z 0000000140039140 f i libprotobuf:repeated_field.obj
 0001:00038260       ??$SwapFallback@VTypeHandler@?$RepeatedPtrField@V?$basic_string@DU?$char_traits@D@std@@V?$allocator@D@2@@std@@@protobuf@google@@@RepeatedPtrFieldBase@internal@protobuf@google@@IEAAXPEAV0123@@Z 0000000140039260 f i libprotobuf:repeated_field.obj
 0001:00038460       ??$UnsafeArenaAddAllocated@VTypeHandler@?$RepeatedPtrField@V?$basic_string@DU?$char_traits@D@std@@V?$allocator@D@2@@std@@@protobuf@google@@@RepeatedPtrFieldBase@internal@protobuf@google@@IEAAXPEAV?$basic_string@DU?$char_traits@D@std@@V?$allocator@D@2@@std@@@Z 0000000140039460 f i libprotobuf:repeated_field.obj
 0001:00038560       ??$arena_delete_object@V?$basic_string@DU?$char_traits@D@std@@V?$allocator@D@2@@std@@@internal@protobuf@google@@YAXPEAX@Z 0000000140039560 f i libprotobuf:repeated_field.obj
 0001:000385d0       ??0?$RepeatedField@H@protobuf@google@@QEAA@AEBV012@@Z 00000001400395d0 f i libprotobuf:repeated_field.obj
 0001:000385d0       ??0?$RepeatedField@I@protobuf@google@@QEAA@AEBV012@@Z 00000001400395d0 f i libprotobuf:repeated_field.obj
 0001:000385d0       ??0?$RepeatedField@M@protobuf@google@@QEAA@AEBV012@@Z 00000001400395d0 f i libprotobuf:repeated_field.obj
 0001:00038620       ??0?$RepeatedField@H@protobuf@google@@QEAA@PEAVArena@12@@Z 0000000140039620 f i libprotobuf:repeated_field.obj
 0001:00038620       ??0?$RepeatedField@I@protobuf@google@@QEAA@PEAVArena@12@@Z 0000000140039620 f i libprotobuf:repeated_field.obj
 0001:00038620       ??0?$RepeatedField@M@protobuf@google@@QEAA@PEAVArena@12@@Z 0000000140039620 f i libprotobuf:repeated_field.obj
 0001:00038620       ??0?$RepeatedField@N@protobuf@google@@QEAA@PEAVArena@12@@Z 0000000140039620 f i libprotobuf:repeated_field.obj
 0001:00038620       ??0?$RepeatedField@_J@protobuf@google@@QEAA@PEAVArena@12@@Z 0000000140039620 f i libprotobuf:repeated_field.obj
 0001:00038620       ??0?$RepeatedField@_K@protobuf@google@@QEAA@PEAVArena@12@@Z 0000000140039620 f i libprotobuf:repeated_field.obj
 0001:00038620       ??0?$RepeatedField@_N@protobuf@google@@QEAA@PEAVArena@12@@Z 0000000140039620 f i libprotobuf:repeated_field.obj
 0001:00038630       ??0?$RepeatedField@H@protobuf@google@@QEAA@XZ 0000000140039630 f i libprotobuf:repeated_field.obj
 0001:00038640       ??0?$RepeatedField@N@protobuf@google@@QEAA@AEBV012@@Z 0000000140039640 f i libprotobuf:repeated_field.obj
 0001:00038640       ??0?$RepeatedField@_J@protobuf@google@@QEAA@AEBV012@@Z 0000000140039640 f i libprotobuf:repeated_field.obj
 0001:00038640       ??0?$RepeatedField@_K@protobuf@google@@QEAA@AEBV012@@Z 0000000140039640 f i libprotobuf:repeated_field.obj
 0001:00038690       ??0?$RepeatedField@_N@protobuf@google@@QEAA@AEBV012@@Z 0000000140039690 f i libprotobuf:repeated_field.obj
 0001:000386e0       ??0?$RepeatedPtrField@V?$basic_string@DU?$char_traits@D@std@@V?$allocator@D@2@@std@@@protobuf@google@@QEAA@PEAVArena@12@@Z 00000001400396e0 f i libprotobuf:repeated_field.obj
 0001:00038700       ??0?$RepeatedPtrField@V?$basic_string@DU?$char_traits@D@std@@V?$allocator@D@2@@std@@@protobuf@google@@QEAA@XZ 0000000140039700 f i libprotobuf:repeated_field.obj
 0001:00038720       ??1?$RepeatedField@H@protobuf@google@@QEAA@XZ 0000000140039720 f i libprotobuf:repeated_field.obj
 0001:00038720       ??1?$RepeatedField@I@protobuf@google@@QEAA@XZ 0000000140039720 f i libprotobuf:repeated_field.obj
 0001:00038720       ??1?$RepeatedField@M@protobuf@google@@QEAA@XZ 0000000140039720 f i libprotobuf:repeated_field.obj
 0001:00038750       ??1?$RepeatedField@N@protobuf@google@@QEAA@XZ 0000000140039750 f i libprotobuf:repeated_field.obj
 0001:00038750       ??1?$RepeatedField@_J@protobuf@google@@QEAA@XZ 0000000140039750 f i libprotobuf:repeated_field.obj
 0001:00038750       ??1?$RepeatedField@_K@protobuf@google@@QEAA@XZ 0000000140039750 f i libprotobuf:repeated_field.obj
 0001:00038780       ??1?$RepeatedField@_N@protobuf@google@@QEAA@XZ 0000000140039780 f i libprotobuf:repeated_field.obj
 0001:000387b0       ??1?$RepeatedPtrField@V?$basic_string@DU?$char_traits@D@std@@V?$allocator@D@2@@std@@@protobuf@google@@QEAA@XZ 00000001400397b0 f i libprotobuf:repeated_field.obj
 0001:000387c0       ?Add@?$RepeatedField@H@protobuf@google@@QEAAXAEBH@Z 00000001400397c0 f i libprotobuf:repeated_field.obj
 0001:000387c0       ?Add@?$RepeatedField@I@protobuf@google@@QEAAXAEBI@Z 00000001400397c0 f i libprotobuf:repeated_field.obj
 0001:00038830       ?Add@?$RepeatedField@M@protobuf@google@@QEAAXAEBM@Z 0000000140039830 f i libprotobuf:repeated_field.obj
 0001:00038890       ?Add@?$RepeatedField@N@protobuf@google@@QEAAXAEBN@Z 0000000140039890 f i libprotobuf:repeated_field.obj
 0001:000388f0       ?Add@?$RepeatedField@_J@protobuf@google@@QEAAXAEB_J@Z 00000001400398f0 f i libprotobuf:repeated_field.obj
 0001:000388f0       ?Add@?$RepeatedField@_K@protobuf@google@@QEAAXAEB_K@Z 00000001400398f0 f i libprotobuf:repeated_field.obj
 0001:00038960       ?Add@?$RepeatedField@_N@protobuf@google@@QEAAXAEB_N@Z 0000000140039960 f i libprotobuf:repeated_field.obj
 0001:000389c0       ?Add@?$RepeatedPtrField@V?$basic_string@DU?$char_traits@D@std@@V?$allocator@D@2@@std@@@protobuf@google@@QEAAPEAV?$basic_string@DU?$char_traits@D@std@@V?$allocator@D@2@@std@@XZ 00000001400399c0 f i libprotobuf:repeated_field.obj
 0001:00038a80       ?AddAllocated@?$RepeatedPtrField@V?$basic_string@DU?$char_traits@D@std@@V?$allocator@D@2@@std@@@protobuf@google@@QEAAXPEAV?$basic_string@DU?$char_traits@D@std@@V?$allocator@D@2@@std@@@Z 0000000140039a80 f i libprotobuf:repeated_field.obj
 0001:00038ae0       ?AddNAlreadyReserved@?$RepeatedField@H@protobuf@google@@QEAAPEAHH@Z 0000000140039ae0 f i libprotobuf:repeated_field.obj
 0001:00038ae0       ?AddNAlreadyReserved@?$RepeatedField@I@protobuf@google@@QEAAPEAIH@Z 0000000140039ae0 f i libprotobuf:repeated_field.obj
 0001:00038ae0       ?AddNAlreadyReserved@?$RepeatedField@M@protobuf@google@@QEAAPEAMH@Z 0000000140039ae0 f i libprotobuf:repeated_field.obj
 0001:00038b00       ?AddNAlreadyReserved@?$RepeatedField@N@protobuf@google@@QEAAPEANH@Z 0000000140039b00 f i libprotobuf:repeated_field.obj
 0001:00038b00       ?AddNAlreadyReserved@?$RepeatedField@_J@protobuf@google@@QEAAPEA_JH@Z 0000000140039b00 f i libprotobuf:repeated_field.obj
 0001:00038b00       ?AddNAlreadyReserved@?$RepeatedField@_K@protobuf@google@@QEAAPEA_KH@Z 0000000140039b00 f i libprotobuf:repeated_field.obj
 0001:00038b20       ?Clear@?$RepeatedField@H@protobuf@google@@QEAAXXZ 0000000140039b20 f i libprotobuf:repeated_field.obj
 0001:00038b20       ?Clear@?$RepeatedField@I@protobuf@google@@QEAAXXZ 0000000140039b20 f i libprotobuf:repeated_field.obj
 0001:00038b20       ?Clear@?$RepeatedField@M@protobuf@google@@QEAAXXZ 0000000140039b20 f i libprotobuf:repeated_field.obj
 0001:00038b20       ?Clear@?$RepeatedField@N@protobuf@google@@QEAAXXZ 0000000140039b20 f i libprotobuf:repeated_field.obj
 0001:00038b20       ?Clear@?$RepeatedField@_J@protobuf@google@@QEAAXXZ 0000000140039b20 f i libprotobuf:repeated_field.obj
 0001:00038b20       ?Clear@?$RepeatedField@_K@protobuf@google@@QEAAXXZ 0000000140039b20 f i libprotobuf:repeated_field.obj
 0001:00038b20       ?Clear@?$RepeatedField@_N@protobuf@google@@QEAAXXZ 0000000140039b20 f i libprotobuf:repeated_field.obj
 0001:00038b30       ?Clear@?$RepeatedPtrField@V?$basic_string@DU?$char_traits@D@std@@V?$allocator@D@2@@std@@@protobuf@google@@QEAAXXZ 0000000140039b30 f i libprotobuf:repeated_field.obj
 0001:00038b80       ?Get@?$RepeatedField@H@protobuf@google@@QEBAAEBHH@Z 0000000140039b80 f i libprotobuf:repeated_field.obj
 0001:00038b80       ?Get@?$RepeatedField@I@protobuf@google@@QEBAAEBIH@Z 0000000140039b80 f i libprotobuf:repeated_field.obj
 0001:00038b80       ?Get@?$RepeatedField@M@protobuf@google@@QEBAAEBMH@Z 0000000140039b80 f i libprotobuf:repeated_field.obj
 0001:00038b90       ?Get@?$RepeatedField@N@protobuf@google@@QEBAAEBNH@Z 0000000140039b90 f i libprotobuf:repeated_field.obj
 0001:00038b90       ?Get@?$RepeatedField@_J@protobuf@google@@QEBAAEB_JH@Z 0000000140039b90 f i libprotobuf:repeated_field.obj
 0001:00038b90       ?Get@?$RepeatedField@_K@protobuf@google@@QEBAAEB_KH@Z 0000000140039b90 f i libprotobuf:repeated_field.obj
 0001:00038ba0       ?Get@?$RepeatedField@_N@protobuf@google@@QEBAAEB_NH@Z 0000000140039ba0 f i libprotobuf:repeated_field.obj
 0001:00038bb0       ?Get@?$RepeatedPtrField@V?$basic_string@DU?$char_traits@D@std@@V?$allocator@D@2@@std@@@protobuf@google@@QEBAAEBV?$basic_string@DU?$char_traits@D@std@@V?$allocator@D@2@@std@@H@Z 0000000140039bb0 f i libprotobuf:repeated_field.obj
 0001:00038bb0       ?Mutable@?$RepeatedPtrField@V?$basic_string@DU?$char_traits@D@std@@V?$allocator@D@2@@std@@@protobuf@google@@QEAAPEAV?$basic_string@DU?$char_traits@D@std@@V?$allocator@D@2@@std@@H@Z 0000000140039bb0 f i libprotobuf:repeated_field.obj
 0001:00038bc0       ?InternalSwap@?$RepeatedField@H@protobuf@google@@QEAAXPEAV123@@Z 0000000140039bc0 f i libprotobuf:repeated_field.obj
 0001:00038bc0       ?InternalSwap@?$RepeatedField@I@protobuf@google@@QEAAXPEAV123@@Z 0000000140039bc0 f i libprotobuf:repeated_field.obj
 0001:00038bc0       ?InternalSwap@?$RepeatedField@M@protobuf@google@@QEAAXPEAV123@@Z 0000000140039bc0 f i libprotobuf:repeated_field.obj
 0001:00038bc0       ?InternalSwap@?$RepeatedField@N@protobuf@google@@QEAAXPEAV123@@Z 0000000140039bc0 f i libprotobuf:repeated_field.obj
 0001:00038bc0       ?InternalSwap@?$RepeatedField@_J@protobuf@google@@QEAAXPEAV123@@Z 0000000140039bc0 f i libprotobuf:repeated_field.obj
 0001:00038bc0       ?InternalSwap@?$RepeatedField@_K@protobuf@google@@QEAAXPEAV123@@Z 0000000140039bc0 f i libprotobuf:repeated_field.obj
 0001:00038bc0       ?InternalSwap@?$RepeatedField@_N@protobuf@google@@QEAAXPEAV123@@Z 0000000140039bc0 f i libprotobuf:repeated_field.obj
 0001:00038be0       ?MergeFrom@?$RepeatedField@H@protobuf@google@@QEAAXAEBV123@@Z 0000000140039be0 f i libprotobuf:repeated_field.obj
 0001:00038be0       ?MergeFrom@?$RepeatedField@I@protobuf@google@@QEAAXAEBV123@@Z 0000000140039be0 f i libprotobuf:repeated_field.obj
 0001:00038be0       ?MergeFrom@?$RepeatedField@M@protobuf@google@@QEAAXAEBV123@@Z 0000000140039be0 f i libprotobuf:repeated_field.obj
 0001:00038c40       ?MergeFrom@?$RepeatedField@N@protobuf@google@@QEAAXAEBV123@@Z 0000000140039c40 f i libprotobuf:repeated_field.obj
 0001:00038c40       ?MergeFrom@?$RepeatedField@_J@protobuf@google@@QEAAXAEBV123@@Z 0000000140039c40 f i libprotobuf:repeated_field.obj
 0001:00038c40       ?MergeFrom@?$RepeatedField@_K@protobuf@google@@QEAAXAEBV123@@Z 0000000140039c40 f i libprotobuf:repeated_field.obj
 0001:00038ca0       ?MergeFrom@?$RepeatedField@_N@protobuf@google@@QEAAXAEBV123@@Z 0000000140039ca0 f i libprotobuf:repeated_field.obj
 0001:00038cf0       ?MergeFrom@?$RepeatedPtrField@V?$basic_string@DU?$char_traits@D@std@@V?$allocator@D@2@@std@@@protobuf@google@@QEAAXAEBV123@@Z 0000000140039cf0 f i libprotobuf:repeated_field.obj
 0001:00038d60       ?RemoveLast@?$RepeatedField@H@protobuf@google@@QEAAXXZ 0000000140039d60 f i libprotobuf:repeated_field.obj
 0001:00038d60       ?RemoveLast@?$RepeatedField@I@protobuf@google@@QEAAXXZ 0000000140039d60 f i libprotobuf:repeated_field.obj
 0001:00038d60       ?RemoveLast@?$RepeatedField@M@protobuf@google@@QEAAXXZ 0000000140039d60 f i libprotobuf:repeated_field.obj
 0001:00038d60       ?RemoveLast@?$RepeatedField@N@protobuf@google@@QEAAXXZ 0000000140039d60 f i libprotobuf:repeated_field.obj
 0001:00038d60       ?RemoveLast@?$RepeatedField@_J@protobuf@google@@QEAAXXZ 0000000140039d60 f i libprotobuf:repeated_field.obj
 0001:00038d60       ?RemoveLast@?$RepeatedField@_K@protobuf@google@@QEAAXXZ 0000000140039d60 f i libprotobuf:repeated_field.obj
 0001:00038d60       ?RemoveLast@?$RepeatedField@_N@protobuf@google@@QEAAXXZ 0000000140039d60 f i libprotobuf:repeated_field.obj
 0001:00038d70       ?RemoveLast@?$RepeatedPtrField@V?$basic_string@DU?$char_traits@D@std@@V?$allocator@D@2@@std@@@protobuf@google@@QEAAXXZ 0000000140039d70 f i libprotobuf:repeated_field.obj
 0001:00038da0       ?Reserve@?$RepeatedField@H@protobuf@google@@QEAAXH@Z 0000000140039da0 f i libprotobuf:repeated_field.obj
 0001:00038da0       ?Reserve@?$RepeatedField@I@protobuf@google@@QEAAXH@Z 0000000140039da0 f i libprotobuf:repeated_field.obj
 0001:00038da0       ?Reserve@?$RepeatedField@M@protobuf@google@@QEAAXH@Z 0000000140039da0 f i libprotobuf:repeated_field.obj
 0001:00038eb0       ?Reserve@?$RepeatedField@N@protobuf@google@@QEAAXH@Z 0000000140039eb0 f i libprotobuf:repeated_field.obj
 0001:00038eb0       ?Reserve@?$RepeatedField@_J@protobuf@google@@QEAAXH@Z 0000000140039eb0 f i libprotobuf:repeated_field.obj
 0001:00038eb0       ?Reserve@?$RepeatedField@_K@protobuf@google@@QEAAXH@Z 0000000140039eb0 f i libprotobuf:repeated_field.obj
 0001:00038fb0       ?Reserve@?$RepeatedField@_N@protobuf@google@@QEAAXH@Z 0000000140039fb0 f i libprotobuf:repeated_field.obj
 0001:000390b0       ?Set@?$RepeatedField@H@protobuf@google@@QEAAXHAEBH@Z 000000014003a0b0 f i libprotobuf:repeated_field.obj
 0001:000390b0       ?Set@?$RepeatedField@I@protobuf@google@@QEAAXHAEBI@Z 000000014003a0b0 f i libprotobuf:repeated_field.obj
 0001:000390b0       ?Set@?$RepeatedField@M@protobuf@google@@QEAAXHAEBM@Z 000000014003a0b0 f i libprotobuf:repeated_field.obj
 0001:000390c0       ?Set@?$RepeatedField@N@protobuf@google@@QEAAXHAEBN@Z 000000014003a0c0 f i libprotobuf:repeated_field.obj
 0001:000390c0       ?Set@?$RepeatedField@_J@protobuf@google@@QEAAXHAEB_J@Z 000000014003a0c0 f i libprotobuf:repeated_field.obj
 0001:000390c0       ?Set@?$RepeatedField@_K@protobuf@google@@QEAAXHAEB_K@Z 000000014003a0c0 f i libprotobuf:repeated_field.obj
 0001:000390d0       ?Set@?$RepeatedField@_N@protobuf@google@@QEAAXHAEB_N@Z 000000014003a0d0 f i libprotobuf:repeated_field.obj
 0001:000390e0       ?SpaceUsedExcludingSelfLong@?$RepeatedField@H@protobuf@google@@QEBA_KXZ 000000014003a0e0 f i libprotobuf:repeated_field.obj
 0001:000390e0       ?SpaceUsedExcludingSelfLong@?$RepeatedField@I@protobuf@google@@QEBA_KXZ 000000014003a0e0 f i libprotobuf:repeated_field.obj
 0001:000390e0       ?SpaceUsedExcludingSelfLong@?$RepeatedField@M@protobuf@google@@QEBA_KXZ 000000014003a0e0 f i libprotobuf:repeated_field.obj
 0001:00039100       ?SpaceUsedExcludingSelfLong@?$RepeatedField@N@protobuf@google@@QEBA_KXZ 000000014003a100 f i libprotobuf:repeated_field.obj
 0001:00039100       ?SpaceUsedExcludingSelfLong@?$RepeatedField@_J@protobuf@google@@QEBA_KXZ 000000014003a100 f i libprotobuf:repeated_field.obj
 0001:00039100       ?SpaceUsedExcludingSelfLong@?$RepeatedField@_K@protobuf@google@@QEBA_KXZ 000000014003a100 f i libprotobuf:repeated_field.obj
 0001:00039120       ?SpaceUsedExcludingSelfLong@?$RepeatedField@_N@protobuf@google@@QEBA_KXZ 000000014003a120 f i libprotobuf:repeated_field.obj
 0001:00039130       ?SpaceUsedExcludingSelfLong@?$RepeatedPtrField@V?$basic_string@DU?$char_traits@D@std@@V?$allocator@D@2@@std@@@protobuf@google@@QEBA_KXZ 000000014003a130 f i libprotobuf:repeated_field.obj
 0001:000391b0       ?Swap@?$RepeatedField@H@protobuf@google@@QEAAXPEAV123@@Z 000000014003a1b0 f i libprotobuf:repeated_field.obj
 0001:000391b0       ?Swap@?$RepeatedField@I@protobuf@google@@QEAAXPEAV123@@Z 000000014003a1b0 f i libprotobuf:repeated_field.obj
 0001:000391b0       ?Swap@?$RepeatedField@M@protobuf@google@@QEAAXPEAV123@@Z 000000014003a1b0 f i libprotobuf:repeated_field.obj
 0001:000392f0       ?Swap@?$RepeatedField@N@protobuf@google@@QEAAXPEAV123@@Z 000000014003a2f0 f i libprotobuf:repeated_field.obj
 0001:000392f0       ?Swap@?$RepeatedField@_J@protobuf@google@@QEAAXPEAV123@@Z 000000014003a2f0 f i libprotobuf:repeated_field.obj
 0001:000392f0       ?Swap@?$RepeatedField@_K@protobuf@google@@QEAAXPEAV123@@Z 000000014003a2f0 f i libprotobuf:repeated_field.obj
 0001:00039430       ?Swap@?$RepeatedField@_N@protobuf@google@@QEAAXPEAV123@@Z 000000014003a430 f i libprotobuf:repeated_field.obj
 0001:00039560       ?Swap@?$RepeatedPtrField@V?$basic_string@DU?$char_traits@D@std@@V?$allocator@D@2@@std@@@protobuf@google@@QEAAXPEAV123@@Z 000000014003a560 f i libprotobuf:repeated_field.obj
 0001:000395e0       ?SwapElements@?$RepeatedField@H@protobuf@google@@QEAAXHH@Z 000000014003a5e0 f i libprotobuf:repeated_field.obj
 0001:000395e0       ?SwapElements@?$RepeatedField@I@protobuf@google@@QEAAXHH@Z 000000014003a5e0 f i libprotobuf:repeated_field.obj
 0001:00039600       ?SwapElements@?$RepeatedField@M@protobuf@google@@QEAAXHH@Z 000000014003a600 f i libprotobuf:repeated_field.obj
 0001:00039620       ?SwapElements@?$RepeatedField@N@protobuf@google@@QEAAXHH@Z 000000014003a620 f i libprotobuf:repeated_field.obj
 0001:00039640       ?SwapElements@?$RepeatedField@_J@protobuf@google@@QEAAXHH@Z 000000014003a640 f i libprotobuf:repeated_field.obj
 0001:00039640       ?SwapElements@?$RepeatedField@_K@protobuf@google@@QEAAXHH@Z 000000014003a640 f i libprotobuf:repeated_field.obj
 0001:00039660       ?SwapElements@?$RepeatedField@_N@protobuf@google@@QEAAXHH@Z 000000014003a660 f i libprotobuf:repeated_field.obj
 0001:00039680       ?SwapElements@?$RepeatedPtrField@V?$basic_string@DU?$char_traits@D@std@@V?$allocator@D@2@@std@@@protobuf@google@@QEAAXHH@Z 000000014003a680 f i libprotobuf:repeated_field.obj
 0001:000396b0       ?begin@?$RepeatedField@H@protobuf@google@@QEBA?AV?$RepeatedIterator@$$CBH@internal@23@XZ 000000014003a6b0 f i libprotobuf:repeated_field.obj
 0001:000396c0       ?begin@?$RepeatedPtrField@V?$basic_string@DU?$char_traits@D@std@@V?$allocator@D@2@@std@@@protobuf@google@@QEBA?AV?$RepeatedPtrIterator@$$CBV?$basic_string@DU?$char_traits@D@std@@V?$allocator@D@2@@std@@@internal@23@XZ 000000014003a6c0 f i libprotobuf:repeated_field.obj
 0001:000396e0       ?data@?$RepeatedField@H@protobuf@google@@QEBAPEBHXZ 000000014003a6e0 f i libprotobuf:repeated_field.obj
 0001:000396e0       ?data@?$RepeatedField@I@protobuf@google@@QEBAPEBIXZ 000000014003a6e0 f i libprotobuf:repeated_field.obj
 0001:000396e0       ?data@?$RepeatedField@M@protobuf@google@@QEBAPEBMXZ 000000014003a6e0 f i libprotobuf:repeated_field.obj
 0001:000396e0       ?data@?$RepeatedField@N@protobuf@google@@QEBAPEBNXZ 000000014003a6e0 f i libprotobuf:repeated_field.obj
 0001:000396e0       ?data@?$RepeatedField@_J@protobuf@google@@QEBAPEB_JXZ 000000014003a6e0 f i libprotobuf:repeated_field.obj
 0001:000396e0       ?data@?$RepeatedField@_K@protobuf@google@@QEBAPEB_KXZ 000000014003a6e0 f i libprotobuf:repeated_field.obj
 0001:000396e0       ?data@?$RepeatedField@_N@protobuf@google@@QEBAPEB_NXZ 000000014003a6e0 f i libprotobuf:repeated_field.obj
 0001:000396f0       ?empty@?$RepeatedField@H@protobuf@google@@QEBA_NXZ 000000014003a6f0 f i libprotobuf:repeated_field.obj
 0001:000396f0       ?empty@?$RepeatedField@I@protobuf@google@@QEBA_NXZ 000000014003a6f0 f i libprotobuf:repeated_field.obj
 0001:000396f0       ?empty@?$RepeatedField@M@protobuf@google@@QEBA_NXZ 000000014003a6f0 f i libprotobuf:repeated_field.obj
 0001:000396f0       ?empty@?$RepeatedField@N@protobuf@google@@QEBA_NXZ 000000014003a6f0 f i libprotobuf:repeated_field.obj
 0001:000396f0       ?empty@?$RepeatedField@_J@protobuf@google@@QEBA_NXZ 000000014003a6f0 f i libprotobuf:repeated_field.obj
 0001:000396f0       ?empty@?$RepeatedField@_K@protobuf@google@@QEBA_NXZ 000000014003a6f0 f i libprotobuf:repeated_field.obj
 0001:000396f0       ?empty@?$RepeatedField@_N@protobuf@google@@QEBA_NXZ 000000014003a6f0 f i libprotobuf:repeated_field.obj
 0001:00039700       ?empty@?$RepeatedPtrField@V?$basic_string@DU?$char_traits@D@std@@V?$allocator@D@2@@std@@@protobuf@google@@QEBA_NXZ 000000014003a700 f i libprotobuf:repeated_field.obj
 0001:00039710       ?end@?$RepeatedField@H@protobuf@google@@QEBA?AV?$RepeatedIterator@$$CBH@internal@23@XZ 000000014003a710 f i libprotobuf:repeated_field.obj
 0001:00039730       ?end@?$RepeatedPtrField@V?$basic_string@DU?$char_traits@D@std@@V?$allocator@D@2@@std@@@protobuf@google@@QEBA?AV?$RepeatedPtrIterator@$$CBV?$basic_string@DU?$char_traits@D@std@@V?$allocator@D@2@@std@@@internal@23@XZ 000000014003a730 f i libprotobuf:repeated_field.obj
 0001:00039760       ?size@?$RepeatedField@H@protobuf@google@@QEBAHXZ 000000014003a760 f i libprotobuf:repeated_field.obj
 0001:00039760       ?size@?$RepeatedField@I@protobuf@google@@QEBAHXZ 000000014003a760 f i libprotobuf:repeated_field.obj
 0001:00039760       ?size@?$RepeatedField@M@protobuf@google@@QEBAHXZ 000000014003a760 f i libprotobuf:repeated_field.obj
 0001:00039760       ?size@?$RepeatedField@N@protobuf@google@@QEBAHXZ 000000014003a760 f i libprotobuf:repeated_field.obj
 0001:00039760       ?size@?$RepeatedField@_J@protobuf@google@@QEBAHXZ 000000014003a760 f i libprotobuf:repeated_field.obj
 0001:00039760       ?size@?$RepeatedField@_K@protobuf@google@@QEBAHXZ 000000014003a760 f i libprotobuf:repeated_field.obj
 0001:00039760       ?size@?$RepeatedField@_N@protobuf@google@@QEBAHXZ 000000014003a760 f i libprotobuf:repeated_field.obj
 0001:00039770       ?size@?$RepeatedPtrField@V?$basic_string@DU?$char_traits@D@std@@V?$allocator@D@2@@std@@@protobuf@google@@QEBAHXZ 000000014003a770 f i libprotobuf:repeated_field.obj
 0001:000397f0       ??$AddAllocatedSlowWithCopy@VTypeHandler@?$RepeatedPtrField@VMessage@protobuf@google@@@protobuf@google@@@RepeatedPtrFieldBase@internal@protobuf@google@@IEAAXPEAVMessage@23@PEAVArena@23@1@Z 000000014003a7f0 f i libprotobuf:message.obj
 0001:000398f0       ??$FindPtrOrNull@V?$unordered_map@PEBVDescriptor@protobuf@google@@PEBVMessage@23@U?$hash@PEBVDescriptor@protobuf@google@@@std@@U?$equal_to@PEBVDescriptor@protobuf@google@@@6@V?$allocator@U?$pair@QEBVDescriptor@protobuf@google@@PEBVMessage@23@@std@@@6@@std@@@protobuf@google@@YAPEBVMessage@01@AEAV?$unordered_map@PEBVDescriptor@protobuf@google@@PEBVMessage@23@U?$hash@PEBVDescriptor@protobuf@google@@@std@@U?$equal_to@PEBVDescriptor@protobuf@google@@@6@V?$allocator@U?$pair@QEBVDescriptor@protobuf@google@@PEBVMessage@23@@std@@@6@@std@@AEBQEBVDescriptor@01@@Z 000000014003a8f0 f i libprotobuf:message.obj
 0001:000399c0       ??$MergeFromInnerLoop@VTypeHandler@?$RepeatedPtrField@VMessage@protobuf@google@@@protobuf@google@@@RepeatedPtrFieldBase@internal@protobuf@google@@AEAAXPEAPEAX0HH@Z 000000014003a9c0 f i libprotobuf:message.obj
 0001:00039a50       ??$SwapFallback@VTypeHandler@?$RepeatedPtrField@VMessage@protobuf@google@@@protobuf@google@@@RepeatedPtrFieldBase@internal@protobuf@google@@IEAAXPEAV0123@@Z 000000014003aa50 f i libprotobuf:message.obj
 0001:00039bd0       ??$_Find_last@VStringPiece@stringpiece_internal@protobuf@google@@@?$_Hash@V?$_Umap_traits@VStringPiece@stringpiece_internal@protobuf@google@@PEBUDescriptorTable@internal@34@V?$_Uhash_compare@VStringPiece@stringpiece_internal@protobuf@google@@U?$hash@VStringPiece@stringpiece_internal@protobuf@google@@@34@U?$equal_to@VStringPiece@stringpiece_internal@protobuf@google@@@std@@@std@@V?$allocator@U?$pair@$$CBVStringPiece@stringpiece_internal@protobuf@google@@PEBUDescriptorTable@internal@34@@std@@@8@$0A@@std@@@std@@IEBA?AU?$_Hash_find_last_result@PEAU?$_List_node@U?$pair@$$CBVStringPiece@stringpiece_internal@protobuf@google@@PEBUDescriptorTable@internal@34@@std@@PEAX@std@@@1@AEBVStringPiece@stringpiece_internal@protobuf@google@@_K@Z 000000014003abd0 f i libprotobuf:message.obj
 0001:00039bd0       ??$_Find_last@VStringPiece@stringpiece_internal@protobuf@google@@@?$_Hash@V?$_Umap_traits@VStringPiece@stringpiece_internal@protobuf@google@@PEBVFileDescriptor@34@V?$_Uhash_compare@VStringPiece@stringpiece_internal@protobuf@google@@U?$hash@VStringPiece@stringpiece_internal@protobuf@google@@@34@U?$equal_to@VStringPiece@stringpiece_internal@protobuf@google@@@std@@@std@@V?$allocator@U?$pair@$$CBVStringPiece@stringpiece_internal@protobuf@google@@PEBVFileDescriptor@34@@std@@@7@$0A@@std@@@std@@IEBA?AU?$_Hash_find_last_result@PEAU?$_List_node@U?$pair@$$CBVStringPiece@stringpiece_internal@protobuf@google@@PEBVFileDescriptor@34@@std@@PEAX@std@@@1@AEBVStringPiece@stringpiece_internal@protobuf@google@@_K@Z 000000014003abd0 f i libprotobuf:descriptor.obj
 0001:00039cc0       ??$emplace@AEBU?$pair@$$CBVStringPiece@stringpiece_internal@protobuf@google@@PEBUDescriptorTable@internal@34@@std@@@?$_Hash@V?$_Umap_traits@VStringPiece@stringpiece_internal@protobuf@google@@PEBUDescriptorTable@internal@34@V?$_Uhash_compare@VStringPiece@stringpiece_internal@protobuf@google@@U?$hash@VStringPiece@stringpiece_internal@protobuf@google@@@34@U?$equal_to@VStringPiece@stringpiece_internal@protobuf@google@@@std@@@std@@V?$allocator@U?$pair@$$CBVStringPiece@stringpiece_internal@protobuf@google@@PEBUDescriptorTable@internal@34@@std@@@8@$0A@@std@@@std@@QEAA?AU?$pair@V?$_List_iterator@V?$_List_val@U?$_List_simple_types@U?$pair@$$CBVStringPiece@stringpiece_internal@protobuf@google@@PEBUDescriptorTable@internal@34@@std@@@std@@@std@@@std@@_N@1@AEBU?$pair@$$CBVStringPiece@stringpiece_internal@protobuf@google@@PEBUDescriptorTable@internal@34@@1@@Z 000000014003acc0 f i libprotobuf:message.obj
 0001:00039cc0       ??$emplace@AEBU?$pair@$$CBVStringPiece@stringpiece_internal@protobuf@google@@PEBVFileDescriptor@34@@std@@@?$_Hash@V?$_Umap_traits@VStringPiece@stringpiece_internal@protobuf@google@@PEBVFileDescriptor@34@V?$_Uhash_compare@VStringPiece@stringpiece_internal@protobuf@google@@U?$hash@VStringPiece@stringpiece_internal@protobuf@google@@@34@U?$equal_to@VStringPiece@stringpiece_internal@protobuf@google@@@std@@@std@@V?$allocator@U?$pair@$$CBVStringPiece@stringpiece_internal@protobuf@google@@PEBVFileDescriptor@34@@std@@@7@$0A@@std@@@std@@QEAA?AU?$pair@V?$_List_iterator@V?$_List_val@U?$_List_simple_types@U?$pair@$$CBVStringPiece@stringpiece_internal@protobuf@google@@PEBVFileDescriptor@34@@std@@@std@@@std@@@std@@_N@1@AEBU?$pair@$$CBVStringPiece@stringpiece_internal@protobuf@google@@PEBVFileDescriptor@34@@1@@Z 000000014003acc0 f i libprotobuf:descriptor.obj
 0001:00039f10       ??$emplace@AEBU?$pair@QEBVDescriptor@protobuf@google@@PEBVMessage@23@@std@@@?$_Hash@V?$_Umap_traits@PEBVDescriptor@protobuf@google@@PEBVMessage@23@V?$_Uhash_compare@PEBVDescriptor@protobuf@google@@U?$hash@PEBVDescriptor@protobuf@google@@@std@@U?$equal_to@PEBVDescriptor@protobuf@google@@@5@@std@@V?$allocator@U?$pair@QEBVDescriptor@protobuf@google@@PEBVMessage@23@@std@@@6@$0A@@std@@@std@@QEAA?AU?$pair@V?$_List_iterator@V?$_List_val@U?$_List_simple_types@U?$pair@QEBVDescriptor@protobuf@google@@PEBVMessage@23@@std@@@std@@@std@@@std@@_N@1@AEBU?$pair@QEBVDescriptor@protobuf@google@@PEBVMessage@23@@1@@Z 000000014003af10 f i libprotobuf:message.obj
 0001:0003a210       ??$fill@PEAV?$_List_unchecked_const_iterator@V?$_List_val@U?$_List_simple_types@PEBVDescriptor@protobuf@google@@@std@@@std@@U_Iterator_base0@2@@std@@V12@@std@@YAXQEAV?$_List_unchecked_const_iterator@V?$_List_val@U?$_List_simple_types@PEBVDescriptor@protobuf@google@@@std@@@std@@U_Iterator_base0@2@@0@0AEBV10@@Z 000000014003b210 f i libprotobuf:descriptor.obj
 0001:0003a210       ??$fill@PEAV?$_List_unchecked_const_iterator@V?$_List_val@U?$_List_simple_types@V?$basic_string@DU?$char_traits@D@std@@V?$allocator@D@2@@std@@@std@@@std@@U_Iterator_base0@2@@std@@V12@@std@@YAXQEAV?$_List_unchecked_const_iterator@V?$_List_val@U?$_List_simple_types@V?$basic_string@DU?$char_traits@D@std@@V?$allocator@D@2@@std@@@std@@@std@@U_Iterator_base0@2@@0@0AEBV10@@Z 000000014003b210 f i libprotobuf:descriptor.obj
 0001:0003a210       ??$fill@PEAV?$_List_unchecked_const_iterator@V?$_List_val@U?$_List_simple_types@VSymbol@protobuf@google@@@std@@@std@@U_Iterator_base0@2@@std@@V12@@std@@YAXQEAV?$_List_unchecked_const_iterator@V?$_List_val@U?$_List_simple_types@VSymbol@protobuf@google@@@std@@@std@@U_Iterator_base0@2@@0@0AEBV10@@Z 000000014003b210 f i libprotobuf:descriptor.obj
 0001:0003a210       ??$fill@PEAV?$_List_unchecked_iterator@V?$_List_val@U?$_List_simple_types@U?$pair@$$CBU?$pair@PEBXVStringPiece@stringpiece_internal@protobuf@google@@@std@@PEBVFieldDescriptor@protobuf@google@@@std@@@std@@@std@@@std@@V12@@std@@YAXQEAV?$_List_unchecked_iterator@V?$_List_val@U?$_List_simple_types@U?$pair@$$CBU?$pair@PEBXVStringPiece@stringpiece_internal@protobuf@google@@@std@@PEBVFieldDescriptor@protobuf@google@@@std@@@std@@@std@@@0@0AEBV10@@Z 000000014003b210 f i libprotobuf:descriptor.obj
 0001:0003a210       ??$fill@PEAV?$_List_unchecked_iterator@V?$_List_val@U?$_List_simple_types@U?$pair@$$CBV?$basic_string@DU?$char_traits@D@std@@V?$allocator@D@2@@std@@PEBVSourceCodeInfo_Location@protobuf@google@@@std@@@std@@@std@@@std@@V12@@std@@YAXQEAV?$_List_unchecked_iterator@V?$_List_val@U?$_List_simple_types@U?$pair@$$CBV?$basic_string@DU?$char_traits@D@std@@V?$allocator@D@2@@std@@PEBVSourceCodeInfo_Location@protobuf@google@@@std@@@std@@@std@@@0@0AEBV10@@Z 000000014003b210 f i libprotobuf:descriptor.obj
 0001:0003a210       ??$fill@PEAV?$_List_unchecked_iterator@V?$_List_val@U?$_List_simple_types@U?$pair@$$CBV?$basic_string@DU?$char_traits@D@std@@V?$allocator@D@2@@std@@W4WellKnownType@Descriptor@protobuf@google@@@std@@@std@@@std@@@std@@V12@@std@@YAXQEAV?$_List_unchecked_iterator@V?$_List_val@U?$_List_simple_types@U?$pair@$$CBV?$basic_string@DU?$char_traits@D@std@@V?$allocator@D@2@@std@@W4WellKnownType@Descriptor@protobuf@google@@@std@@@std@@@std@@@0@0AEBV10@@Z 000000014003b210 f i libprotobuf:descriptor.obj
 0001:0003a210       ??$fill@PEAV?$_List_unchecked_iterator@V?$_List_val@U?$_List_simple_types@U?$pair@$$CBVStringPiece@stringpiece_internal@protobuf@google@@PEBUDescriptorTable@internal@34@@std@@@std@@@std@@@std@@V12@@std@@YAXQEAV?$_List_unchecked_iterator@V?$_List_val@U?$_List_simple_types@U?$pair@$$CBVStringPiece@stringpiece_internal@protobuf@google@@PEBUDescriptorTable@internal@34@@std@@@std@@@std@@@0@0AEBV10@@Z 000000014003b210 f i libprotobuf:message.obj
 0001:0003a210       ??$fill@PEAV?$_List_unchecked_iterator@V?$_List_val@U?$_List_simple_types@U?$pair@$$CBVStringPiece@stringpiece_internal@protobuf@google@@PEBVFileDescriptor@34@@std@@@std@@@std@@@std@@V12@@std@@YAXQEAV?$_List_unchecked_iterator@V?$_List_val@U?$_List_simple_types@U?$pair@$$CBVStringPiece@stringpiece_internal@protobuf@google@@PEBVFileDescriptor@34@@std@@@std@@@std@@@0@0AEBV10@@Z 000000014003b210 f i libprotobuf:descriptor.obj
 0001:0003a210       ??$fill@PEAV?$_List_unchecked_iterator@V?$_List_val@U?$_List_simple_types@U?$pair@QEBVDescriptor@protobuf@google@@PEBUTypeInfo@DynamicMessageFactory@23@@std@@@std@@@std@@@std@@V12@@std@@YAXQEAV?$_List_unchecked_iterator@V?$_List_val@U?$_List_simple_types@U?$pair@QEBVDescriptor@protobuf@google@@PEBUTypeInfo@DynamicMessageFactory@23@@std@@@std@@@std@@@0@0AEBV10@@Z 000000014003b210 f i libprotobuf:dynamic_message.obj
 0001:0003a210       ??$fill@PEAV?$_List_unchecked_iterator@V?$_List_val@U?$_List_simple_types@U?$pair@QEBVDescriptor@protobuf@google@@PEBVMessage@23@@std@@@std@@@std@@@std@@V12@@std@@YAXQEAV?$_List_unchecked_iterator@V?$_List_val@U?$_List_simple_types@U?$pair@QEBVDescriptor@protobuf@google@@PEBVMessage@23@@std@@@std@@@std@@@0@0AEBV10@@Z 000000014003b210 f i libprotobuf:message.obj
 0001:0003a210       ??$fill@PEAV?$_List_unchecked_iterator@V?$_List_val@U?$_List_simple_types@U?$pair@QEBVDescriptor@protobuf@google@@UMessageHints@DescriptorBuilder@23@@std@@@std@@@std@@@std@@V12@@std@@YAXQEAV?$_List_unchecked_iterator@V?$_List_val@U?$_List_simple_types@U?$pair@QEBVDescriptor@protobuf@google@@UMessageHints@DescriptorBuilder@23@@std@@@std@@@std@@@0@0AEBV10@@Z 000000014003b210 f i libprotobuf:descriptor.obj
 0001:0003a2a0       ??0MutexLock@internal@protobuf@google@@QEAA@PEAVWrappedMutex@123@@Z 000000014003b2a0 f i libprotobuf:message.obj
 0001:0003a330       ??1?$_Alloc_construct_ptr@V?$allocator@U?$_List_node@U?$pair@$$CBVStringPiece@stringpiece_internal@protobuf@google@@PEBUDescriptorTable@internal@34@@std@@PEAX@std@@@std@@@std@@QEAA@XZ 000000014003b330 f i libprotobuf:message.obj
 0001:0003a330       ??1?$_Alloc_construct_ptr@V?$allocator@U?$_List_node@U?$pair@$$CBVStringPiece@stringpiece_internal@protobuf@google@@PEBVFileDescriptor@34@@std@@PEAX@std@@@std@@@std@@QEAA@XZ 000000014003b330 f i libprotobuf:descriptor.obj
 0001:0003a330       ??1?$_Alloc_construct_ptr@V?$allocator@U?$_Tree_node@PEBVDescriptor@protobuf@google@@PEAX@std@@@std@@@std@@QEAA@XZ 000000014003b330 f i libprotobuf:descriptor.obj
 0001:0003a330       ??1?$_Alloc_construct_ptr@V?$allocator@U?$_Tree_node@PEBVFileDescriptor@protobuf@google@@PEAX@std@@@std@@@std@@QEAA@XZ 000000014003b330 f i libprotobuf:descriptor.obj
 0001:0003a330       ??1?$_List_node_emplace_op2@V?$allocator@U?$_List_node@U?$pair@$$CBVStringPiece@stringpiece_internal@protobuf@google@@PEBUDescriptorTable@internal@34@@std@@PEAX@std@@@std@@@std@@QEAA@XZ 000000014003b330 f i libprotobuf:message.obj
 0001:0003a330       ??1?$_List_node_emplace_op2@V?$allocator@U?$_List_node@U?$pair@$$CBVStringPiece@stringpiece_internal@protobuf@google@@PEBVFileDescriptor@34@@std@@PEAX@std@@@std@@@std@@QEAA@XZ 000000014003b330 f i libprotobuf:descriptor.obj
 0001:0003a350       ??1?$_Hash@V?$_Umap_traits@PEBVDescriptor@protobuf@google@@PEBUTypeInfo@DynamicMessageFactory@23@V?$_Uhash_compare@PEBVDescriptor@protobuf@google@@U?$hash@PEBVDescriptor@protobuf@google@@@std@@U?$equal_to@PEBVDescriptor@protobuf@google@@@5@@std@@V?$allocator@U?$pair@QEBVDescriptor@protobuf@google@@PEBUTypeInfo@DynamicMessageFactory@23@@std@@@7@$0A@@std@@@std@@QEAA@XZ 000000014003b350 f i libprotobuf:dynamic_message.obj
 0001:0003a350       ??1?$_Hash@V?$_Umap_traits@PEBVDescriptor@protobuf@google@@PEBVMessage@23@V?$_Uhash_compare@PEBVDescriptor@protobuf@google@@U?$hash@PEBVDescriptor@protobuf@google@@@std@@U?$equal_to@PEBVDescriptor@protobuf@google@@@5@@std@@V?$allocator@U?$pair@QEBVDescriptor@protobuf@google@@PEBVMessage@23@@std@@@6@$0A@@std@@@std@@QEAA@XZ 000000014003b350 f i libprotobuf:message.obj
 0001:0003a400       ??1?$_Hash@V?$_Umap_traits@VStringPiece@stringpiece_internal@protobuf@google@@PEBUDescriptorTable@internal@34@V?$_Uhash_compare@VStringPiece@stringpiece_internal@protobuf@google@@U?$hash@VStringPiece@stringpiece_internal@protobuf@google@@@34@U?$equal_to@VStringPiece@stringpiece_internal@protobuf@google@@@std@@@std@@V?$allocator@U?$pair@$$CBVStringPiece@stringpiece_internal@protobuf@google@@PEBUDescriptorTable@internal@34@@std@@@8@$0A@@std@@@std@@QEAA@XZ 000000014003b400 f i libprotobuf:message.obj
 0001:0003a400       ??1?$_Hash@V?$_Umap_traits@VStringPiece@stringpiece_internal@protobuf@google@@PEBVFileDescriptor@34@V?$_Uhash_compare@VStringPiece@stringpiece_internal@protobuf@google@@U?$hash@VStringPiece@stringpiece_internal@protobuf@google@@@34@U?$equal_to@VStringPiece@stringpiece_internal@protobuf@google@@@std@@@std@@V?$allocator@U?$pair@$$CBVStringPiece@stringpiece_internal@protobuf@google@@PEBVFileDescriptor@34@@std@@@7@$0A@@std@@@std@@QEAA@XZ 000000014003b400 f i libprotobuf:descriptor.obj
 0001:0003a4b0       ??1?$_Hash_vec@V?$allocator@V?$_List_unchecked_const_iterator@V?$_List_val@U?$_List_simple_types@PEBVDescriptor@protobuf@google@@@std@@@std@@U_Iterator_base0@2@@std@@@std@@@std@@QEAA@XZ 000000014003b4b0 f i libprotobuf:descriptor.obj
 0001:0003a4b0       ??1?$_Hash_vec@V?$allocator@V?$_List_unchecked_const_iterator@V?$_List_val@U?$_List_simple_types@V?$basic_string@DU?$char_traits@D@std@@V?$allocator@D@2@@std@@@std@@@std@@U_Iterator_base0@2@@std@@@std@@@std@@QEAA@XZ 000000014003b4b0 f i libprotobuf:descriptor.obj
 0001:0003a4b0       ??1?$_Hash_vec@V?$allocator@V?$_List_unchecked_const_iterator@V?$_List_val@U?$_List_simple_types@VSymbol@protobuf@google@@@std@@@std@@U_Iterator_base0@2@@std@@@std@@@std@@QEAA@XZ 000000014003b4b0 f i libprotobuf:descriptor.obj
 0001:0003a4b0       ??1?$_Hash_vec@V?$allocator@V?$_List_unchecked_iterator@V?$_List_val@U?$_List_simple_types@U?$pair@$$CBU?$pair@PEBXVStringPiece@stringpiece_internal@protobuf@google@@@std@@PEBVFieldDescriptor@protobuf@google@@@std@@@std@@@std@@@std@@@std@@@std@@QEAA@XZ 000000014003b4b0 f i libprotobuf:descriptor.obj
 0001:0003a4b0       ??1?$_Hash_vec@V?$allocator@V?$_List_unchecked_iterator@V?$_List_val@U?$_List_simple_types@U?$pair@$$CBV?$basic_string@DU?$char_traits@D@std@@V?$allocator@D@2@@std@@PEBVSourceCodeInfo_Location@protobuf@google@@@std@@@std@@@std@@@std@@@std@@@std@@QEAA@XZ 000000014003b4b0 f i libprotobuf:descriptor.obj
 0001:0003a4b0       ??1?$_Hash_vec@V?$allocator@V?$_List_unchecked_iterator@V?$_List_val@U?$_List_simple_types@U?$pair@$$CBV?$basic_string@DU?$char_traits@D@std@@V?$allocator@D@2@@std@@W4WellKnownType@Descriptor@protobuf@google@@@std@@@std@@@std@@@std@@@std@@@std@@QEAA@XZ 000000014003b4b0 f i libprotobuf:descriptor.obj
 0001:0003a4b0       ??1?$_Hash_vec@V?$allocator@V?$_List_unchecked_iterator@V?$_List_val@U?$_List_simple_types@U?$pair@$$CBVStringPiece@stringpiece_internal@protobuf@google@@PEBUDescriptorTable@internal@34@@std@@@std@@@std@@@std@@@std@@@std@@QEAA@XZ 000000014003b4b0 f i libprotobuf:message.obj
 0001:0003a4b0       ??1?$_Hash_vec@V?$allocator@V?$_List_unchecked_iterator@V?$_List_val@U?$_List_simple_types@U?$pair@$$CBVStringPiece@stringpiece_internal@protobuf@google@@PEBVFileDescriptor@34@@std@@@std@@@std@@@std@@@std@@@std@@QEAA@XZ 000000014003b4b0 f i libprotobuf:descriptor.obj
 0001:0003a4b0       ??1?$_Hash_vec@V?$allocator@V?$_List_unchecked_iterator@V?$_List_val@U?$_List_simple_types@U?$pair@QEBVDescriptor@protobuf@google@@PEBUTypeInfo@DynamicMessageFactory@23@@std@@@std@@@std@@@std@@@std@@@std@@QEAA@XZ 000000014003b4b0 f i libprotobuf:dynamic_message.obj
 0001:0003a4b0       ??1?$_Hash_vec@V?$allocator@V?$_List_unchecked_iterator@V?$_List_val@U?$_List_simple_types@U?$pair@QEBVDescriptor@protobuf@google@@PEBVMessage@23@@std@@@std@@@std@@@std@@@std@@@std@@QEAA@XZ 000000014003b4b0 f i libprotobuf:message.obj
 0001:0003a4b0       ??1?$_Hash_vec@V?$allocator@V?$_List_unchecked_iterator@V?$_List_val@U?$_List_simple_types@U?$pair@QEBVDescriptor@protobuf@google@@UMessageHints@DescriptorBuilder@23@@std@@@std@@@std@@@std@@@std@@@std@@QEAA@XZ 000000014003b4b0 f i libprotobuf:descriptor.obj
 0001:0003a510       ??1?$list@U?$pair@$$CBVStringPiece@stringpiece_internal@protobuf@google@@PEBUDescriptorTable@internal@34@@std@@V?$allocator@U?$pair@$$CBVStringPiece@stringpiece_internal@protobuf@google@@PEBUDescriptorTable@internal@34@@std@@@2@@std@@QEAA@XZ 000000014003b510 f i libprotobuf:message.obj
 0001:0003a510       ??1?$list@U?$pair@$$CBVStringPiece@stringpiece_internal@protobuf@google@@PEBVFileDescriptor@34@@std@@V?$allocator@U?$pair@$$CBVStringPiece@stringpiece_internal@protobuf@google@@PEBVFileDescriptor@34@@std@@@2@@std@@QEAA@XZ 000000014003b510 f i libprotobuf:descriptor.obj
 0001:0003a570       ??1?$list@U?$pair@QEBVDescriptor@protobuf@google@@PEBUTypeInfo@DynamicMessageFactory@23@@std@@V?$allocator@U?$pair@QEBVDescriptor@protobuf@google@@PEBUTypeInfo@DynamicMessageFactory@23@@std@@@2@@std@@QEAA@XZ 000000014003b570 f i libprotobuf:dynamic_message.obj
 0001:0003a570       ??1?$list@U?$pair@QEBVDescriptor@protobuf@google@@PEBVMessage@23@@std@@V?$allocator@U?$pair@QEBVDescriptor@protobuf@google@@PEBVMessage@23@@std@@@2@@std@@QEAA@XZ 000000014003b570 f i libprotobuf:message.obj
 0001:0003a5d0       ??1?$unordered_map@VStringPiece@stringpiece_internal@protobuf@google@@PEBUDescriptorTable@internal@34@U?$hash@VStringPiece@stringpiece_internal@protobuf@google@@@34@U?$equal_to@VStringPiece@stringpiece_internal@protobuf@google@@@std@@V?$allocator@U?$pair@$$CBVStringPiece@stringpiece_internal@protobuf@google@@PEBUDescriptorTable@internal@34@@std@@@9@@std@@QEAA@XZ 000000014003b5d0 f i libprotobuf:message.obj
 0001:0003a5d0       ??1?$unordered_map@VStringPiece@stringpiece_internal@protobuf@google@@PEBVFileDescriptor@34@U?$hash@VStringPiece@stringpiece_internal@protobuf@google@@@34@U?$equal_to@VStringPiece@stringpiece_internal@protobuf@google@@@std@@V?$allocator@U?$pair@$$CBVStringPiece@stringpiece_internal@protobuf@google@@PEBVFileDescriptor@34@@std@@@8@@std@@QEAA@XZ 000000014003b5d0 f i libprotobuf:descriptor.obj
 0001:0003a5e0       ??1?$vector@V?$basic_string@DU?$char_traits@D@std@@V?$allocator@D@2@@std@@V?$allocator@V?$basic_string@DU?$char_traits@D@std@@V?$allocator@D@2@@std@@@2@@std@@QEAA@XZ 000000014003b5e0 f i libprotobuf:message.obj
 0001:0003a6c0       ??1MessageFactory@protobuf@google@@UEAA@XZ 000000014003b6c0 f   libprotobuf:message.obj
 0001:0003a6d0       ??1WrappedMutex@internal@protobuf@google@@QEAA@XZ 000000014003b6d0 f i libprotobuf:message.obj
 0001:0003a740       ??_EMapFieldAccessor@internal@protobuf@google@@UEAAPEAXI@Z 000000014003b740 f i libprotobuf:message.obj
 0001:0003a740       ??_GMapFieldAccessor@internal@protobuf@google@@UEAAPEAXI@Z 000000014003b740 f i libprotobuf:message.obj
 0001:0003a770       ??_EMessageFactory@protobuf@google@@UEAAPEAXI@Z 000000014003b770 f i libprotobuf:message.obj
 0001:0003a770       ??_GMessageFactory@protobuf@google@@UEAAPEAXI@Z 000000014003b770 f i libprotobuf:message.obj
 0001:0003a7a0       ?Add@?$RepeatedFieldWrapper@H@internal@protobuf@google@@UEBAXPEAXPEBX@Z 000000014003b7a0 f i libprotobuf:message.obj
 0001:0003a7a0       ?Add@?$RepeatedFieldWrapper@I@internal@protobuf@google@@UEBAXPEAXPEBX@Z 000000014003b7a0 f i libprotobuf:message.obj
 0001:0003a7d0       ?Add@?$RepeatedFieldWrapper@M@internal@protobuf@google@@UEBAXPEAXPEBX@Z 000000014003b7d0 f i libprotobuf:message.obj
 0001:0003a800       ?Add@?$RepeatedFieldWrapper@N@internal@protobuf@google@@UEBAXPEAXPEBX@Z 000000014003b800 f i libprotobuf:message.obj
 0001:0003a830       ?Add@?$RepeatedFieldWrapper@_J@internal@protobuf@google@@UEBAXPEAXPEBX@Z 000000014003b830 f i libprotobuf:message.obj
 0001:0003a830       ?Add@?$RepeatedFieldWrapper@_K@internal@protobuf@google@@UEBAXPEAXPEBX@Z 000000014003b830 f i libprotobuf:message.obj
 0001:0003a860       ?Add@?$RepeatedFieldWrapper@_N@internal@protobuf@google@@UEBAXPEAXPEBX@Z 000000014003b860 f i libprotobuf:message.obj
 0001:0003a890       ?Add@?$RepeatedPtrFieldWrapper@V?$basic_string@DU?$char_traits@D@std@@V?$allocator@D@2@@std@@@internal@protobuf@google@@UEBAXPEAXPEBX@Z 000000014003b890 f i libprotobuf:message.obj
 0001:0003a8f0       ?Add@?$RepeatedPtrFieldWrapper@VMessage@protobuf@google@@@internal@protobuf@google@@UEBAXPEAXPEBX@Z 000000014003b8f0 f i libprotobuf:message.obj
 0001:0003a950       ?Add@MapFieldAccessor@internal@protobuf@google@@UEBAXPEAXPEBX@Z 000000014003b950 f i libprotobuf:message.obj
 0001:0003a9a0       ?AddAllocated@?$RepeatedPtrField@VMessage@protobuf@google@@@protobuf@google@@QEAAXPEAVMessage@23@@Z 000000014003b9a0 f i libprotobuf:message.obj
 0001:0003aa20       ?AdvanceIterator@RandomAccessRepeatedFieldAccessor@internal@protobuf@google@@UEBAPEAXPEBXPEAX@Z 000000014003ba20 f i libprotobuf:message.obj
 0001:0003aa30       ?ByteSizeLong@Message@protobuf@google@@UEBA_KXZ 000000014003ba30 f   libprotobuf:message.obj
 0001:0003aa60       ?CheckTypeAndMergeFrom@Message@protobuf@google@@UEAAXAEBVMessageLite@23@@Z 000000014003ba60 f   libprotobuf:message.obj
 0001:0003aa70       ?Clear@?$RepeatedFieldWrapper@H@internal@protobuf@google@@UEBAXPEAX@Z 000000014003ba70 f i libprotobuf:message.obj
 0001:0003aa70       ?Clear@?$RepeatedFieldWrapper@I@internal@protobuf@google@@UEBAXPEAX@Z 000000014003ba70 f i libprotobuf:message.obj
 0001:0003aa70       ?Clear@?$RepeatedFieldWrapper@M@internal@protobuf@google@@UEBAXPEAX@Z 000000014003ba70 f i libprotobuf:message.obj
 0001:0003aa70       ?Clear@?$RepeatedFieldWrapper@N@internal@protobuf@google@@UEBAXPEAX@Z 000000014003ba70 f i libprotobuf:message.obj
 0001:0003aa70       ?Clear@?$RepeatedFieldWrapper@_J@internal@protobuf@google@@UEBAXPEAX@Z 000000014003ba70 f i libprotobuf:message.obj
 0001:0003aa70       ?Clear@?$RepeatedFieldWrapper@_K@internal@protobuf@google@@UEBAXPEAX@Z 000000014003ba70 f i libprotobuf:message.obj
 0001:0003aa70       ?Clear@?$RepeatedFieldWrapper@_N@internal@protobuf@google@@UEBAXPEAX@Z 000000014003ba70 f i libprotobuf:message.obj
 0001:0003aa80       ?Clear@?$RepeatedPtrFieldWrapper@V?$basic_string@DU?$char_traits@D@std@@V?$allocator@D@2@@std@@@internal@protobuf@google@@UEBAXPEAX@Z 000000014003ba80 f i libprotobuf:message.obj
 0001:0003aa90       ?Clear@?$RepeatedPtrFieldWrapper@VMessage@protobuf@google@@@internal@protobuf@google@@UEBAXPEAX@Z 000000014003ba90 f i libprotobuf:message.obj
 0001:0003aaa0       ?Clear@MapFieldAccessor@internal@protobuf@google@@UEBAXPEAX@Z 000000014003baa0 f i libprotobuf:message.obj
 0001:0003aac0       ?Clear@Message@protobuf@google@@UEAAXXZ 000000014003bac0 f   libprotobuf:message.obj
 0001:0003aad0       ?ConvertFromEntry@MapFieldAccessor@internal@protobuf@google@@MEBAPEBXAEBVMessage@34@PEAX@Z 000000014003bad0 f i libprotobuf:message.obj
 0001:0003aad0       ?ConvertFromT@?$RepeatedFieldPrimitiveAccessor@H@internal@protobuf@google@@MEBAPEBXAEBHPEAX@Z 000000014003bad0 f i libprotobuf:message.obj
 0001:0003aad0       ?ConvertFromT@?$RepeatedFieldPrimitiveAccessor@I@internal@protobuf@google@@MEBAPEBXAEBIPEAX@Z 000000014003bad0 f i libprotobuf:message.obj
 0001:0003aad0       ?ConvertFromT@?$RepeatedFieldPrimitiveAccessor@M@internal@protobuf@google@@MEBAPEBXAEBMPEAX@Z 000000014003bad0 f i libprotobuf:message.obj
 0001:0003aad0       ?ConvertFromT@?$RepeatedFieldPrimitiveAccessor@N@internal@protobuf@google@@MEBAPEBXAEBNPEAX@Z 000000014003bad0 f i libprotobuf:message.obj
 0001:0003aad0       ?ConvertFromT@?$RepeatedFieldPrimitiveAccessor@_J@internal@protobuf@google@@MEBAPEBXAEB_JPEAX@Z 000000014003bad0 f i libprotobuf:message.obj
 0001:0003aad0       ?ConvertFromT@?$RepeatedFieldPrimitiveAccessor@_K@internal@protobuf@google@@MEBAPEBXAEB_KPEAX@Z 000000014003bad0 f i libprotobuf:message.obj
 0001:0003aad0       ?ConvertFromT@?$RepeatedFieldPrimitiveAccessor@_N@internal@protobuf@google@@MEBAPEBXAEB_NPEAX@Z 000000014003bad0 f i libprotobuf:message.obj
 0001:0003aad0       ?ConvertFromT@RepeatedPtrFieldMessageAccessor@internal@protobuf@google@@MEBAPEBXAEBVMessage@34@PEAX@Z 000000014003bad0 f i libprotobuf:message.obj
 0001:0003aad0       ?ConvertFromT@RepeatedPtrFieldStringAccessor@internal@protobuf@google@@MEBAPEBXAEBV?$basic_string@DU?$char_traits@D@std@@V?$allocator@D@2@@std@@PEAX@Z 000000014003bad0 f i libprotobuf:message.obj
 0001:0003aae0       ?ConvertToEntry@MapFieldAccessor@internal@protobuf@google@@MEBAXPEBXPEAVMessage@34@@Z 000000014003bae0 f i libprotobuf:message.obj
 0001:0003aae0       ?ConvertToT@RepeatedPtrFieldMessageAccessor@internal@protobuf@google@@MEBAXPEBXPEAVMessage@34@@Z 000000014003bae0 f i libprotobuf:message.obj
 0001:0003aaf0       ?ConvertToT@?$RepeatedFieldPrimitiveAccessor@H@internal@protobuf@google@@MEBAHPEBX@Z 000000014003baf0 f i libprotobuf:message.obj
 0001:0003aaf0       ?ConvertToT@?$RepeatedFieldPrimitiveAccessor@I@internal@protobuf@google@@MEBAIPEBX@Z 000000014003baf0 f i libprotobuf:message.obj
 0001:0003ab00       ?ConvertToT@?$RepeatedFieldPrimitiveAccessor@M@internal@protobuf@google@@MEBAMPEBX@Z 000000014003bb00 f i libprotobuf:message.obj
 0001:0003ab10       ?ConvertToT@?$RepeatedFieldPrimitiveAccessor@N@internal@protobuf@google@@MEBANPEBX@Z 000000014003bb10 f i libprotobuf:message.obj
 0001:0003ab20       ?ConvertToT@?$RepeatedFieldPrimitiveAccessor@_J@internal@protobuf@google@@MEBA_JPEBX@Z 000000014003bb20 f i libprotobuf:message.obj
 0001:0003ab20       ?ConvertToT@?$RepeatedFieldPrimitiveAccessor@_K@internal@protobuf@google@@MEBA_KPEBX@Z 000000014003bb20 f i libprotobuf:message.obj
 0001:0003ab30       ?ConvertToT@?$RepeatedFieldPrimitiveAccessor@_N@internal@protobuf@google@@MEBA_NPEBX@Z 000000014003bb30 f i libprotobuf:message.obj
 0001:0003ab40       ?ConvertToT@RepeatedPtrFieldStringAccessor@internal@protobuf@google@@MEBAXPEBXPEAV?$basic_string@DU?$char_traits@D@std@@V?$allocator@D@2@@std@@@Z 000000014003bb40 f i libprotobuf:message.obj
 0001:0003ab70       ?CopyFrom@Message@protobuf@google@@QEAAXAEBV123@@Z 000000014003bb70 f   libprotobuf:message.obj
 0001:0003acf0       ?CopyIterator@RandomAccessRepeatedFieldAccessor@internal@protobuf@google@@UEBAPEAXPEBX0@Z 000000014003bcf0 f i libprotobuf:message.obj
 0001:0003ad00       ?CopyWithSourceCheck@Message@protobuf@google@@KAXAEAV123@AEBV123@@Z 000000014003bd00 f   libprotobuf:message.obj
 0001:0003ad40       ??1Parser@TextFormat@protobuf@google@@QEAA@XZ 000000014003bd40 f i libprotobuf:text_format.obj
 0001:0003ad40       ?AddWarning@ErrorCollector@io@protobuf@google@@UEAAXHHAEBV?$basic_string@DU?$char_traits@D@std@@V?$allocator@D@2@@std@@@Z 000000014003bd40 f i libprotobuf:descriptor.obj
 0001:0003ad40       ?DeleteIterator@RandomAccessRepeatedFieldAccessor@internal@protobuf@google@@UEBAXPEBXPEAX@Z 000000014003bd40 f i libprotobuf:message.obj
 0001:0003ad40       ?Indent@BaseTextGenerator@TextFormat@protobuf@google@@UEAAXXZ 000000014003bd40 f i libprotobuf:text_format.obj
 0001:0003ad40       ?Outdent@BaseTextGenerator@TextFormat@protobuf@google@@UEAAXXZ 000000014003bd40 f i libprotobuf:text_format.obj
 0001:0003ad40       ?SyncMapWithRepeatedFieldNoLock@MapFieldBase@internal@protobuf@google@@MEBAXXZ 000000014003bd40 f i libprotobuf:map_field.obj
 0001:0003ad50       ?EndIterator@RandomAccessRepeatedFieldAccessor@internal@protobuf@google@@UEBAPEAXPEBX@Z 000000014003bd50 f i libprotobuf:message.obj
 0001:0003ad70       ?EqualsIterator@RandomAccessRepeatedFieldAccessor@internal@protobuf@google@@UEBA_NPEBX00@Z 000000014003bd70 f i libprotobuf:message.obj
 0001:0003ad80       ?FindInitializationErrors@Message@protobuf@google@@QEBAXPEAV?$vector@V?$basic_string@DU?$char_traits@D@std@@V?$allocator@D@2@@std@@V?$allocator@V?$basic_string@DU?$char_traits@D@std@@V?$allocator@D@2@@std@@@2@@std@@@Z 000000014003bd80 f   libprotobuf:message.obj
 0001:0003ae10       ?Get@?$RepeatedFieldWrapper@H@internal@protobuf@google@@UEBAPEBXPEBXHPEAX@Z 000000014003be10 f i libprotobuf:message.obj
 0001:0003ae10       ?Get@?$RepeatedFieldWrapper@I@internal@protobuf@google@@UEBAPEBXPEBXHPEAX@Z 000000014003be10 f i libprotobuf:message.obj
 0001:0003ae10       ?Get@?$RepeatedFieldWrapper@M@internal@protobuf@google@@UEBAPEBXPEBXHPEAX@Z 000000014003be10 f i libprotobuf:message.obj
 0001:0003ae60       ?Get@?$RepeatedFieldWrapper@N@internal@protobuf@google@@UEBAPEBXPEBXHPEAX@Z 000000014003be60 f i libprotobuf:message.obj
 0001:0003ae60       ?Get@?$RepeatedFieldWrapper@_J@internal@protobuf@google@@UEBAPEBXPEBXHPEAX@Z 000000014003be60 f i libprotobuf:message.obj
 0001:0003ae60       ?Get@?$RepeatedFieldWrapper@_K@internal@protobuf@google@@UEBAPEBXPEBXHPEAX@Z 000000014003be60 f i libprotobuf:message.obj
 0001:0003aeb0       ?Get@?$RepeatedFieldWrapper@_N@internal@protobuf@google@@UEBAPEBXPEBXHPEAX@Z 000000014003beb0 f i libprotobuf:message.obj
 0001:0003af00       ?Get@?$RepeatedPtrFieldWrapper@V?$basic_string@DU?$char_traits@D@std@@V?$allocator@D@2@@std@@@internal@protobuf@google@@UEBAPEBXPEBXHPEAX@Z 000000014003bf00 f i libprotobuf:message.obj
 0001:0003af50       ?Get@?$RepeatedPtrFieldWrapper@VMessage@protobuf@google@@@internal@protobuf@google@@UEBAPEBXPEBXHPEAX@Z 000000014003bf50 f i libprotobuf:message.obj
 0001:0003af80       ?Get@MapFieldAccessor@internal@protobuf@google@@UEBAPEBXPEBXHPEAX@Z 000000014003bf80 f i libprotobuf:message.obj
 0001:0003afa0       ?GetIteratorValue@RandomAccessRepeatedFieldAccessor@internal@protobuf@google@@UEBAPEBXPEBX0PEAX@Z 000000014003bfa0 f i libprotobuf:message.obj
 0001:0003afa0       ?NewFromPrototype@?$GenericTypeHandler@VMessage@protobuf@google@@@internal@protobuf@google@@SAPEAVMessage@34@PEBV534@PEAVArena@34@@Z 000000014003bfa0 f i libprotobuf:message.obj
 0001:0003afb0       ?GetOwningArena@?$GenericTypeHandler@VMessage@protobuf@google@@@internal@protobuf@google@@SAPEAVArena@34@PEAVMessage@34@@Z 000000014003bfb0 f i libprotobuf:message.obj
 0001:0003b3a0       ?GetTypeName@Message@protobuf@google@@UEBA?AV?$basic_string@DU?$char_traits@D@std@@V?$allocator@D@2@@std@@XZ 000000014003c3a0 f   libprotobuf:message.obj
 0001:0003b3d0       ?InitializationErrorString@Message@protobuf@google@@UEBA?AV?$basic_string@DU?$char_traits@D@std@@V?$allocator@D@2@@std@@XZ 000000014003c3d0 f   libprotobuf:message.obj
 0001:0003b610       ?InternalRegisterGeneratedFile@MessageFactory@protobuf@google@@SAXPEBUDescriptorTable@internal@23@@Z 000000014003c610 f   libprotobuf:message.obj
 0001:0003b6f0       ?InternalRegisterGeneratedMessage@MessageFactory@protobuf@google@@SAXPEBVDescriptor@23@PEBVMessage@23@@Z 000000014003c6f0 f   libprotobuf:message.obj
 0001:0003b7c0       ?IsEmpty@?$RepeatedFieldWrapper@H@internal@protobuf@google@@UEBA_NPEBX@Z 000000014003c7c0 f i libprotobuf:message.obj
 0001:0003b7c0       ?IsEmpty@?$RepeatedFieldWrapper@I@internal@protobuf@google@@UEBA_NPEBX@Z 000000014003c7c0 f i libprotobuf:message.obj
 0001:0003b7c0       ?IsEmpty@?$RepeatedFieldWrapper@M@internal@protobuf@google@@UEBA_NPEBX@Z 000000014003c7c0 f i libprotobuf:message.obj
 0001:0003b7c0       ?IsEmpty@?$RepeatedFieldWrapper@N@internal@protobuf@google@@UEBA_NPEBX@Z 000000014003c7c0 f i libprotobuf:message.obj
 0001:0003b7c0       ?IsEmpty@?$RepeatedFieldWrapper@_J@internal@protobuf@google@@UEBA_NPEBX@Z 000000014003c7c0 f i libprotobuf:message.obj
 0001:0003b7c0       ?IsEmpty@?$RepeatedFieldWrapper@_K@internal@protobuf@google@@UEBA_NPEBX@Z 000000014003c7c0 f i libprotobuf:message.obj
 0001:0003b7c0       ?IsEmpty@?$RepeatedFieldWrapper@_N@internal@protobuf@google@@UEBA_NPEBX@Z 000000014003c7c0 f i libprotobuf:message.obj
 0001:0003b7d0       ?IsEmpty@?$RepeatedPtrFieldWrapper@V?$basic_string@DU?$char_traits@D@std@@V?$allocator@D@2@@std@@@internal@protobuf@google@@UEBA_NPEBX@Z 000000014003c7d0 f i libprotobuf:message.obj
 0001:0003b7e0       ?IsEmpty@?$RepeatedPtrFieldWrapper@VMessage@protobuf@google@@@internal@protobuf@google@@UEBA_NPEBX@Z 000000014003c7e0 f i libprotobuf:message.obj
 0001:0003b7f0       ?IsEmpty@MapFieldAccessor@internal@protobuf@google@@UEBA_NPEBX@Z 000000014003c7f0 f i libprotobuf:message.obj
 0001:0003b810       ?IsInitialized@Message@protobuf@google@@UEBA_NXZ 000000014003c810 f   libprotobuf:message.obj
 0001:0003b820       ?MaybeComputeUnknownFieldsSize@Message@protobuf@google@@IEBA_K_KPEAVCachedSize@internal@23@@Z 000000014003c820 f   libprotobuf:message.obj
 0001:0003b870       ?MergeFrom@Message@protobuf@google@@UEAAXAEBV123@@Z 000000014003c870 f   libprotobuf:message.obj
 0001:0003b8f0       ?New@MapFieldAccessor@internal@protobuf@google@@MEBAPEAVMessage@34@PEBX@Z 000000014003c8f0 f i libprotobuf:message.obj
 0001:0003b8f0       ?New@RepeatedPtrFieldMessageAccessor@internal@protobuf@google@@MEBAPEAVMessage@34@PEBX@Z 000000014003c8f0 f i libprotobuf:message.obj
 0001:0003b900       ?New@RepeatedPtrFieldStringAccessor@internal@protobuf@google@@MEBAPEAV?$basic_string@DU?$char_traits@D@std@@V?$allocator@D@2@@std@@PEBX@Z 000000014003c900 f i libprotobuf:message.obj
 0001:0003b940       ?RemoveLast@?$RepeatedFieldWrapper@H@internal@protobuf@google@@UEBAXPEAX@Z 000000014003c940 f i libprotobuf:message.obj
 0001:0003b940       ?RemoveLast@?$RepeatedFieldWrapper@I@internal@protobuf@google@@UEBAXPEAX@Z 000000014003c940 f i libprotobuf:message.obj
 0001:0003b940       ?RemoveLast@?$RepeatedFieldWrapper@M@internal@protobuf@google@@UEBAXPEAX@Z 000000014003c940 f i libprotobuf:message.obj
 0001:0003b940       ?RemoveLast@?$RepeatedFieldWrapper@N@internal@protobuf@google@@UEBAXPEAX@Z 000000014003c940 f i libprotobuf:message.obj
 0001:0003b940       ?RemoveLast@?$RepeatedFieldWrapper@_J@internal@protobuf@google@@UEBAXPEAX@Z 000000014003c940 f i libprotobuf:message.obj
 0001:0003b940       ?RemoveLast@?$RepeatedFieldWrapper@_K@internal@protobuf@google@@UEBAXPEAX@Z 000000014003c940 f i libprotobuf:message.obj
 0001:0003b940       ?RemoveLast@?$RepeatedFieldWrapper@_N@internal@protobuf@google@@UEBAXPEAX@Z 000000014003c940 f i libprotobuf:message.obj
 0001:0003b950       ?RemoveLast@?$RepeatedPtrFieldWrapper@V?$basic_string@DU?$char_traits@D@std@@V?$allocator@D@2@@std@@@internal@protobuf@google@@UEBAXPEAX@Z 000000014003c950 f i libprotobuf:message.obj
 0001:0003b960       ?RemoveLast@?$RepeatedPtrFieldWrapper@VMessage@protobuf@google@@@internal@protobuf@google@@UEBAXPEAX@Z 000000014003c960 f i libprotobuf:message.obj
 0001:0003b980       ?RemoveLast@MapFieldAccessor@internal@protobuf@google@@UEBAXPEAX@Z 000000014003c980 f i libprotobuf:message.obj
 0001:0003b9b0       ?RepeatedFieldAccessor@Reflection@protobuf@google@@AEBAPEBV0internal@23@PEBVFieldDescriptor@23@@Z 000000014003c9b0 f   libprotobuf:message.obj
 0001:0003bbe0       ?Set@?$RepeatedFieldWrapper@H@internal@protobuf@google@@UEBAXPEAXHPEBX@Z 000000014003cbe0 f i libprotobuf:message.obj
 0001:0003bbe0       ?Set@?$RepeatedFieldWrapper@I@internal@protobuf@google@@UEBAXPEAXHPEBX@Z 000000014003cbe0 f i libprotobuf:message.obj
 0001:0003bc20       ?Set@?$RepeatedFieldWrapper@M@internal@protobuf@google@@UEBAXPEAXHPEBX@Z 000000014003cc20 f i libprotobuf:message.obj
 0001:0003bc60       ?Set@?$RepeatedFieldWrapper@N@internal@protobuf@google@@UEBAXPEAXHPEBX@Z 000000014003cc60 f i libprotobuf:message.obj
 0001:0003bca0       ?Set@?$RepeatedFieldWrapper@_J@internal@protobuf@google@@UEBAXPEAXHPEBX@Z 000000014003cca0 f i libprotobuf:message.obj
 0001:0003bca0       ?Set@?$RepeatedFieldWrapper@_K@internal@protobuf@google@@UEBAXPEAXHPEBX@Z 000000014003cca0 f i libprotobuf:message.obj
 0001:0003bce0       ?Set@?$RepeatedFieldWrapper@_N@internal@protobuf@google@@UEBAXPEAXHPEBX@Z 000000014003cce0 f i libprotobuf:message.obj
 0001:0003bd20       ?Set@?$RepeatedPtrFieldWrapper@V?$basic_string@DU?$char_traits@D@std@@V?$allocator@D@2@@std@@@internal@protobuf@google@@UEBAXPEAXHPEBX@Z 000000014003cd20 f i libprotobuf:message.obj
 0001:0003bd70       ?Set@?$RepeatedPtrFieldWrapper@VMessage@protobuf@google@@@internal@protobuf@google@@UEBAXPEAXHPEBX@Z 000000014003cd70 f i libprotobuf:message.obj
 0001:0003bda0       ?Set@MapFieldAccessor@internal@protobuf@google@@UEBAXPEAXHPEBX@Z 000000014003cda0 f i libprotobuf:message.obj
 0001:0003bde0       ?Size@?$RepeatedFieldWrapper@H@internal@protobuf@google@@UEBAHPEBX@Z 000000014003cde0 f i libprotobuf:message.obj
 0001:0003bde0       ?Size@?$RepeatedFieldWrapper@I@internal@protobuf@google@@UEBAHPEBX@Z 000000014003cde0 f i libprotobuf:message.obj
 0001:0003bde0       ?Size@?$RepeatedFieldWrapper@M@internal@protobuf@google@@UEBAHPEBX@Z 000000014003cde0 f i libprotobuf:message.obj
 0001:0003bde0       ?Size@?$RepeatedFieldWrapper@N@internal@protobuf@google@@UEBAHPEBX@Z 000000014003cde0 f i libprotobuf:message.obj
 0001:0003bde0       ?Size@?$RepeatedFieldWrapper@_J@internal@protobuf@google@@UEBAHPEBX@Z 000000014003cde0 f i libprotobuf:message.obj
 0001:0003bde0       ?Size@?$RepeatedFieldWrapper@_K@internal@protobuf@google@@UEBAHPEBX@Z 000000014003cde0 f i libprotobuf:message.obj
 0001:0003bde0       ?Size@?$RepeatedFieldWrapper@_N@internal@protobuf@google@@UEBAHPEBX@Z 000000014003cde0 f i libprotobuf:message.obj
 0001:0003bdf0       ?Size@?$RepeatedPtrFieldWrapper@V?$basic_string@DU?$char_traits@D@std@@V?$allocator@D@2@@std@@@internal@protobuf@google@@UEBAHPEBX@Z 000000014003cdf0 f i libprotobuf:message.obj
 0001:0003be00       ?Size@?$RepeatedPtrFieldWrapper@VMessage@protobuf@google@@@internal@protobuf@google@@UEBAHPEBX@Z 000000014003ce00 f i libprotobuf:message.obj
 0001:0003be10       ?Size@MapFieldAccessor@internal@protobuf@google@@UEBAHPEBX@Z 000000014003ce10 f i libprotobuf:message.obj
 0001:0003be30       ?SpaceUsedLong@Message@protobuf@google@@UEBA_KXZ 000000014003ce30 f   libprotobuf:message.obj
 0001:0003be60       ?Swap@?$RepeatedFieldPrimitiveAccessor@H@internal@protobuf@google@@UEBAXPEAXPEBVRepeatedFieldAccessor@234@0@Z 000000014003ce60 f i libprotobuf:message.obj
 0001:0003be60       ?Swap@?$RepeatedFieldPrimitiveAccessor@I@internal@protobuf@google@@UEBAXPEAXPEBVRepeatedFieldAccessor@234@0@Z 000000014003ce60 f i libprotobuf:message.obj
 0001:0003be60       ?Swap@?$RepeatedFieldPrimitiveAccessor@M@internal@protobuf@google@@UEBAXPEAXPEBVRepeatedFieldAccessor@234@0@Z 000000014003ce60 f i libprotobuf:message.obj
 0001:0003bf10       ?Swap@?$RepeatedFieldPrimitiveAccessor@N@internal@protobuf@google@@UEBAXPEAXPEBVRepeatedFieldAccessor@234@0@Z 000000014003cf10 f i libprotobuf:message.obj
 0001:0003bf10       ?Swap@?$RepeatedFieldPrimitiveAccessor@_J@internal@protobuf@google@@UEBAXPEAXPEBVRepeatedFieldAccessor@234@0@Z 000000014003cf10 f i libprotobuf:message.obj
 0001:0003bf10       ?Swap@?$RepeatedFieldPrimitiveAccessor@_K@internal@protobuf@google@@UEBAXPEAXPEBVRepeatedFieldAccessor@234@0@Z 000000014003cf10 f i libprotobuf:message.obj
 0001:0003bfc0       ?Swap@?$RepeatedFieldPrimitiveAccessor@_N@internal@protobuf@google@@UEBAXPEAXPEBVRepeatedFieldAccessor@234@0@Z 000000014003cfc0 f i libprotobuf:message.obj
 0001:0003c070       ?Swap@?$RepeatedPtrField@VMessage@protobuf@google@@@protobuf@google@@QEAAXPEAV123@@Z 000000014003d070 f i libprotobuf:message.obj
 0001:0003c0f0       ?Swap@MapFieldAccessor@internal@protobuf@google@@UEBAXPEAXPEBVRepeatedFieldAccessor@234@0@Z 000000014003d0f0 f i libprotobuf:message.obj
 0001:0003c1b0       ?Swap@RepeatedPtrFieldMessageAccessor@internal@protobuf@google@@UEBAXPEAXPEBVRepeatedFieldAccessor@234@0@Z 000000014003d1b0 f i libprotobuf:message.obj
 0001:0003c260       ?Swap@RepeatedPtrFieldStringAccessor@internal@protobuf@google@@UEBAXPEAXPEBVRepeatedFieldAccessor@234@0@Z 000000014003d260 f i libprotobuf:message.obj
 0001:0003c4d0       ?SwapElements@?$RepeatedFieldWrapper@H@internal@protobuf@google@@UEBAXPEAXHH@Z 000000014003d4d0 f i libprotobuf:message.obj
 0001:0003c4d0       ?SwapElements@?$RepeatedFieldWrapper@I@internal@protobuf@google@@UEBAXPEAXHH@Z 000000014003d4d0 f i libprotobuf:message.obj
 0001:0003c4e0       ?SwapElements@?$RepeatedFieldWrapper@M@internal@protobuf@google@@UEBAXPEAXHH@Z 000000014003d4e0 f i libprotobuf:message.obj
 0001:0003c4f0       ?SwapElements@?$RepeatedFieldWrapper@N@internal@protobuf@google@@UEBAXPEAXHH@Z 000000014003d4f0 f i libprotobuf:message.obj
 0001:0003c500       ?SwapElements@?$RepeatedFieldWrapper@_J@internal@protobuf@google@@UEBAXPEAXHH@Z 000000014003d500 f i libprotobuf:message.obj
 0001:0003c500       ?SwapElements@?$RepeatedFieldWrapper@_K@internal@protobuf@google@@UEBAXPEAXHH@Z 000000014003d500 f i libprotobuf:message.obj
 0001:0003c510       ?SwapElements@?$RepeatedFieldWrapper@_N@internal@protobuf@google@@UEBAXPEAXHH@Z 000000014003d510 f i libprotobuf:message.obj
 0001:0003c520       ?SwapElements@?$RepeatedPtrFieldWrapper@V?$basic_string@DU?$char_traits@D@std@@V?$allocator@D@2@@std@@@internal@protobuf@google@@UEBAXPEAXHH@Z 000000014003d520 f i libprotobuf:message.obj
 0001:0003c530       ?SwapElements@?$RepeatedPtrFieldWrapper@VMessage@protobuf@google@@@internal@protobuf@google@@UEBAXPEAXHH@Z 000000014003d530 f i libprotobuf:message.obj
 0001:0003c560       ?SwapElements@MapFieldAccessor@internal@protobuf@google@@UEBAXPEAXHH@Z 000000014003d560 f i libprotobuf:message.obj
 0001:0003c5b0       ?_Assign_grow@?$_Hash_vec@V?$allocator@V?$_List_unchecked_const_iterator@V?$_List_val@U?$_List_simple_types@PEBVDescriptor@protobuf@google@@@std@@@std@@U_Iterator_base0@2@@std@@@std@@@std@@QEAAX_KV?$_List_unchecked_const_iterator@V?$_List_val@U?$_List_simple_types@PEBVDescriptor@protobuf@google@@@std@@@std@@U_Iterator_base0@2@@2@@Z 000000014003d5b0 f i libprotobuf:descriptor.obj
 0001:0003c5b0       ?_Assign_grow@?$_Hash_vec@V?$allocator@V?$_List_unchecked_const_iterator@V?$_List_val@U?$_List_simple_types@V?$basic_string@DU?$char_traits@D@std@@V?$allocator@D@2@@std@@@std@@@std@@U_Iterator_base0@2@@std@@@std@@@std@@QEAAX_KV?$_List_unchecked_const_iterator@V?$_List_val@U?$_List_simple_types@V?$basic_string@DU?$char_traits@D@std@@V?$allocator@D@2@@std@@@std@@@std@@U_Iterator_base0@2@@2@@Z 000000014003d5b0 f i libprotobuf:descriptor.obj
 0001:0003c5b0       ?_Assign_grow@?$_Hash_vec@V?$allocator@V?$_List_unchecked_const_iterator@V?$_List_val@U?$_List_simple_types@VSymbol@protobuf@google@@@std@@@std@@U_Iterator_base0@2@@std@@@std@@@std@@QEAAX_KV?$_List_unchecked_const_iterator@V?$_List_val@U?$_List_simple_types@VSymbol@protobuf@google@@@std@@@std@@U_Iterator_base0@2@@2@@Z 000000014003d5b0 f i libprotobuf:descriptor.obj
 0001:0003c5b0       ?_Assign_grow@?$_Hash_vec@V?$allocator@V?$_List_unchecked_iterator@V?$_List_val@U?$_List_simple_types@U?$pair@$$CBU?$pair@PEBXVStringPiece@stringpiece_internal@protobuf@google@@@std@@PEBVFieldDescriptor@protobuf@google@@@std@@@std@@@std@@@std@@@std@@@std@@QEAAX_KV?$_List_unchecked_iterator@V?$_List_val@U?$_List_simple_types@U?$pair@$$CBU?$pair@PEBXVStringPiece@stringpiece_internal@protobuf@google@@@std@@PEBVFieldDescriptor@protobuf@google@@@std@@@std@@@std@@@2@@Z 000000014003d5b0 f i libprotobuf:descriptor.obj
 0001:0003c5b0       ?_Assign_grow@?$_Hash_vec@V?$allocator@V?$_List_unchecked_iterator@V?$_List_val@U?$_List_simple_types@U?$pair@$$CBV?$basic_string@DU?$char_traits@D@std@@V?$allocator@D@2@@std@@PEBVSourceCodeInfo_Location@protobuf@google@@@std@@@std@@@std@@@std@@@std@@@std@@QEAAX_KV?$_List_unchecked_iterator@V?$_List_val@U?$_List_simple_types@U?$pair@$$CBV?$basic_string@DU?$char_traits@D@std@@V?$allocator@D@2@@std@@PEBVSourceCodeInfo_Location@protobuf@google@@@std@@@std@@@std@@@2@@Z 000000014003d5b0 f i libprotobuf:descriptor.obj
 0001:0003c5b0       ?_Assign_grow@?$_Hash_vec@V?$allocator@V?$_List_unchecked_iterator@V?$_List_val@U?$_List_simple_types@U?$pair@$$CBV?$basic_string@DU?$char_traits@D@std@@V?$allocator@D@2@@std@@W4WellKnownType@Descriptor@protobuf@google@@@std@@@std@@@std@@@std@@@std@@@std@@QEAAX_KV?$_List_unchecked_iterator@V?$_List_val@U?$_List_simple_types@U?$pair@$$CBV?$basic_string@DU?$char_traits@D@std@@V?$allocator@D@2@@std@@W4WellKnownType@Descriptor@protobuf@google@@@std@@@std@@@std@@@2@@Z 000000014003d5b0 f i libprotobuf:descriptor.obj
 0001:0003c5b0       ?_Assign_grow@?$_Hash_vec@V?$allocator@V?$_List_unchecked_iterator@V?$_List_val@U?$_List_simple_types@U?$pair@$$CBVStringPiece@stringpiece_internal@protobuf@google@@PEBUDescriptorTable@internal@34@@std@@@std@@@std@@@std@@@std@@@std@@QEAAX_KV?$_List_unchecked_iterator@V?$_List_val@U?$_List_simple_types@U?$pair@$$CBVStringPiece@stringpiece_internal@protobuf@google@@PEBUDescriptorTable@internal@34@@std@@@std@@@std@@@2@@Z 000000014003d5b0 f i libprotobuf:message.obj
 0001:0003c5b0       ?_Assign_grow@?$_Hash_vec@V?$allocator@V?$_List_unchecked_iterator@V?$_List_val@U?$_List_simple_types@U?$pair@$$CBVStringPiece@stringpiece_internal@protobuf@google@@PEBVFileDescriptor@34@@std@@@std@@@std@@@std@@@std@@@std@@QEAAX_KV?$_List_unchecked_iterator@V?$_List_val@U?$_List_simple_types@U?$pair@$$CBVStringPiece@stringpiece_internal@protobuf@google@@PEBVFileDescriptor@34@@std@@@std@@@std@@@2@@Z 000000014003d5b0 f i libprotobuf:descriptor.obj
 0001:0003c5b0       ?_Assign_grow@?$_Hash_vec@V?$allocator@V?$_List_unchecked_iterator@V?$_List_val@U?$_List_simple_types@U?$pair@QEBVDescriptor@protobuf@google@@PEBUTypeInfo@DynamicMessageFactory@23@@std@@@std@@@std@@@std@@@std@@@std@@QEAAX_KV?$_List_unchecked_iterator@V?$_List_val@U?$_List_simple_types@U?$pair@QEBVDescriptor@protobuf@google@@PEBUTypeInfo@DynamicMessageFactory@23@@std@@@std@@@std@@@2@@Z 000000014003d5b0 f i libprotobuf:dynamic_message.obj
 0001:0003c5b0       ?_Assign_grow@?$_Hash_vec@V?$allocator@V?$_List_unchecked_iterator@V?$_List_val@U?$_List_simple_types@U?$pair@QEBVDescriptor@protobuf@google@@PEBVMessage@23@@std@@@std@@@std@@@std@@@std@@@std@@QEAAX_KV?$_List_unchecked_iterator@V?$_List_val@U?$_List_simple_types@U?$pair@QEBVDescriptor@protobuf@google@@PEBVMessage@23@@std@@@std@@@std@@@2@@Z 000000014003d5b0 f i libprotobuf:message.obj
 0001:0003c5b0       ?_Assign_grow@?$_Hash_vec@V?$allocator@V?$_List_unchecked_iterator@V?$_List_val@U?$_List_simple_types@U?$pair@QEBVDescriptor@protobuf@google@@UMessageHints@DescriptorBuilder@23@@std@@@std@@@std@@@std@@@std@@@std@@QEAAX_KV?$_List_unchecked_iterator@V?$_List_val@U?$_List_simple_types@U?$pair@QEBVDescriptor@protobuf@google@@UMessageHints@DescriptorBuilder@23@@std@@@std@@@std@@@2@@Z 000000014003d5b0 f i libprotobuf:descriptor.obj
 0001:0003c6e0       ?_Forced_rehash@?$_Hash@V?$_Umap_traits@PEBVDescriptor@protobuf@google@@PEBUTypeInfo@DynamicMessageFactory@23@V?$_Uhash_compare@PEBVDescriptor@protobuf@google@@U?$hash@PEBVDescriptor@protobuf@google@@@std@@U?$equal_to@PEBVDescriptor@protobuf@google@@@5@@std@@V?$allocator@U?$pair@QEBVDescriptor@protobuf@google@@PEBUTypeInfo@DynamicMessageFactory@23@@std@@@7@$0A@@std@@@std@@IEAAX_K@Z 000000014003d6e0 f i libprotobuf:dynamic_message.obj
 0001:0003c6e0       ?_Forced_rehash@?$_Hash@V?$_Umap_traits@PEBVDescriptor@protobuf@google@@PEBVMessage@23@V?$_Uhash_compare@PEBVDescriptor@protobuf@google@@U?$hash@PEBVDescriptor@protobuf@google@@@std@@U?$equal_to@PEBVDescriptor@protobuf@google@@@5@@std@@V?$allocator@U?$pair@QEBVDescriptor@protobuf@google@@PEBVMessage@23@@std@@@6@$0A@@std@@@std@@IEAAX_K@Z 000000014003d6e0 f i libprotobuf:message.obj
 0001:0003c6e0       ?_Forced_rehash@?$_Hash@V?$_Umap_traits@PEBVDescriptor@protobuf@google@@UMessageHints@DescriptorBuilder@23@V?$_Uhash_compare@PEBVDescriptor@protobuf@google@@U?$hash@PEBVDescriptor@protobuf@google@@@std@@U?$equal_to@PEBVDescriptor@protobuf@google@@@5@@std@@V?$allocator@U?$pair@QEBVDescriptor@protobuf@google@@UMessageHints@DescriptorBuilder@23@@std@@@7@$0A@@std@@@std@@IEAAX_K@Z 000000014003d6e0 f i libprotobuf:descriptor.obj
 0001:0003c8d0       ?_Forced_rehash@?$_Hash@V?$_Umap_traits@VStringPiece@stringpiece_internal@protobuf@google@@PEBUDescriptorTable@internal@34@V?$_Uhash_compare@VStringPiece@stringpiece_internal@protobuf@google@@U?$hash@VStringPiece@stringpiece_internal@protobuf@google@@@34@U?$equal_to@VStringPiece@stringpiece_internal@protobuf@google@@@std@@@std@@V?$allocator@U?$pair@$$CBVStringPiece@stringpiece_internal@protobuf@google@@PEBUDescriptorTable@internal@34@@std@@@8@$0A@@std@@@std@@IEAAX_K@Z 000000014003d8d0 f i libprotobuf:message.obj
 0001:0003c8d0       ?_Forced_rehash@?$_Hash@V?$_Umap_traits@VStringPiece@stringpiece_internal@protobuf@google@@PEBVFileDescriptor@34@V?$_Uhash_compare@VStringPiece@stringpiece_internal@protobuf@google@@U?$hash@VStringPiece@stringpiece_internal@protobuf@google@@@34@U?$equal_to@VStringPiece@stringpiece_internal@protobuf@google@@@std@@@std@@V?$allocator@U?$pair@$$CBVStringPiece@stringpiece_internal@protobuf@google@@PEBVFileDescriptor@34@@std@@@7@$0A@@std@@@std@@IEAAX_K@Z 000000014003d8d0 f i libprotobuf:descriptor.obj
 0001:0003cb60       ?_InternalParse@Message@protobuf@google@@UEAAPEBDPEBDPEAVParseContext@internal@23@@Z 000000014003db60 f   libprotobuf:message.obj
 0001:0003cb70       ?_InternalSerialize@Message@protobuf@google@@UEBAPEAEPEAEPEAVEpsCopyOutputStream@io@23@@Z 000000014003db70 f   libprotobuf:message.obj
 0001:0003cb80       ?generated_factory@MessageFactory@protobuf@google@@SAPEAV123@XZ 000000014003db80 f   libprotobuf:message.obj
 0001:0003cd20       ?InitProtobufDefaultsSlow@internal@protobuf@google@@YAXXZ 000000014003dd20 f   libprotobuf:generated_message_util.obj
 0001:0003cdb0       ?StringSpaceUsedExcludingSelfLong@internal@protobuf@google@@YA_KAEBV?$basic_string@DU?$char_traits@D@std@@V?$allocator@D@2@@std@@@Z 000000014003ddb0 f   libprotobuf:generated_message_util.obj
 0001:0003cde0       ?ClearToEmpty@ArenaStringPtr@internal@protobuf@google@@QEAAXXZ 000000014003dde0 f   libprotobuf:arenastring.obj
 0001:0003ce10       ?Destroy@ArenaStringPtr@internal@protobuf@google@@QEAAXXZ 000000014003de10 f   libprotobuf:arenastring.obj
 0001:0003ce90       ?Mutable@ArenaStringPtr@internal@protobuf@google@@QEAAPEAV?$basic_string@DU?$char_traits@D@std@@V?$allocator@D@2@@std@@PEAVArena@34@@Z 000000014003de90 f   libprotobuf:arenastring.obj
 0001:0003cf60       ?Set@ArenaStringPtr@internal@protobuf@google@@QEAAX$$QEAV?$basic_string@DU?$char_traits@D@std@@V?$allocator@D@2@@std@@PEAVArena@34@@Z 000000014003df60 f   libprotobuf:arenastring.obj
 0001:0003d070       ?Set@ArenaStringPtr@internal@protobuf@google@@QEAAXAEBV?$basic_string@DU?$char_traits@D@std@@V?$allocator@D@2@@std@@PEAVArena@34@@Z 000000014003e070 f   libprotobuf:arenastring.obj
 0001:0003d1a0       ?<lambda_invoker_cdecl>@<lambda_26348bf941195fb65a2756e982cb6cfc>@@CA@PEBX@Z 000000014003e1a0 f i libprotobuf:descriptor.obj
 0001:0003d1b0       ?<lambda_invoker_cdecl>@<lambda_7748af2106548c4814d820a945121337>@@CA@PEBX@Z 000000014003e1b0 f i libprotobuf:descriptor.obj
 0001:0003d240       ?<lambda_invoker_cdecl>@<lambda_8315c1acd25b77b114287cd0cfa46d92>@@CA@PEBX@Z 000000014003e240 f i libprotobuf:descriptor.obj
 0001:0003d5c0       ??$?9DU?$char_traits@D@std@@V?$allocator@D@1@@std@@YA_NAEBV?$basic_string@DU?$char_traits@D@std@@V?$allocator@D@2@@0@0@Z 000000014003e5c0 f i libprotobuf:descriptor.obj
 0001:0003d610       ??$?HDU?$char_traits@D@std@@V?$allocator@D@1@@std@@YA?AV?$basic_string@DU?$char_traits@D@std@@V?$allocator@D@2@@0@$$QEAV10@AEBV10@@Z 000000014003e610 f i libprotobuf:descriptor.obj
 0001:0003d670       ??$?HDU?$char_traits@D@std@@V?$allocator@D@1@@std@@YA?AV?$basic_string@DU?$char_traits@D@std@@V?$allocator@D@2@@0@QEBD$$QEAV10@@Z 000000014003e670 f i libprotobuf:descriptor.obj
 0001:0003e0d0       ??$AllocateOptions@VMethodDescriptor@protobuf@google@@@DescriptorBuilder@protobuf@google@@AEAAXAEBVMethodOptions@12@PEAVMethodDescriptor@12@HAEBV?$basic_string@DU?$char_traits@D@std@@V?$allocator@D@2@@std@@AEAVFlatAllocator@internal@12@@Z 000000014003f0d0 f i libprotobuf:descriptor.obj
 0001:0003e290       ??$AllocateOptionsImpl@UExtensionRange@Descriptor@protobuf@google@@@DescriptorBuilder@protobuf@google@@AEAAXAEBV?$basic_string@DU?$char_traits@D@std@@V?$allocator@D@2@@std@@0AEBVExtensionRangeOptions@12@PEAUExtensionRange@Descriptor@12@AEBV?$vector@HV?$allocator@H@std@@@4@0AEAVFlatAllocator@internal@12@@Z 000000014003f290 f i libprotobuf:descriptor.obj
 0001:0003e7f0       ??$AllocateOptionsImpl@VDescriptor@protobuf@google@@@DescriptorBuilder@protobuf@google@@AEAAXAEBV?$basic_string@DU?$char_traits@D@std@@V?$allocator@D@2@@std@@0AEBVMessageOptions@12@PEAVDescriptor@12@AEBV?$vector@HV?$allocator@H@std@@@4@0AEAVFlatAllocator@internal@12@@Z 000000014003f7f0 f i libprotobuf:descriptor.obj
 0001:0003ed50       ??$AllocateOptionsImpl@VEnumDescriptor@protobuf@google@@@DescriptorBuilder@protobuf@google@@AEAAXAEBV?$basic_string@DU?$char_traits@D@std@@V?$allocator@D@2@@std@@0AEBVEnumOptions@12@PEAVEnumDescriptor@12@AEBV?$vector@HV?$allocator@H@std@@@4@0AEAVFlatAllocator@internal@12@@Z 000000014003fd50 f i libprotobuf:descriptor.obj
 0001:0003f2b0       ??$AllocateOptionsImpl@VEnumValueDescriptor@protobuf@google@@@DescriptorBuilder@protobuf@google@@AEAAXAEBV?$basic_string@DU?$char_traits@D@std@@V?$allocator@D@2@@std@@0AEBVEnumValueOptions@12@PEAVEnumValueDescriptor@12@AEBV?$vector@HV?$allocator@H@std@@@4@0AEAVFlatAllocator@internal@12@@Z 00000001400402b0 f i libprotobuf:descriptor.obj
 0001:0003f810       ??$AllocateOptionsImpl@VFieldDescriptor@protobuf@google@@@DescriptorBuilder@protobuf@google@@AEAAXAEBV?$basic_string@DU?$char_traits@D@std@@V?$allocator@D@2@@std@@0AEBVFieldOptions@12@PEAVFieldDescriptor@12@AEBV?$vector@HV?$allocator@H@std@@@4@0AEAVFlatAllocator@internal@12@@Z 0000000140040810 f i libprotobuf:descriptor.obj
 0001:0003fd70       ??$AllocateOptionsImpl@VFileDescriptor@protobuf@google@@@DescriptorBuilder@protobuf@google@@AEAAXAEBV?$basic_string@DU?$char_traits@D@std@@V?$allocator@D@2@@std@@0AEBVFileOptions@12@PEAVFileDescriptor@12@AEBV?$vector@HV?$allocator@H@std@@@4@0AEAVFlatAllocator@internal@12@@Z 0000000140040d70 f i libprotobuf:descriptor.obj
 0001:000402d0       ??$AllocateOptionsImpl@VMethodDescriptor@protobuf@google@@@DescriptorBuilder@protobuf@google@@AEAAXAEBV?$basic_string@DU?$char_traits@D@std@@V?$allocator@D@2@@std@@0AEBVMethodOptions@12@PEAVMethodDescriptor@12@AEBV?$vector@HV?$allocator@H@std@@@4@0AEAVFlatAllocator@internal@12@@Z 00000001400412d0 f i libprotobuf:descriptor.obj
 0001:00040830       ??$AllocateOptionsImpl@VOneofDescriptor@protobuf@google@@@DescriptorBuilder@protobuf@google@@AEAAXAEBV?$basic_string@DU?$char_traits@D@std@@V?$allocator@D@2@@std@@0AEBVOneofOptions@12@PEAVOneofDescriptor@12@AEBV?$vector@HV?$allocator@H@std@@@4@0AEAVFlatAllocator@internal@12@@Z 0000000140041830 f i libprotobuf:descriptor.obj
 0001:00040d90       ??$AllocateOptionsImpl@VServiceDescriptor@protobuf@google@@@DescriptorBuilder@protobuf@google@@AEAAXAEBV?$basic_string@DU?$char_traits@D@std@@V?$allocator@D@2@@std@@0AEBVServiceOptions@12@PEAVServiceDescriptor@12@AEBV?$vector@HV?$allocator@H@std@@@4@0AEAVFlatAllocator@internal@12@@Z 0000000140041d90 f i libprotobuf:descriptor.obj
 0001:000415f0       ??$Clear@VTypeHandler@?$RepeatedPtrField@VSourceCodeInfo_Location@protobuf@google@@@protobuf@google@@@RepeatedPtrFieldBase@internal@protobuf@google@@QEAAXXZ 00000001400425f0 f i libprotobuf:descriptor.obj
 0001:00041a80       ??$MergeFromInnerLoop@VTypeHandler@?$RepeatedPtrField@VSourceCodeInfo_Location@protobuf@google@@@protobuf@google@@@RepeatedPtrFieldBase@internal@protobuf@google@@AEAAXPEAPEAX0HH@Z 0000000140042a80 f i libprotobuf:descriptor.obj
 0001:00041fe0       ??$_Assign_range@V?$RepeatedPtrIterator@$$CBV?$basic_string@DU?$char_traits@D@std@@V?$allocator@D@2@@std@@@internal@protobuf@google@@@?$vector@V?$basic_string@DU?$char_traits@D@std@@V?$allocator@D@2@@std@@V?$allocator@V?$basic_string@DU?$char_traits@D@std@@V?$allocator@D@2@@std@@@2@@std@@AEAAXV?$RepeatedPtrIterator@$$CBV?$basic_string@DU?$char_traits@D@std@@V?$allocator@D@2@@std@@@internal@protobuf@google@@0Uforward_iterator_tag@1@@Z 0000000140042fe0 f i libprotobuf:descriptor.obj
 0001:000421e0       ??$_Destroy_range@V?$allocator@V?$basic_string@DU?$char_traits@D@std@@V?$allocator@D@2@@std@@@std@@@std@@YAXPEAV?$basic_string@DU?$char_traits@D@std@@V?$allocator@D@2@@0@QEAV10@AEAV?$allocator@V?$basic_string@DU?$char_traits@D@std@@V?$allocator@D@2@@std@@@0@@Z 00000001400431e0 f i libprotobuf:descriptor.obj
 0001:00042270       ??$_Emplace_reallocate@AEAPEAH@?$vector@V?$unique_ptr@HUMiscDeleter@Tables@DescriptorPool@protobuf@google@@@std@@V?$allocator@V?$unique_ptr@HUMiscDeleter@Tables@DescriptorPool@protobuf@google@@@std@@@2@@std@@QEAAPEAV?$unique_ptr@HUMiscDeleter@Tables@DescriptorPool@protobuf@google@@@1@QEAV21@AEAPEAH@Z 0000000140043270 f i libprotobuf:descriptor.obj
 0001:00042510       ??$_Emplace_reallocate@AEBH@?$vector@HV?$allocator@H@std@@@std@@QEAAPEAHQEAHAEBH@Z 0000000140043510 f i libprotobuf:descriptor.obj
 0001:00042510       ??$_Emplace_reallocate@H@?$vector@HV?$allocator@H@std@@@std@@QEAAPEAHQEAH$$QEAH@Z 0000000140043510 f i libprotobuf:descriptor.obj
 0001:00042610       ??$_Emplace_reallocate@AEBU?$pair@PEBVDescriptor@protobuf@google@@H@std@@@?$vector@U?$pair@PEBVDescriptor@protobuf@google@@H@std@@V?$allocator@U?$pair@PEBVDescriptor@protobuf@google@@H@std@@@2@@std@@QEAAPEAU?$pair@PEBVDescriptor@protobuf@google@@H@1@QEAU21@AEBU21@@Z 0000000140043610 f i libprotobuf:descriptor.obj
 0001:00042750       ??$_Emplace_reallocate@AEBV?$basic_string@DU?$char_traits@D@std@@V?$allocator@D@2@@std@@@?$vector@V?$basic_string@DU?$char_traits@D@std@@V?$allocator@D@2@@std@@V?$allocator@V?$basic_string@DU?$char_traits@D@std@@V?$allocator@D@2@@std@@@2@@std@@QEAAPEAV?$basic_string@DU?$char_traits@D@std@@V?$allocator@D@2@@1@QEAV21@AEBV21@@Z 0000000140043750 f i libprotobuf:descriptor.obj
 0001:000428c0       ??$_Emplace_reallocate@AEBVSymbol@protobuf@google@@@?$vector@VSymbol@protobuf@google@@V?$allocator@VSymbol@protobuf@google@@@std@@@std@@QEAAPEAVSymbol@protobuf@google@@QEAV234@AEBV234@@Z 00000001400438c0 f i libprotobuf:descriptor.obj
 0001:00042a00       ??$_Emplace_reallocate@UCheckPoint@Tables@DescriptorPool@protobuf@google@@@?$vector@UCheckPoint@Tables@DescriptorPool@protobuf@google@@V?$allocator@UCheckPoint@Tables@DescriptorPool@protobuf@google@@@std@@@std@@QEAAPEAUCheckPoint@Tables@DescriptorPool@protobuf@google@@QEAU23456@$$QEAU23456@@Z 0000000140043a00 f i libprotobuf:descriptor.obj
 0001:00043110       ??$_Emplace_reallocate@V?$basic_string@DU?$char_traits@D@std@@V?$allocator@D@2@@std@@@?$vector@V?$basic_string@DU?$char_traits@D@std@@V?$allocator@D@2@@std@@V?$allocator@V?$basic_string@DU?$char_traits@D@std@@V?$allocator@D@2@@std@@@2@@std@@QEAAPEAV?$basic_string@DU?$char_traits@D@std@@V?$allocator@D@2@@1@QEAV21@$$QEAV21@@Z 0000000140044110 f i libprotobuf:descriptor.obj
 0001:000432a0       ??$_Erase_tree@V?$allocator@U?$_Tree_node@PEBVDescriptor@protobuf@google@@PEAX@std@@@std@@@?$_Tree_val@U?$_Tree_simple_types@PEBVDescriptor@protobuf@google@@@std@@@std@@QEAAXAEAV?$allocator@U?$_Tree_node@PEBVDescriptor@protobuf@google@@PEAX@std@@@1@PEAU?$_Tree_node@PEBVDescriptor@protobuf@google@@PEAX@1@@Z 00000001400442a0 f i libprotobuf:descriptor.obj
 0001:000432a0       ??$_Erase_tree@V?$allocator@U?$_Tree_node@PEBVFileDescriptor@protobuf@google@@PEAX@std@@@std@@@?$_Tree_val@U?$_Tree_simple_types@PEBVFileDescriptor@protobuf@google@@@std@@@std@@QEAAXAEAV?$allocator@U?$_Tree_node@PEBVFileDescriptor@protobuf@google@@PEAX@std@@@1@PEAU?$_Tree_node@PEBVFileDescriptor@protobuf@google@@PEAX@1@@Z 00000001400442a0 f i libprotobuf:descriptor.obj
 0001:00043300       ??$_Erase_tree@V?$allocator@U?$_Tree_node@U?$pair@$$CBHV?$basic_string@DU?$char_traits@D@std@@V?$allocator@D@2@@std@@@std@@PEAX@std@@@std@@@?$_Tree_val@U?$_Tree_simple_types@U?$pair@$$CBHV?$basic_string@DU?$char_traits@D@std@@V?$allocator@D@2@@std@@@std@@@std@@@std@@QEAAXAEAV?$allocator@U?$_Tree_node@U?$pair@$$CBHV?$basic_string@DU?$char_traits@D@std@@V?$allocator@D@2@@std@@@std@@PEAX@std@@@1@PEAU?$_Tree_node@U?$pair@$$CBHV?$basic_string@DU?$char_traits@D@std@@V?$allocator@D@2@@std@@@std@@PEAX@1@@Z 0000000140044300 f i libprotobuf:descriptor.obj
 0001:00043300       ??$_Erase_tree@V?$allocator@U?$_Tree_node@UFileEntry@DescriptorIndex@EncodedDescriptorDatabase@protobuf@google@@PEAX@std@@@std@@@?$_Tree_val@U?$_Tree_simple_types@UFileEntry@DescriptorIndex@EncodedDescriptorDatabase@protobuf@google@@@std@@@std@@QEAAXAEAV?$allocator@U?$_Tree_node@UFileEntry@DescriptorIndex@EncodedDescriptorDatabase@protobuf@google@@PEAX@std@@@1@PEAU?$_Tree_node@UFileEntry@DescriptorIndex@EncodedDescriptorDatabase@protobuf@google@@PEAX@1@@Z 0000000140044300 f i libprotobuf:descriptor_database.obj
 0001:00043300       ??$_Erase_tree@V?$allocator@U?$_Tree_node@USymbolEntry@DescriptorIndex@EncodedDescriptorDatabase@protobuf@google@@PEAX@std@@@std@@@?$_Tree_val@U?$_Tree_simple_types@USymbolEntry@DescriptorIndex@EncodedDescriptorDatabase@protobuf@google@@@std@@@std@@QEAAXAEAV?$allocator@U?$_Tree_node@USymbolEntry@DescriptorIndex@EncodedDescriptorDatabase@protobuf@google@@PEAX@std@@@1@PEAU?$_Tree_node@USymbolEntry@DescriptorIndex@EncodedDescriptorDatabase@protobuf@google@@PEAX@1@@Z 0000000140044300 f i libprotobuf:descriptor_database.obj
 0001:00043380       ??$_Erase_tree@V?$allocator@U?$_Tree_node@U?$pair@$$CBU?$pair@PEBVDescriptor@protobuf@google@@H@std@@PEBVFieldDescriptor@protobuf@google@@@std@@PEAX@std@@@std@@@?$_Tree_val@U?$_Tree_simple_types@U?$pair@$$CBU?$pair@PEBVDescriptor@protobuf@google@@H@std@@PEBVFieldDescriptor@protobuf@google@@@std@@@std@@@std@@QEAAXAEAV?$allocator@U?$_Tree_node@U?$pair@$$CBU?$pair@PEBVDescriptor@protobuf@google@@H@std@@PEBVFieldDescriptor@protobuf@google@@@std@@PEAX@std@@@1@PEAU?$_Tree_node@U?$pair@$$CBU?$pair@PEBVDescriptor@protobuf@google@@H@std@@PEBVFieldDescriptor@protobuf@google@@@std@@PEAX@1@@Z 0000000140044380 f i libprotobuf:descriptor.obj
 0001:000433e0       ??$_Erase_tree@V?$allocator@U?$_Tree_node@U?$pair@$$CBV?$basic_string@DU?$char_traits@D@std@@V?$allocator@D@2@@std@@PEBVDescriptor@protobuf@google@@@std@@PEAX@std@@@std@@@?$_Tree_val@U?$_Tree_simple_types@U?$pair@$$CBV?$basic_string@DU?$char_traits@D@std@@V?$allocator@D@2@@std@@PEBVDescriptor@protobuf@google@@@std@@@std@@@std@@QEAAXAEAV?$allocator@U?$_Tree_node@U?$pair@$$CBV?$basic_string@DU?$char_traits@D@std@@V?$allocator@D@2@@std@@PEBVDescriptor@protobuf@google@@@std@@PEAX@std@@@1@PEAU?$_Tree_node@U?$pair@$$CBV?$basic_string@DU?$char_traits@D@std@@V?$allocator@D@2@@std@@PEBVDescriptor@protobuf@google@@@std@@PEAX@1@@Z 00000001400443e0 f i libprotobuf:descriptor.obj
 0001:000433e0       ??$_Erase_tree@V?$allocator@U?$_Tree_node@U?$pair@$$CBV?$basic_string@DU?$char_traits@D@std@@V?$allocator@D@2@@std@@PEBVEnumValueDescriptor@protobuf@google@@@std@@PEAX@std@@@std@@@?$_Tree_val@U?$_Tree_simple_types@U?$pair@$$CBV?$basic_string@DU?$char_traits@D@std@@V?$allocator@D@2@@std@@PEBVEnumValueDescriptor@protobuf@google@@@std@@@std@@@std@@QEAAXAEAV?$allocator@U?$_Tree_node@U?$pair@$$CBV?$basic_string@DU?$char_traits@D@std@@V?$allocator@D@2@@std@@PEBVEnumValueDescriptor@protobuf@google@@@std@@PEAX@std@@@1@PEAU?$_Tree_node@U?$pair@$$CBV?$basic_string@DU?$char_traits@D@std@@V?$allocator@D@2@@std@@PEBVEnumValueDescriptor@protobuf@google@@@std@@PEAX@1@@Z 00000001400443e0 f i libprotobuf:descriptor.obj
 0001:000433e0       ??$_Erase_tree@V?$allocator@U?$_Tree_node@U?$pair@$$CBV?$basic_string@DU?$char_traits@D@std@@V?$allocator@D@2@@std@@PEBVFieldDescriptor@protobuf@google@@@std@@PEAX@std@@@std@@@?$_Tree_val@U?$_Tree_simple_types@U?$pair@$$CBV?$basic_string@DU?$char_traits@D@std@@V?$allocator@D@2@@std@@PEBVFieldDescriptor@protobuf@google@@@std@@@std@@@std@@QEAAXAEAV?$allocator@U?$_Tree_node@U?$pair@$$CBV?$basic_string@DU?$char_traits@D@std@@V?$allocator@D@2@@std@@PEBVFieldDescriptor@protobuf@google@@@std@@PEAX@std@@@1@PEAU?$_Tree_node@U?$pair@$$CBV?$basic_string@DU?$char_traits@D@std@@V?$allocator@D@2@@std@@PEBVFieldDescriptor@protobuf@google@@@std@@PEAX@1@@Z 00000001400443e0 f i libprotobuf:descriptor.obj
 0001:000433e0       ??$_Erase_tree@V?$allocator@U?$_Tree_node@U?$pair@$$CBV?$basic_string@DU?$char_traits@D@std@@V?$allocator@D@2@@std@@_N@std@@PEAX@std@@@std@@@?$_Tree_val@U?$_Tree_simple_types@U?$pair@$$CBV?$basic_string@DU?$char_traits@D@std@@V?$allocator@D@2@@std@@_N@std@@@std@@@std@@QEAAXAEAV?$allocator@U?$_Tree_node@U?$pair@$$CBV?$basic_string@DU?$char_traits@D@std@@V?$allocator@D@2@@std@@_N@std@@PEAX@std@@@1@PEAU?$_Tree_node@U?$pair@$$CBV?$basic_string@DU?$char_traits@D@std@@V?$allocator@D@2@@std@@_N@std@@PEAX@1@@Z 00000001400443e0 f i libprotobuf:descriptor.obj
 0001:000434a0       ??$_Erase_tree@V?$allocator@U?$_Tree_node@U?$pair@$$CBV?$vector@HV?$allocator@H@std@@@std@@H@std@@PEAX@std@@@std@@@?$_Tree_val@U?$_Tree_simple_types@U?$pair@$$CBV?$vector@HV?$allocator@H@std@@@std@@H@std@@@std@@@std@@QEAAXAEAV?$allocator@U?$_Tree_node@U?$pair@$$CBV?$vector@HV?$allocator@H@std@@@std@@H@std@@PEAX@std@@@1@PEAU?$_Tree_node@U?$pair@$$CBV?$vector@HV?$allocator@H@std@@@std@@H@std@@PEAX@1@@Z 00000001400444a0 f i libprotobuf:descriptor.obj
 0001:00043560       ??$_Erase_tree@V?$allocator@U?$_Tree_node@U?$pair@$$CBV?$vector@HV?$allocator@H@std@@@std@@V12@@std@@PEAX@std@@@std@@@?$_Tree_val@U?$_Tree_simple_types@U?$pair@$$CBV?$vector@HV?$allocator@H@std@@@std@@V12@@std@@@std@@@std@@QEAAXAEAV?$allocator@U?$_Tree_node@U?$pair@$$CBV?$vector@HV?$allocator@H@std@@@std@@V12@@std@@PEAX@std@@@1@PEAU?$_Tree_node@U?$pair@$$CBV?$vector@HV?$allocator@H@std@@@std@@V12@@std@@PEAX@1@@Z 0000000140044560 f i libprotobuf:descriptor.obj
 0001:000435e0       ??$_Erase_tree@V?$allocator@U?$_Tree_node@U?$pair@QEBVDescriptor@protobuf@google@@V?$unique_ptr@$$CBVMessagePrinter@TextFormat@protobuf@google@@U?$default_delete@$$CBVMessagePrinter@TextFormat@protobuf@google@@@std@@@std@@@std@@PEAX@std@@@std@@@?$_Tree_val@U?$_Tree_simple_types@U?$pair@QEBVDescriptor@protobuf@google@@V?$unique_ptr@$$CBVMessagePrinter@TextFormat@protobuf@google@@U?$default_delete@$$CBVMessagePrinter@TextFormat@protobuf@google@@@std@@@std@@@std@@@std@@@std@@QEAAXAEAV?$allocator@U?$_Tree_node@U?$pair@QEBVDescriptor@protobuf@google@@V?$unique_ptr@$$CBVMessagePrinter@TextFormat@protobuf@google@@U?$default_delete@$$CBVMessagePrinter@TextFormat@protobuf@google@@@std@@@std@@@std@@PEAX@std@@@1@PEAU?$_Tree_node@U?$pair@QEBVDescriptor@protobuf@google@@V?$unique_ptr@$$CBVMessagePrinter@TextFormat@protobuf@google@@U?$default_delete@$$CBVMessagePrinter@TextFormat@protobuf@google@@@std@@@std@@@std@@PEAX@1@@Z 00000001400445e0 f i libprotobuf:descriptor.obj
 0001:000435e0       ??$_Erase_tree@V?$allocator@U?$_Tree_node@U?$pair@QEBVFieldDescriptor@protobuf@google@@V?$unique_ptr@$$CBVFastFieldValuePrinter@TextFormat@protobuf@google@@U?$default_delete@$$CBVFastFieldValuePrinter@TextFormat@protobuf@google@@@std@@@std@@@std@@PEAX@std@@@std@@@?$_Tree_val@U?$_Tree_simple_types@U?$pair@QEBVFieldDescriptor@protobuf@google@@V?$unique_ptr@$$CBVFastFieldValuePrinter@TextFormat@protobuf@google@@U?$default_delete@$$CBVFastFieldValuePrinter@TextFormat@protobuf@google@@@std@@@std@@@std@@@std@@@std@@QEAAXAEAV?$allocator@U?$_Tree_node@U?$pair@QEBVFieldDescriptor@protobuf@google@@V?$unique_ptr@$$CBVFastFieldValuePrinter@TextFormat@protobuf@google@@U?$default_delete@$$CBVFastFieldValuePrinter@TextFormat@protobuf@google@@@std@@@std@@@std@@PEAX@std@@@1@PEAU?$_Tree_node@U?$pair@QEBVFieldDescriptor@protobuf@google@@V?$unique_ptr@$$CBVFastFieldValuePrinter@TextFormat@protobuf@google@@U?$default_delete@$$CBVFastFieldValuePrinter@TextFormat@protobuf@google@@@std@@@std@@@std@@PEAX@1@@Z 00000001400445e0 f i libprotobuf:descriptor.obj
 0001:00043660       ??$_Erase_tree@V?$allocator@U?$_Tree_node@V?$basic_string@DU?$char_traits@D@std@@V?$allocator@D@2@@std@@PEAX@std@@@std@@@?$_Tree_val@U?$_Tree_simple_types@V?$basic_string@DU?$char_traits@D@std@@V?$allocator@D@2@@std@@@std@@@std@@QEAAXAEAV?$allocator@U?$_Tree_node@V?$basic_string@DU?$char_traits@D@std@@V?$allocator@D@2@@std@@PEAX@std@@@1@PEAU?$_Tree_node@V?$basic_string@DU?$char_traits@D@std@@V?$allocator@D@2@@std@@PEAX@1@@Z 0000000140044660 f i libprotobuf:descriptor.obj
 0001:00043810       ??$_Find_last@V?$basic_string@DU?$char_traits@D@std@@V?$allocator@D@2@@std@@@?$_Hash@V?$_Umap_traits@V?$basic_string@DU?$char_traits@D@std@@V?$allocator@D@2@@std@@PEBVSourceCodeInfo_Location@protobuf@google@@V?$_Uhash_compare@V?$basic_string@DU?$char_traits@D@std@@V?$allocator@D@2@@std@@U?$hash@V?$basic_string@DU?$char_traits@D@std@@V?$allocator@D@2@@std@@@2@U?$equal_to@V?$basic_string@DU?$char_traits@D@std@@V?$allocator@D@2@@std@@@2@@2@V?$allocator@U?$pair@$$CBV?$basic_string@DU?$char_traits@D@std@@V?$allocator@D@2@@std@@PEBVSourceCodeInfo_Location@protobuf@google@@@std@@@2@$0A@@std@@@std@@IEBA?AU?$_Hash_find_last_result@PEAU?$_List_node@U?$pair@$$CBV?$basic_string@DU?$char_traits@D@std@@V?$allocator@D@2@@std@@PEBVSourceCodeInfo_Location@protobuf@google@@@std@@PEAX@std@@@1@AEBV?$basic_string@DU?$char_traits@D@std@@V?$allocator@D@2@@1@_K@Z 0000000140044810 f i libprotobuf:descriptor.obj
 0001:00043810       ??$_Find_last@V?$basic_string@DU?$char_traits@D@std@@V?$allocator@D@2@@std@@@?$_Hash@V?$_Umap_traits@V?$basic_string@DU?$char_traits@D@std@@V?$allocator@D@2@@std@@W4WellKnownType@Descriptor@protobuf@google@@V?$_Uhash_compare@V?$basic_string@DU?$char_traits@D@std@@V?$allocator@D@2@@std@@U?$hash@V?$basic_string@DU?$char_traits@D@std@@V?$allocator@D@2@@std@@@2@U?$equal_to@V?$basic_string@DU?$char_traits@D@std@@V?$allocator@D@2@@std@@@2@@2@V?$allocator@U?$pair@$$CBV?$basic_string@DU?$char_traits@D@std@@V?$allocator@D@2@@std@@W4WellKnownType@Descriptor@protobuf@google@@@std@@@2@$0A@@std@@@std@@IEBA?AU?$_Hash_find_last_result@PEAU?$_List_node@U?$pair@$$CBV?$basic_string@DU?$char_traits@D@std@@V?$allocator@D@2@@std@@W4WellKnownType@Descriptor@protobuf@google@@@std@@PEAX@std@@@1@AEBV?$basic_string@DU?$char_traits@D@std@@V?$allocator@D@2@@1@_K@Z 0000000140044810 f i libprotobuf:descriptor.obj
 0001:00043810       ??$_Find_last@V?$basic_string@DU?$char_traits@D@std@@V?$allocator@D@2@@std@@@?$_Hash@V?$_Uset_traits@V?$basic_string@DU?$char_traits@D@std@@V?$allocator@D@2@@std@@V?$_Uhash_compare@V?$basic_string@DU?$char_traits@D@std@@V?$allocator@D@2@@std@@U?$hash@V?$basic_string@DU?$char_traits@D@std@@V?$allocator@D@2@@std@@@2@U?$equal_to@V?$basic_string@DU?$char_traits@D@std@@V?$allocator@D@2@@std@@@2@@2@V?$allocator@V?$basic_string@DU?$char_traits@D@std@@V?$allocator@D@2@@std@@@2@$0A@@std@@@std@@IEBA?AU?$_Hash_find_last_result@PEAU?$_List_node@V?$basic_string@DU?$char_traits@D@std@@V?$allocator@D@2@@std@@PEAX@std@@@1@AEBV?$basic_string@DU?$char_traits@D@std@@V?$allocator@D@2@@1@_K@Z 0000000140044810 f i libprotobuf:descriptor.obj
 0001:00043bc0       ??$_Free_non_head@V?$allocator@U?$_List_node@U?$pair@$$CBV?$basic_string@DU?$char_traits@D@std@@V?$allocator@D@2@@std@@PEBVSourceCodeInfo_Location@protobuf@google@@@std@@PEAX@std@@@std@@@?$_List_node@U?$pair@$$CBV?$basic_string@DU?$char_traits@D@std@@V?$allocator@D@2@@std@@PEBVSourceCodeInfo_Location@protobuf@google@@@std@@PEAX@std@@SAXAEAV?$allocator@U?$_List_node@U?$pair@$$CBV?$basic_string@DU?$char_traits@D@std@@V?$allocator@D@2@@std@@PEBVSourceCodeInfo_Location@protobuf@google@@@std@@PEAX@std@@@1@PEAU01@@Z 0000000140044bc0 f i libprotobuf:descriptor.obj
 0001:00043bc0       ??$_Free_non_head@V?$allocator@U?$_List_node@U?$pair@$$CBV?$basic_string@DU?$char_traits@D@std@@V?$allocator@D@2@@std@@W4WellKnownType@Descriptor@protobuf@google@@@std@@PEAX@std@@@std@@@?$_List_node@U?$pair@$$CBV?$basic_string@DU?$char_traits@D@std@@V?$allocator@D@2@@std@@W4WellKnownType@Descriptor@protobuf@google@@@std@@PEAX@std@@SAXAEAV?$allocator@U?$_List_node@U?$pair@$$CBV?$basic_string@DU?$char_traits@D@std@@V?$allocator@D@2@@std@@W4WellKnownType@Descriptor@protobuf@google@@@std@@PEAX@std@@@1@PEAU01@@Z 0000000140044bc0 f i libprotobuf:descriptor.obj
 0001:00043c60       ??$_Free_non_head@V?$allocator@U?$_List_node@V?$basic_string@DU?$char_traits@D@std@@V?$allocator@D@2@@std@@PEAX@std@@@std@@@?$_List_node@V?$basic_string@DU?$char_traits@D@std@@V?$allocator@D@2@@std@@PEAX@std@@SAXAEAV?$allocator@U?$_List_node@V?$basic_string@DU?$char_traits@D@std@@V?$allocator@D@2@@std@@PEAX@std@@@1@PEAU01@@Z 0000000140044c60 f i libprotobuf:descriptor.obj
 0001:00043d00       ??$_Freenode@V?$allocator@U?$_List_node@V?$basic_string@DU?$char_traits@D@std@@V?$allocator@D@2@@std@@PEAX@std@@@std@@@?$_List_node@V?$basic_string@DU?$char_traits@D@std@@V?$allocator@D@2@@std@@PEAX@std@@SAXAEAV?$allocator@U?$_List_node@V?$basic_string@DU?$char_traits@D@std@@V?$allocator@D@2@@std@@PEAX@std@@@1@PEAU01@@Z 0000000140044d00 f i libprotobuf:descriptor.obj
 0001:00043d70       ??$_Insert_string@DU?$char_traits@D@std@@_K@std@@YAAEAV?$basic_ostream@DU?$char_traits@D@std@@@0@AEAV10@QEBD_K@Z 0000000140044d70 f i libprotobuf:descriptor.obj
 0001:00043f30       ??$_Make_heap_unchecked@PEAVStringPiece@stringpiece_internal@protobuf@google@@U?$less@X@std@@@std@@YAXPEAVStringPiece@stringpiece_internal@protobuf@google@@0U?$less@X@0@@Z 0000000140044f30 f i libprotobuf:descriptor.obj
 0001:000441b0       ??$_Med3_unchecked@PEAVStringPiece@stringpiece_internal@protobuf@google@@U?$less@X@std@@@std@@YAXPEAVStringPiece@stringpiece_internal@protobuf@google@@00U?$less@X@0@@Z 00000001400451b0 f i libprotobuf:descriptor.obj
 0001:000445e0       ??$_Partition_by_median_guess_unchecked@PEAVStringPiece@stringpiece_internal@protobuf@google@@U?$less@X@std@@@std@@YA?AU?$pair@PEAVStringPiece@stringpiece_internal@protobuf@google@@PEAV1234@@0@PEAVStringPiece@stringpiece_internal@protobuf@google@@0U?$less@X@0@@Z 00000001400455e0 f i libprotobuf:descriptor.obj
 0001:00044a40       ??$_Pop_heap_hole_by_index@PEAVStringPiece@stringpiece_internal@protobuf@google@@V1234@U?$less@X@std@@@std@@YAXPEAVStringPiece@stringpiece_internal@protobuf@google@@_J1$$QEAV1234@U?$less@X@0@@Z 0000000140045a40 f i libprotobuf:descriptor.obj
 0001:00044bc0       ??$_Reallocate_grow_by@V<lambda_55b0f89b53a0342680e40398a0d39887>@@_K_KPEBD_K@?$basic_string@DU?$char_traits@D@std@@V?$allocator@D@2@@std@@AEAAAEAV01@_KV<lambda_55b0f89b53a0342680e40398a0d39887>@@_K2PEBD2@Z 0000000140045bc0 f i libprotobuf:descriptor.obj
 0001:00044d80       ??$_Reallocate_grow_by@V<lambda_f3a66ab6a0570788f31503db83886f49>@@_KPEBD_K@?$basic_string@DU?$char_traits@D@std@@V?$allocator@D@2@@std@@AEAAAEAV01@_KV<lambda_f3a66ab6a0570788f31503db83886f49>@@_KPEBD2@Z 0000000140045d80 f i libprotobuf:descriptor.obj
 0001:00044f30       ??$_Resize_reallocate@U_Value_init_tag@std@@@?$vector@PEBVFileDescriptor@protobuf@google@@V?$allocator@PEBVFileDescriptor@protobuf@google@@@std@@@std@@AEAAX_KAEBU_Value_init_tag@1@@Z 0000000140045f30 f i libprotobuf:descriptor.obj
 0001:00045000       ??$_Resize_reallocate@U_Value_init_tag@std@@@?$vector@U?$pair@PEBVDescriptor@protobuf@google@@H@std@@V?$allocator@U?$pair@PEBVDescriptor@protobuf@google@@H@std@@@2@@std@@AEAAX_KAEBU_Value_init_tag@1@@Z 0000000140046000 f i libprotobuf:descriptor.obj
 0001:000450f0       ??$_Resize_reallocate@U_Value_init_tag@std@@@?$vector@V?$unique_ptr@HUMiscDeleter@Tables@DescriptorPool@protobuf@google@@@std@@V?$allocator@V?$unique_ptr@HUMiscDeleter@Tables@DescriptorPool@protobuf@google@@@std@@@2@@std@@AEAAX_KAEBU_Value_init_tag@1@@Z 00000001400460f0 f i libprotobuf:descriptor.obj
 0001:000452f0       ??$_Resize_reallocate@U_Value_init_tag@std@@@?$vector@VSymbol@protobuf@google@@V?$allocator@VSymbol@protobuf@google@@@std@@@std@@AEAAX_KAEBU_Value_init_tag@1@@Z 00000001400462f0 f i libprotobuf:descriptor.obj
 0001:00045740       ??$_Sort_unchecked@PEAVStringPiece@stringpiece_internal@protobuf@google@@U?$less@X@std@@@std@@YAXPEAVStringPiece@stringpiece_internal@protobuf@google@@0_JU?$less@X@0@@Z 0000000140046740 f i libprotobuf:descriptor.obj
 0001:000459a0       ??$_Traits_compare@U?$char_traits@D@std@@@std@@YAHQEBD_K01@Z 00000001400469a0 f i libprotobuf:descriptor.obj
 0001:00045a00       ??$_Try_emplace@AEBQEBVDescriptor@protobuf@google@@$$V@?$_Hash@V?$_Umap_traits@PEBVDescriptor@protobuf@google@@UMessageHints@DescriptorBuilder@23@V?$_Uhash_compare@PEBVDescriptor@protobuf@google@@U?$hash@PEBVDescriptor@protobuf@google@@@std@@U?$equal_to@PEBVDescriptor@protobuf@google@@@5@@std@@V?$allocator@U?$pair@QEBVDescriptor@protobuf@google@@UMessageHints@DescriptorBuilder@23@@std@@@7@$0A@@std@@@std@@IEAA?AU?$pair@PEAU?$_List_node@U?$pair@QEBVDescriptor@protobuf@google@@UMessageHints@DescriptorBuilder@23@@std@@PEAX@std@@_N@1@AEBQEBVDescriptor@protobuf@google@@@Z 0000000140046a00 f i libprotobuf:descriptor.obj
 0001:00045d10       ??$_Try_emplace@AEBV?$vector@HV?$allocator@H@std@@@std@@$$V@?$map@V?$vector@HV?$allocator@H@std@@@std@@HU?$less@V?$vector@HV?$allocator@H@std@@@std@@@2@V?$allocator@U?$pair@$$CBV?$vector@HV?$allocator@H@std@@@std@@H@std@@@2@@std@@AEAA?AU?$pair@PEAU?$_Tree_node@U?$pair@$$CBV?$vector@HV?$allocator@H@std@@@std@@H@std@@PEAX@std@@_N@1@AEBV?$vector@HV?$allocator@H@std@@@1@@Z 0000000140046d10 f i libprotobuf:descriptor.obj
 0001:00045ea0       ??$_Try_emplace@AEBV?$vector@HV?$allocator@H@std@@@std@@$$V@?$map@V?$vector@HV?$allocator@H@std@@@std@@V12@U?$less@V?$vector@HV?$allocator@H@std@@@std@@@2@V?$allocator@U?$pair@$$CBV?$vector@HV?$allocator@H@std@@@std@@V12@@std@@@2@@std@@AEAA?AU?$pair@PEAU?$_Tree_node@U?$pair@$$CBV?$vector@HV?$allocator@H@std@@@std@@V12@@std@@PEAX@std@@_N@1@AEBV?$vector@HV?$allocator@H@std@@@1@@Z 0000000140046ea0 f i libprotobuf:descriptor.obj
 0001:00046290       ??$_Try_emplace@V?$basic_string@DU?$char_traits@D@std@@V?$allocator@D@2@@std@@$$V@?$_Hash@V?$_Umap_traits@V?$basic_string@DU?$char_traits@D@std@@V?$allocator@D@2@@std@@PEBVSourceCodeInfo_Location@protobuf@google@@V?$_Uhash_compare@V?$basic_string@DU?$char_traits@D@std@@V?$allocator@D@2@@std@@U?$hash@V?$basic_string@DU?$char_traits@D@std@@V?$allocator@D@2@@std@@@2@U?$equal_to@V?$basic_string@DU?$char_traits@D@std@@V?$allocator@D@2@@std@@@2@@2@V?$allocator@U?$pair@$$CBV?$basic_string@DU?$char_traits@D@std@@V?$allocator@D@2@@std@@PEBVSourceCodeInfo_Location@protobuf@google@@@std@@@2@$0A@@std@@@std@@IEAA?AU?$pair@PEAU?$_List_node@U?$pair@$$CBV?$basic_string@DU?$char_traits@D@std@@V?$allocator@D@2@@std@@PEBVSourceCodeInfo_Location@protobuf@google@@@std@@PEAX@std@@_N@1@$$QEAV?$basic_string@DU?$char_traits@D@std@@V?$allocator@D@2@@1@@Z 0000000140047290 f i libprotobuf:descriptor.obj
 0001:000466b0       ??$_Uninitialized_move@PEAV?$basic_string@DU?$char_traits@D@std@@V?$allocator@D@2@@std@@V?$allocator@V?$basic_string@DU?$char_traits@D@std@@V?$allocator@D@2@@std@@@2@@std@@YAPEAV?$basic_string@DU?$char_traits@D@std@@V?$allocator@D@2@@0@QEAV10@0PEAV10@AEAV?$allocator@V?$basic_string@DU?$char_traits@D@std@@V?$allocator@D@2@@std@@@0@@Z 00000001400476b0 f i libprotobuf:descriptor.obj
 0001:00046730       ??$count@X@?$_Hash@V?$_Uset_traits@V?$basic_string@DU?$char_traits@D@std@@V?$allocator@D@2@@std@@V?$_Uhash_compare@V?$basic_string@DU?$char_traits@D@std@@V?$allocator@D@2@@std@@U?$hash@V?$basic_string@DU?$char_traits@D@std@@V?$allocator@D@2@@std@@@2@U?$equal_to@V?$basic_string@DU?$char_traits@D@std@@V?$allocator@D@2@@std@@@2@@2@V?$allocator@V?$basic_string@DU?$char_traits@D@std@@V?$allocator@D@2@@std@@@2@$0A@@std@@@std@@QEBA_KAEBV?$basic_string@DU?$char_traits@D@std@@V?$allocator@D@2@@1@@Z 0000000140047730 f i libprotobuf:descriptor.obj
 0001:000467b0       ??$emplace@AEBV?$basic_string@DU?$char_traits@D@std@@V?$allocator@D@2@@std@@@?$_Hash@V?$_Uset_traits@V?$basic_string@DU?$char_traits@D@std@@V?$allocator@D@2@@std@@V?$_Uhash_compare@V?$basic_string@DU?$char_traits@D@std@@V?$allocator@D@2@@std@@U?$hash@V?$basic_string@DU?$char_traits@D@std@@V?$allocator@D@2@@std@@@2@U?$equal_to@V?$basic_string@DU?$char_traits@D@std@@V?$allocator@D@2@@std@@@2@@2@V?$allocator@V?$basic_string@DU?$char_traits@D@std@@V?$allocator@D@2@@std@@@2@$0A@@std@@@std@@QEAA?AU?$pair@V?$_List_const_iterator@V?$_List_val@U?$_List_simple_types@V?$basic_string@DU?$char_traits@D@std@@V?$allocator@D@2@@std@@@std@@@std@@@std@@_N@1@AEBV?$basic_string@DU?$char_traits@D@std@@V?$allocator@D@2@@1@@Z 00000001400477b0 f i libprotobuf:descriptor.obj
 0001:00046ef0       ??$emplace@V?$basic_string@DU?$char_traits@D@std@@V?$allocator@D@2@@std@@@?$_Hash@V?$_Uset_traits@V?$basic_string@DU?$char_traits@D@std@@V?$allocator@D@2@@std@@V?$_Uhash_compare@V?$basic_string@DU?$char_traits@D@std@@V?$allocator@D@2@@std@@U?$hash@V?$basic_string@DU?$char_traits@D@std@@V?$allocator@D@2@@std@@@2@U?$equal_to@V?$basic_string@DU?$char_traits@D@std@@V?$allocator@D@2@@std@@@2@@2@V?$allocator@V?$basic_string@DU?$char_traits@D@std@@V?$allocator@D@2@@std@@@2@$0A@@std@@@std@@QEAA?AU?$pair@V?$_List_const_iterator@V?$_List_val@U?$_List_simple_types@V?$basic_string@DU?$char_traits@D@std@@V?$allocator@D@2@@std@@@std@@@std@@@std@@_N@1@$$QEAV?$basic_string@DU?$char_traits@D@std@@V?$allocator@D@2@@1@@Z 0000000140047ef0 f i libprotobuf:descriptor.obj
 0001:00047440       ??$insert@$0A@$0A@@?$_Tree@V?$_Tset_traits@PEBVFileDescriptor@protobuf@google@@U?$less@PEBVFileDescriptor@protobuf@google@@@std@@V?$allocator@PEBVFileDescriptor@protobuf@google@@@5@$0A@@std@@@std@@QEAA?AU?$pair@V?$_Tree_const_iterator@V?$_Tree_val@U?$_Tree_simple_types@PEBVFileDescriptor@protobuf@google@@@std@@@std@@@std@@_N@1@AEBQEBVFileDescriptor@protobuf@google@@@Z 0000000140048440 f i libprotobuf:descriptor.obj
 0001:00047540       ??$insert@PEBU?$pair@$$CBV?$basic_string@DU?$char_traits@D@std@@V?$allocator@D@2@@std@@W4WellKnownType@Descriptor@protobuf@google@@@std@@@?$_Hash@V?$_Umap_traits@V?$basic_string@DU?$char_traits@D@std@@V?$allocator@D@2@@std@@W4WellKnownType@Descriptor@protobuf@google@@V?$_Uhash_compare@V?$basic_string@DU?$char_traits@D@std@@V?$allocator@D@2@@std@@U?$hash@V?$basic_string@DU?$char_traits@D@std@@V?$allocator@D@2@@std@@@2@U?$equal_to@V?$basic_string@DU?$char_traits@D@std@@V?$allocator@D@2@@std@@@2@@2@V?$allocator@U?$pair@$$CBV?$basic_string@DU?$char_traits@D@std@@V?$allocator@D@2@@std@@W4WellKnownType@Descriptor@protobuf@google@@@std@@@2@$0A@@std@@@std@@QEAAXPEBU?$pair@$$CBV?$basic_string@DU?$char_traits@D@std@@V?$allocator@D@2@@std@@W4WellKnownType@Descriptor@protobuf@google@@@1@0@Z 0000000140048540 f i libprotobuf:descriptor.obj
 0001:00047bb0       ??0?$basic_string@DU?$char_traits@D@std@@V?$allocator@D@2@@std@@QEAA@U_String_constructor_concat_tag@1@AEAV01@1@Z 0000000140048bb0 f i libprotobuf:descriptor.obj
 0001:00047de0       ??0?$unordered_set@V?$basic_string@DU?$char_traits@D@std@@V?$allocator@D@2@@std@@U?$hash@V?$basic_string@DU?$char_traits@D@std@@V?$allocator@D@2@@std@@@2@U?$equal_to@V?$basic_string@DU?$char_traits@D@std@@V?$allocator@D@2@@std@@@2@V?$allocator@V?$basic_string@DU?$char_traits@D@std@@V?$allocator@D@2@@std@@@2@@std@@QEAA@XZ 0000000140048de0 f i libprotobuf:descriptor.obj
 0001:00047ee0       ??0?$vector@HV?$allocator@H@std@@@std@@QEAA@AEBV01@@Z 0000000140048ee0 f i libprotobuf:descriptor.obj
 0001:00047f70       ??0DescriptorBuilder@protobuf@google@@QEAA@PEBVDescriptorPool@12@PEAVTables@312@PEAVErrorCollector@312@@Z 0000000140048f70 f   libprotobuf:descriptor.obj
 0001:000480d0       ??0FileDescriptorTables@protobuf@google@@QEAA@XZ 00000001400490d0 f   libprotobuf:descriptor.obj
 0001:00048220       ??0FlatAllocator@internal@protobuf@google@@QEAA@XZ 0000000140049220 f i libprotobuf:descriptor.obj
 0001:000482b0       ??0Tables@DescriptorPool@protobuf@google@@QEAA@XZ 00000001400492b0 f   libprotobuf:descriptor.obj
 0001:00048910       ??1?$RepeatedPtrField@VDescriptorProto@protobuf@google@@@protobuf@google@@QEAA@XZ 0000000140049910 f i libprotobuf:descriptor.pb.obj
 0001:00048910       ??1?$RepeatedPtrField@VDescriptorProto_ExtensionRange@protobuf@google@@@protobuf@google@@QEAA@XZ 0000000140049910 f i libprotobuf:descriptor.pb.obj
 0001:00048910       ??1?$RepeatedPtrField@VEnumDescriptorProto@protobuf@google@@@protobuf@google@@QEAA@XZ 0000000140049910 f i libprotobuf:descriptor.pb.obj
 0001:00048910       ??1?$RepeatedPtrField@VEnumValueDescriptorProto@protobuf@google@@@protobuf@google@@QEAA@XZ 0000000140049910 f i libprotobuf:descriptor.pb.obj
 0001:00048910       ??1?$RepeatedPtrField@VFieldDescriptorProto@protobuf@google@@@protobuf@google@@QEAA@XZ 0000000140049910 f i libprotobuf:descriptor.pb.obj
 0001:00048910       ??1?$RepeatedPtrField@VOneofDescriptorProto@protobuf@google@@@protobuf@google@@QEAA@XZ 0000000140049910 f i libprotobuf:descriptor.pb.obj
 0001:00048910       ??1?$RepeatedPtrField@VServiceDescriptorProto@protobuf@google@@@protobuf@google@@QEAA@XZ 0000000140049910 f i libprotobuf:descriptor.pb.obj
 0001:00048910       ??1?$RepeatedPtrField@VSourceCodeInfo_Location@protobuf@google@@@protobuf@google@@QEAA@XZ 0000000140049910 f i libprotobuf:descriptor.obj
 0001:00048930       ??1?$_Alloc_construct_ptr@V?$allocator@U?$_List_node@U?$pair@$$CBU?$pair@PEBXVStringPiece@stringpiece_internal@protobuf@google@@@std@@PEBVFieldDescriptor@protobuf@google@@@std@@PEAX@std@@@std@@@std@@QEAA@XZ 0000000140049930 f i libprotobuf:descriptor.obj
 0001:00048930       ??1?$_Alloc_construct_ptr@V?$allocator@U?$_List_node@U?$pair@QEBVDescriptor@protobuf@google@@UMessageHints@DescriptorBuilder@23@@std@@PEAX@std@@@std@@@std@@QEAA@XZ 0000000140049930 f i libprotobuf:descriptor.obj
 0001:00048930       ??1?$_Alloc_construct_ptr@V?$allocator@U?$_List_node@V?$basic_string@DU?$char_traits@D@std@@V?$allocator@D@2@@std@@PEAX@std@@@std@@@std@@QEAA@XZ 0000000140049930 f i libprotobuf:descriptor.obj
 0001:00048930       ??1?$_List_node_emplace_op2@V?$allocator@U?$_List_node@U?$pair@$$CBU?$pair@PEBXVStringPiece@stringpiece_internal@protobuf@google@@@std@@PEBVFieldDescriptor@protobuf@google@@@std@@PEAX@std@@@std@@@std@@QEAA@XZ 0000000140049930 f i libprotobuf:descriptor.obj
 0001:00048930       ??1?$_List_node_emplace_op2@V?$allocator@U?$_List_node@U?$pair@QEBVDescriptor@protobuf@google@@UMessageHints@DescriptorBuilder@23@@std@@PEAX@std@@@std@@@std@@QEAA@XZ 0000000140049930 f i libprotobuf:descriptor.obj
 0001:00048950       ??1?$_Alloc_construct_ptr@V?$allocator@U?$_List_node@U?$pair@$$CBV?$basic_string@DU?$char_traits@D@std@@V?$allocator@D@2@@std@@PEBVSourceCodeInfo_Location@protobuf@google@@@std@@PEAX@std@@@std@@@std@@QEAA@XZ 0000000140049950 f i libprotobuf:descriptor.obj
 0001:00048950       ??1?$_Alloc_construct_ptr@V?$allocator@U?$_List_node@U?$pair@$$CBV?$basic_string@DU?$char_traits@D@std@@V?$allocator@D@2@@std@@W4WellKnownType@Descriptor@protobuf@google@@@std@@PEAX@std@@@std@@@std@@QEAA@XZ 0000000140049950 f i libprotobuf:descriptor.obj
 0001:00048950       ??1?$_Alloc_construct_ptr@V?$allocator@U?$_Tree_node@U?$pair@$$CBU?$pair@PEBVDescriptor@protobuf@google@@H@std@@PEBVFieldDescriptor@protobuf@google@@@std@@PEAX@std@@@std@@@std@@QEAA@XZ 0000000140049950 f i libprotobuf:descriptor.obj
 0001:00048970       ??1?$_Alloc_construct_ptr@V?$allocator@U?$_List_node@VSymbol@protobuf@google@@PEAX@std@@@std@@@std@@QEAA@XZ 0000000140049970 f i libprotobuf:descriptor.obj
 0001:00048970       ??1?$_List_node_emplace_op2@V?$allocator@U?$_List_node@VSymbol@protobuf@google@@PEAX@std@@@std@@@std@@QEAA@XZ 0000000140049970 f i libprotobuf:descriptor.obj
 0001:00048990       ??1?$_Alloc_construct_ptr@V?$allocator@U?$_Tree_node@U?$pair@$$CBHV?$basic_string@DU?$char_traits@D@std@@V?$allocator@D@2@@std@@@std@@PEAX@std@@@std@@@std@@QEAA@XZ 0000000140049990 f i libprotobuf:descriptor.obj
 0001:00048990       ??1?$_Alloc_construct_ptr@V?$allocator@U?$_Tree_node@U?$pair@$$CBV?$basic_string@DU?$char_traits@D@std@@V?$allocator@D@2@@std@@PEBVDescriptor@protobuf@google@@@std@@PEAX@std@@@std@@@std@@QEAA@XZ 0000000140049990 f i libprotobuf:descriptor.obj
 0001:00048990       ??1?$_Alloc_construct_ptr@V?$allocator@U?$_Tree_node@U?$pair@$$CBV?$basic_string@DU?$char_traits@D@std@@V?$allocator@D@2@@std@@PEBVEnumValueDescriptor@protobuf@google@@@std@@PEAX@std@@@std@@@std@@QEAA@XZ 0000000140049990 f i libprotobuf:descriptor.obj
 0001:00048990       ??1?$_Alloc_construct_ptr@V?$allocator@U?$_Tree_node@U?$pair@$$CBV?$basic_string@DU?$char_traits@D@std@@V?$allocator@D@2@@std@@PEBVFieldDescriptor@protobuf@google@@@std@@PEAX@std@@@std@@@std@@QEAA@XZ 0000000140049990 f i libprotobuf:descriptor.obj
 0001:00048990       ??1?$_Alloc_construct_ptr@V?$allocator@U?$_Tree_node@UFileEntry@DescriptorIndex@EncodedDescriptorDatabase@protobuf@google@@PEAX@std@@@std@@@std@@QEAA@XZ 0000000140049990 f i libprotobuf:descriptor_database.obj
 0001:00048990       ??1?$_Alloc_construct_ptr@V?$allocator@U?$_Tree_node@USymbolEntry@DescriptorIndex@EncodedDescriptorDatabase@protobuf@google@@PEAX@std@@@std@@@std@@QEAA@XZ 0000000140049990 f i libprotobuf:descriptor_database.obj
 0001:00048990       ??1?$_Tree_temp_node_alloc@V?$allocator@U?$_Tree_node@U?$pair@$$CBV?$basic_string@DU?$char_traits@D@std@@V?$allocator@D@2@@std@@PEBVEnumValueDescriptor@protobuf@google@@@std@@PEAX@std@@@std@@@std@@QEAA@XZ 0000000140049990 f i libprotobuf:descriptor.obj
 0001:00048990       ??1?$_Tree_temp_node_alloc@V?$allocator@U?$_Tree_node@U?$pair@$$CBV?$basic_string@DU?$char_traits@D@std@@V?$allocator@D@2@@std@@PEBVFieldDescriptor@protobuf@google@@@std@@PEAX@std@@@std@@@std@@QEAA@XZ 0000000140049990 f i libprotobuf:descriptor.obj
 0001:00048990       ??1?$_Tree_temp_node_alloc@V?$allocator@U?$_Tree_node@UFileEntry@DescriptorIndex@EncodedDescriptorDatabase@protobuf@google@@PEAX@std@@@std@@@std@@QEAA@XZ 0000000140049990 f i libprotobuf:descriptor_database.obj
 0001:00048990       ??1?$_Tree_temp_node_alloc@V?$allocator@U?$_Tree_node@USymbolEntry@DescriptorIndex@EncodedDescriptorDatabase@protobuf@google@@PEAX@std@@@std@@@std@@QEAA@XZ 0000000140049990 f i libprotobuf:descriptor_database.obj
 0001:000489b0       ??1?$_Alloc_construct_ptr@V?$allocator@U?$_Tree_node@U?$pair@$$CBHUExtension@ExtensionSet@internal@protobuf@google@@@std@@PEAX@std@@@std@@@std@@QEAA@XZ 00000001400499b0 f i libprotobuf:extension_set.obj
 0001:000489b0       ??1?$_Alloc_construct_ptr@V?$allocator@U?$_Tree_node@U?$pair@$$CBV?$vector@HV?$allocator@H@std@@@std@@H@std@@PEAX@std@@@std@@@std@@QEAA@XZ 00000001400499b0 f i libprotobuf:descriptor.obj
 0001:000489b0       ??1?$_Alloc_construct_ptr@V?$allocator@U?$_Tree_node@U?$pair@QEBVFieldDescriptor@protobuf@google@@V?$vector@UParseLocationRange@TextFormat@protobuf@google@@V?$allocator@UParseLocationRange@TextFormat@protobuf@google@@@std@@@std@@@std@@PEAX@std@@@std@@@std@@QEAA@XZ 00000001400499b0 f i libprotobuf:text_format.obj
 0001:000489b0       ??1?$_Alloc_construct_ptr@V?$allocator@U?$_Tree_node@U?$pair@QEBVFieldDescriptor@protobuf@google@@V?$vector@V?$unique_ptr@VParseInfoTree@TextFormat@protobuf@google@@U?$default_delete@VParseInfoTree@TextFormat@protobuf@google@@@std@@@std@@V?$allocator@V?$unique_ptr@VParseInfoTree@TextFormat@protobuf@google@@U?$default_delete@VParseInfoTree@TextFormat@protobuf@google@@@std@@@std@@@2@@std@@@std@@PEAX@std@@@std@@@std@@QEAA@XZ 00000001400499b0 f i libprotobuf:text_format.obj
 0001:000489b0       ??1?$_Alloc_construct_ptr@V?$allocator@U?$_Tree_node@V?$basic_string@DU?$char_traits@D@std@@V?$allocator@D@2@@std@@PEAX@std@@@std@@@std@@QEAA@XZ 00000001400499b0 f i libprotobuf:descriptor.obj
 0001:000489b0       ??1?$_Tree_temp_node_alloc@V?$allocator@U?$_Tree_node@U?$pair@$$CBV?$vector@HV?$allocator@H@std@@@std@@H@std@@PEAX@std@@@std@@@std@@QEAA@XZ 00000001400499b0 f i libprotobuf:descriptor.obj
 0001:000489b0       ??1?$_Tree_temp_node_alloc@V?$allocator@U?$_Tree_node@V?$basic_string@DU?$char_traits@D@std@@V?$allocator@D@2@@std@@PEAX@std@@@std@@@std@@QEAA@XZ 00000001400499b0 f i libprotobuf:descriptor.obj
 0001:000489d0       ??1?$_Alloc_construct_ptr@V?$allocator@U?$_Tree_node@U?$pair@$$CBV?$vector@HV?$allocator@H@std@@@std@@V12@@std@@PEAX@std@@@std@@@std@@QEAA@XZ 00000001400499d0 f i libprotobuf:descriptor.obj
 0001:000489d0       ??1?$_Alloc_construct_ptr@V?$allocator@U?$_Tree_node@UExtensionEntry@DescriptorIndex@EncodedDescriptorDatabase@protobuf@google@@PEAX@std@@@std@@@std@@QEAA@XZ 00000001400499d0 f i libprotobuf:descriptor_database.obj
 0001:000489d0       ??1?$_Tree_temp_node_alloc@V?$allocator@U?$_Tree_node@U?$pair@$$CBV?$vector@HV?$allocator@H@std@@@std@@V12@@std@@PEAX@std@@@std@@@std@@QEAA@XZ 00000001400499d0 f i libprotobuf:descriptor.obj
 0001:000489d0       ??1?$_Tree_temp_node_alloc@V?$allocator@U?$_Tree_node@UExtensionEntry@DescriptorIndex@EncodedDescriptorDatabase@protobuf@google@@PEAX@std@@@std@@@std@@QEAA@XZ 00000001400499d0 f i libprotobuf:descriptor_database.obj
 0001:000489f0       ??1?$_Hash@V?$_Umap_traits@PEBVDescriptor@protobuf@google@@UMessageHints@DescriptorBuilder@23@V?$_Uhash_compare@PEBVDescriptor@protobuf@google@@U?$hash@PEBVDescriptor@protobuf@google@@@std@@U?$equal_to@PEBVDescriptor@protobuf@google@@@5@@std@@V?$allocator@U?$pair@QEBVDescriptor@protobuf@google@@UMessageHints@DescriptorBuilder@23@@std@@@7@$0A@@std@@@std@@QEAA@XZ 00000001400499f0 f i libprotobuf:descriptor.obj
 0001:00048b50       ??1?$_Hash@V?$_Umap_traits@V?$basic_string@DU?$char_traits@D@std@@V?$allocator@D@2@@std@@PEBVSourceCodeInfo_Location@protobuf@google@@V?$_Uhash_compare@V?$basic_string@DU?$char_traits@D@std@@V?$allocator@D@2@@std@@U?$hash@V?$basic_string@DU?$char_traits@D@std@@V?$allocator@D@2@@std@@@2@U?$equal_to@V?$basic_string@DU?$char_traits@D@std@@V?$allocator@D@2@@std@@@2@@2@V?$allocator@U?$pair@$$CBV?$basic_string@DU?$char_traits@D@std@@V?$allocator@D@2@@std@@PEBVSourceCodeInfo_Location@protobuf@google@@@std@@@2@$0A@@std@@@std@@QEAA@XZ 0000000140049b50 f i libprotobuf:descriptor.obj
 0001:00048b50       ??1?$_Hash@V?$_Umap_traits@V?$basic_string@DU?$char_traits@D@std@@V?$allocator@D@2@@std@@W4WellKnownType@Descriptor@protobuf@google@@V?$_Uhash_compare@V?$basic_string@DU?$char_traits@D@std@@V?$allocator@D@2@@std@@U?$hash@V?$basic_string@DU?$char_traits@D@std@@V?$allocator@D@2@@std@@@2@U?$equal_to@V?$basic_string@DU?$char_traits@D@std@@V?$allocator@D@2@@std@@@2@@2@V?$allocator@U?$pair@$$CBV?$basic_string@DU?$char_traits@D@std@@V?$allocator@D@2@@std@@W4WellKnownType@Descriptor@protobuf@google@@@std@@@2@$0A@@std@@@std@@QEAA@XZ 0000000140049b50 f i libprotobuf:descriptor.obj
 0001:00048bd0       ??1?$_Hash@V?$_Uset_traits@PEBVDescriptor@protobuf@google@@V?$_Uhash_compare@PEBVDescriptor@protobuf@google@@U?$hash@PEBVDescriptor@protobuf@google@@@std@@U?$equal_to@PEBVDescriptor@protobuf@google@@@5@@std@@V?$allocator@PEBVDescriptor@protobuf@google@@@5@$0A@@std@@@std@@QEAA@XZ 0000000140049bd0 f i libprotobuf:descriptor.obj
 0001:00048c80       ??1?$_Hash@V?$_Uset_traits@V?$basic_string@DU?$char_traits@D@std@@V?$allocator@D@2@@std@@V?$_Uhash_compare@V?$basic_string@DU?$char_traits@D@std@@V?$allocator@D@2@@std@@U?$hash@V?$basic_string@DU?$char_traits@D@std@@V?$allocator@D@2@@std@@@2@U?$equal_to@V?$basic_string@DU?$char_traits@D@std@@V?$allocator@D@2@@std@@@2@@2@V?$allocator@V?$basic_string@DU?$char_traits@D@std@@V?$allocator@D@2@@std@@@2@$0A@@std@@@std@@QEAA@XZ 0000000140049c80 f i libprotobuf:descriptor.obj
 0001:00048db0       ??1?$_List_node_emplace_op2@V?$allocator@U?$_List_node@U?$pair@$$CBV?$basic_string@DU?$char_traits@D@std@@V?$allocator@D@2@@std@@PEBVSourceCodeInfo_Location@protobuf@google@@@std@@PEAX@std@@@std@@@std@@QEAA@XZ 0000000140049db0 f i libprotobuf:descriptor.obj
 0001:00048db0       ??1?$_List_node_emplace_op2@V?$allocator@U?$_List_node@U?$pair@$$CBV?$basic_string@DU?$char_traits@D@std@@V?$allocator@D@2@@std@@W4WellKnownType@Descriptor@protobuf@google@@@std@@PEAX@std@@@std@@@std@@QEAA@XZ 0000000140049db0 f i libprotobuf:descriptor.obj
 0001:00048e40       ??1?$_List_node_emplace_op2@V?$allocator@U?$_List_node@V?$basic_string@DU?$char_traits@D@std@@V?$allocator@D@2@@std@@PEAX@std@@@std@@@std@@QEAA@XZ 0000000140049e40 f i libprotobuf:descriptor.obj
 0001:00048ed0       ??1?$_Uninitialized_backout_al@V?$allocator@V?$basic_string@DU?$char_traits@D@std@@V?$allocator@D@2@@std@@@std@@@std@@QEAA@XZ 0000000140049ed0 f i libprotobuf:descriptor.obj
 0001:00048ee0       ??1?$list@PEBVDescriptor@protobuf@google@@V?$allocator@PEBVDescriptor@protobuf@google@@@std@@@std@@QEAA@XZ 0000000140049ee0 f i libprotobuf:descriptor.obj
 0001:00048ee0       ??1?$list@VSymbol@protobuf@google@@V?$allocator@VSymbol@protobuf@google@@@std@@@std@@QEAA@XZ 0000000140049ee0 f i libprotobuf:descriptor.obj
 0001:00048f40       ??1?$list@U?$pair@$$CBU?$pair@PEBXVStringPiece@stringpiece_internal@protobuf@google@@@std@@PEBVFieldDescriptor@protobuf@google@@@std@@V?$allocator@U?$pair@$$CBU?$pair@PEBXVStringPiece@stringpiece_internal@protobuf@google@@@std@@PEBVFieldDescriptor@protobuf@google@@@std@@@2@@std@@QEAA@XZ 0000000140049f40 f i libprotobuf:descriptor.obj
 0001:00048f40       ??1?$list@U?$pair@QEBVDescriptor@protobuf@google@@UMessageHints@DescriptorBuilder@23@@std@@V?$allocator@U?$pair@QEBVDescriptor@protobuf@google@@UMessageHints@DescriptorBuilder@23@@std@@@2@@std@@QEAA@XZ 0000000140049f40 f i libprotobuf:descriptor.obj
 0001:00048fa0       ??1?$list@U?$pair@$$CBV?$basic_string@DU?$char_traits@D@std@@V?$allocator@D@2@@std@@PEBVSourceCodeInfo_Location@protobuf@google@@@std@@V?$allocator@U?$pair@$$CBV?$basic_string@DU?$char_traits@D@std@@V?$allocator@D@2@@std@@PEBVSourceCodeInfo_Location@protobuf@google@@@std@@@2@@std@@QEAA@XZ 0000000140049fa0 f i libprotobuf:descriptor.obj
 0001:00048fa0       ??1?$list@U?$pair@$$CBV?$basic_string@DU?$char_traits@D@std@@V?$allocator@D@2@@std@@W4WellKnownType@Descriptor@protobuf@google@@@std@@V?$allocator@U?$pair@$$CBV?$basic_string@DU?$char_traits@D@std@@V?$allocator@D@2@@std@@W4WellKnownType@Descriptor@protobuf@google@@@std@@@2@@std@@QEAA@XZ 0000000140049fa0 f i libprotobuf:descriptor.obj
 0001:00048fd0       ??1?$list@V?$basic_string@DU?$char_traits@D@std@@V?$allocator@D@2@@std@@V?$allocator@V?$basic_string@DU?$char_traits@D@std@@V?$allocator@D@2@@std@@@2@@std@@QEAA@XZ 0000000140049fd0 f i libprotobuf:descriptor.obj
 0001:00049000       ??1?$map@HV?$basic_string@DU?$char_traits@D@std@@V?$allocator@D@2@@std@@U?$less@H@2@V?$allocator@U?$pair@$$CBHV?$basic_string@DU?$char_traits@D@std@@V?$allocator@D@2@@std@@@std@@@2@@std@@QEAA@XZ 000000014004a000 f i libprotobuf:descriptor.obj
 0001:00049030       ??1?$map@U?$pair@PEBVDescriptor@protobuf@google@@H@std@@PEBVFieldDescriptor@protobuf@google@@U?$less@U?$pair@PEBVDescriptor@protobuf@google@@H@std@@@2@V?$allocator@U?$pair@$$CBU?$pair@PEBVDescriptor@protobuf@google@@H@std@@PEBVFieldDescriptor@protobuf@google@@@std@@@2@@std@@QEAA@XZ 000000014004a030 f i libprotobuf:descriptor.obj
 0001:00049090       ??1?$map@V?$basic_string@DU?$char_traits@D@std@@V?$allocator@D@2@@std@@PEBVDescriptor@protobuf@google@@U?$less@V?$basic_string@DU?$char_traits@D@std@@V?$allocator@D@2@@std@@@2@V?$allocator@U?$pair@$$CBV?$basic_string@DU?$char_traits@D@std@@V?$allocator@D@2@@std@@PEBVDescriptor@protobuf@google@@@std@@@2@@std@@QEAA@XZ 000000014004a090 f i libprotobuf:descriptor.obj
 0001:00049090       ??1?$map@V?$basic_string@DU?$char_traits@D@std@@V?$allocator@D@2@@std@@PEBVEnumValueDescriptor@protobuf@google@@U?$less@V?$basic_string@DU?$char_traits@D@std@@V?$allocator@D@2@@std@@@2@V?$allocator@U?$pair@$$CBV?$basic_string@DU?$char_traits@D@std@@V?$allocator@D@2@@std@@PEBVEnumValueDescriptor@protobuf@google@@@std@@@2@@std@@QEAA@XZ 000000014004a090 f i libprotobuf:descriptor.obj
 0001:00049090       ??1?$map@V?$basic_string@DU?$char_traits@D@std@@V?$allocator@D@2@@std@@PEBVFieldDescriptor@protobuf@google@@U?$less@V?$basic_string@DU?$char_traits@D@std@@V?$allocator@D@2@@std@@@2@V?$allocator@U?$pair@$$CBV?$basic_string@DU?$char_traits@D@std@@V?$allocator@D@2@@std@@PEBVFieldDescriptor@protobuf@google@@@std@@@2@@std@@QEAA@XZ 000000014004a090 f i libprotobuf:descriptor.obj
 0001:000490c0       ??1?$map@V?$vector@HV?$allocator@H@std@@@std@@HU?$less@V?$vector@HV?$allocator@H@std@@@std@@@2@V?$allocator@U?$pair@$$CBV?$vector@HV?$allocator@H@std@@@std@@H@std@@@2@@std@@QEAA@XZ 000000014004a0c0 f i libprotobuf:descriptor.obj
 0001:000490f0       ??1?$map@V?$vector@HV?$allocator@H@std@@@std@@V12@U?$less@V?$vector@HV?$allocator@H@std@@@std@@@2@V?$allocator@U?$pair@$$CBV?$vector@HV?$allocator@H@std@@@std@@V12@@std@@@2@@std@@QEAA@XZ 000000014004a0f0 f i libprotobuf:descriptor.obj
 0001:00049120       ??1?$pair@$$CBV?$vector@HV?$allocator@H@std@@@std@@V12@@std@@QEAA@XZ 000000014004a120 f i libprotobuf:descriptor.obj
 0001:000491d0       ??1?$set@PEBVDescriptor@protobuf@google@@U?$less@PEBVDescriptor@protobuf@google@@@std@@V?$allocator@PEBVDescriptor@protobuf@google@@@5@@std@@QEAA@XZ 000000014004a1d0 f i libprotobuf:descriptor.obj
 0001:000491d0       ??1?$set@PEBVFileDescriptor@protobuf@google@@U?$less@PEBVFileDescriptor@protobuf@google@@@std@@V?$allocator@PEBVFileDescriptor@protobuf@google@@@5@@std@@QEAA@XZ 000000014004a1d0 f i libprotobuf:descriptor.obj
 0001:00049230       ??1?$set@V?$basic_string@DU?$char_traits@D@std@@V?$allocator@D@2@@std@@U?$less@V?$basic_string@DU?$char_traits@D@std@@V?$allocator@D@2@@std@@@2@V?$allocator@V?$basic_string@DU?$char_traits@D@std@@V?$allocator@D@2@@std@@@2@@std@@QEAA@XZ 000000014004a230 f i libprotobuf:descriptor.obj
 0001:00049260       ??1?$unique_ptr@$$CBVFastFieldValuePrinter@TextFormat@protobuf@google@@U?$default_delete@$$CBVFastFieldValuePrinter@TextFormat@protobuf@google@@@std@@@std@@QEAA@XZ 000000014004a260 f i libprotobuf:text_format.obj
 0001:00049260       ??1?$unique_ptr@VMessage@protobuf@google@@U?$default_delete@VMessage@protobuf@google@@@std@@@std@@QEAA@XZ 000000014004a260 f i libprotobuf:descriptor.obj
 0001:00049280       ??1?$unique_ptr@VTables@DescriptorPool@protobuf@google@@U?$default_delete@VTables@DescriptorPool@protobuf@google@@@std@@@std@@QEAA@XZ 000000014004a280 f i libprotobuf:descriptor.obj
 0001:000492b0       ??1?$unique_ptr@VUnknownFieldSet@protobuf@google@@U?$default_delete@VUnknownFieldSet@protobuf@google@@@std@@@std@@QEAA@XZ 000000014004a2b0 f i libprotobuf:descriptor.obj
 0001:000492e0       ??1?$unordered_map@PEBVDescriptor@protobuf@google@@UMessageHints@DescriptorBuilder@23@U?$hash@PEBVDescriptor@protobuf@google@@@std@@U?$equal_to@PEBVDescriptor@protobuf@google@@@7@V?$allocator@U?$pair@QEBVDescriptor@protobuf@google@@UMessageHints@DescriptorBuilder@23@@std@@@7@@std@@QEAA@XZ 000000014004a2e0 f i libprotobuf:descriptor.obj
 0001:000492f0       ??1?$unordered_map@V?$basic_string@DU?$char_traits@D@std@@V?$allocator@D@2@@std@@W4WellKnownType@Descriptor@protobuf@google@@U?$hash@V?$basic_string@DU?$char_traits@D@std@@V?$allocator@D@2@@std@@@2@U?$equal_to@V?$basic_string@DU?$char_traits@D@std@@V?$allocator@D@2@@std@@@2@V?$allocator@U?$pair@$$CBV?$basic_string@DU?$char_traits@D@std@@V?$allocator@D@2@@std@@W4WellKnownType@Descriptor@protobuf@google@@@std@@@2@@std@@QEAA@XZ 000000014004a2f0 f i libprotobuf:descriptor.obj
 0001:00049300       ??1?$unordered_set@PEBVDescriptor@protobuf@google@@U?$hash@PEBVDescriptor@protobuf@google@@@std@@U?$equal_to@PEBVDescriptor@protobuf@google@@@5@V?$allocator@PEBVDescriptor@protobuf@google@@@5@@std@@QEAA@XZ 000000014004a300 f i libprotobuf:descriptor.obj
 0001:00049310       ??1?$unordered_set@V?$basic_string@DU?$char_traits@D@std@@V?$allocator@D@2@@std@@U?$hash@V?$basic_string@DU?$char_traits@D@std@@V?$allocator@D@2@@std@@@2@U?$equal_to@V?$basic_string@DU?$char_traits@D@std@@V?$allocator@D@2@@std@@@2@V?$allocator@V?$basic_string@DU?$char_traits@D@std@@V?$allocator@D@2@@std@@@2@@std@@QEAA@XZ 000000014004a310 f i libprotobuf:descriptor.obj
 0001:00049330       ??1?$vector@U?$pair@PEBVDescriptor@protobuf@google@@H@std@@V?$allocator@U?$pair@PEBVDescriptor@protobuf@google@@H@std@@@2@@std@@QEAA@XZ 000000014004a330 f i libprotobuf:descriptor.obj
 0001:00049390       ??1?$vector@UCheckPoint@Tables@DescriptorPool@protobuf@google@@V?$allocator@UCheckPoint@Tables@DescriptorPool@protobuf@google@@@std@@@std@@QEAA@XZ 000000014004a390 f i libprotobuf:descriptor.obj
 0001:00049520       ??1?$vector@V?$unique_ptr@HUMiscDeleter@Tables@DescriptorPool@protobuf@google@@@std@@V?$allocator@V?$unique_ptr@HUMiscDeleter@Tables@DescriptorPool@protobuf@google@@@std@@@2@@std@@QEAA@XZ 000000014004a520 f i libprotobuf:descriptor.obj
 0001:000496d0       ??1AggregateOptionFinder@OptionInterpreter@DescriptorBuilder@protobuf@google@@UEAA@XZ 000000014004a6d0 f i libprotobuf:descriptor.obj
 0001:000496e0       ??1DescriptorBuilder@protobuf@google@@QEAA@XZ 000000014004a6e0 f   libprotobuf:descriptor.obj
 0001:000498d0       ??1MutexLockMaybe@internal@protobuf@google@@QEAA@XZ 000000014004a8d0 f i libprotobuf:descriptor.obj
 0001:000498e0       ??1OptionInterpreter@DescriptorBuilder@protobuf@google@@QEAA@XZ 000000014004a8e0 f   libprotobuf:descriptor.obj
 0001:00049ab0       ??1Printer@TextFormat@protobuf@google@@QEAA@XZ 000000014004aab0 f i libprotobuf:descriptor.obj
 0001:00049b30       ??1SourceLocation@protobuf@google@@QEAA@XZ 000000014004ab30 f i libprotobuf:descriptor.obj
 0001:00049c70       ??1Tables@DescriptorPool@protobuf@google@@QEAA@XZ 000000014004ac70 f   libprotobuf:descriptor.obj
 0001:00049ec0       ??4?$vector@HV?$allocator@H@std@@@std@@QEAAAEAV01@AEBV01@@Z 000000014004aec0 f i libprotobuf:descriptor.obj
 0001:00049f40       ??A?$map@V?$vector@HV?$allocator@H@std@@@std@@HU?$less@V?$vector@HV?$allocator@H@std@@@std@@@2@V?$allocator@U?$pair@$$CBV?$vector@HV?$allocator@H@std@@@std@@H@std@@@2@@std@@QEAAAEAHAEBV?$vector@HV?$allocator@H@std@@@1@@Z 000000014004af40 f i libprotobuf:descriptor.obj
 0001:00049f60       ??A?$map@V?$vector@HV?$allocator@H@std@@@std@@V12@U?$less@V?$vector@HV?$allocator@H@std@@@std@@@2@V?$allocator@U?$pair@$$CBV?$vector@HV?$allocator@H@std@@@std@@V12@@std@@@2@@std@@QEAAAEAV?$vector@HV?$allocator@H@std@@@1@AEBV21@@Z 000000014004af60 f i libprotobuf:descriptor.obj
 0001:0004a160       ??_EAggregateOptionFinder@OptionInterpreter@DescriptorBuilder@protobuf@google@@UEAAPEAXI@Z 000000014004b160 f i libprotobuf:descriptor.obj
 0001:0004a160       ??_GAggregateOptionFinder@OptionInterpreter@DescriptorBuilder@protobuf@google@@UEAAPEAXI@Z 000000014004b160 f i libprotobuf:descriptor.obj
 0001:0004a1a0       ??_EEnumOptions@protobuf@google@@UEAAPEAXI@Z 000000014004b1a0 f i libprotobuf:descriptor.obj
 0001:0004a1a0       ??_GEnumOptions@protobuf@google@@UEAAPEAXI@Z 000000014004b1a0 f i libprotobuf:descriptor.obj
 0001:0004a1e0       ??_EEnumValueOptions@protobuf@google@@UEAAPEAXI@Z 000000014004b1e0 f i libprotobuf:descriptor.obj
 0001:0004a1e0       ??_GEnumValueOptions@protobuf@google@@UEAAPEAXI@Z 000000014004b1e0 f i libprotobuf:descriptor.obj
 0001:0004a220       ??_EErrorCollector@io@protobuf@google@@UEAAPEAXI@Z 000000014004b220 f i libprotobuf:descriptor.obj
 0001:0004a220       ??_GErrorCollector@io@protobuf@google@@UEAAPEAXI@Z 000000014004b220 f i libprotobuf:descriptor.obj
 0001:0004a260       ??_EExtensionRangeOptions@protobuf@google@@UEAAPEAXI@Z 000000014004b260 f i libprotobuf:descriptor.obj
 0001:0004a260       ??_GExtensionRangeOptions@protobuf@google@@UEAAPEAXI@Z 000000014004b260 f i libprotobuf:descriptor.obj
 0001:0004a2a0       ??_EFieldOptions@protobuf@google@@UEAAPEAXI@Z 000000014004b2a0 f i libprotobuf:descriptor.obj
 0001:0004a2a0       ??_GFieldOptions@protobuf@google@@UEAAPEAXI@Z 000000014004b2a0 f i libprotobuf:descriptor.obj
 0001:0004a2e0       ??_GFileDescriptorTables@protobuf@google@@QEAAPEAXI@Z 000000014004b2e0 f i libprotobuf:descriptor.obj
 0001:0004a3a0       ??_EFileOptions@protobuf@google@@UEAAPEAXI@Z 000000014004b3a0 f i libprotobuf:descriptor.obj
 0001:0004a3a0       ??_GFileOptions@protobuf@google@@UEAAPEAXI@Z 000000014004b3a0 f i libprotobuf:descriptor.obj
 0001:0004a3e0       ??_EFinder@TextFormat@protobuf@google@@UEAAPEAXI@Z 000000014004b3e0 f i libprotobuf:descriptor.obj
 0001:0004a3e0       ??_GFinder@TextFormat@protobuf@google@@UEAAPEAXI@Z 000000014004b3e0 f i libprotobuf:descriptor.obj
 0001:0004a420       ??_EMessageOptions@protobuf@google@@UEAAPEAXI@Z 000000014004b420 f i libprotobuf:descriptor.obj
 0001:0004a420       ??_GMessageOptions@protobuf@google@@UEAAPEAXI@Z 000000014004b420 f i libprotobuf:descriptor.obj
 0001:0004a460       ??_EMethodOptions@protobuf@google@@UEAAPEAXI@Z 000000014004b460 f i libprotobuf:descriptor.obj
 0001:0004a460       ??_GMethodOptions@protobuf@google@@UEAAPEAXI@Z 000000014004b460 f i libprotobuf:descriptor.obj
 0001:0004a4a0       ??_EOneofOptions@protobuf@google@@UEAAPEAXI@Z 000000014004b4a0 f i libprotobuf:descriptor.obj
 0001:0004a4a0       ??_GOneofOptions@protobuf@google@@UEAAPEAXI@Z 000000014004b4a0 f i libprotobuf:descriptor.obj
 0001:0004a4e0       ??_EServiceOptions@protobuf@google@@UEAAPEAXI@Z 000000014004b4e0 f i libprotobuf:descriptor.obj
 0001:0004a4e0       ??_GServiceOptions@protobuf@google@@UEAAPEAXI@Z 000000014004b4e0 f i libprotobuf:descriptor.obj
 0001:0004a520       ??_ESourceCodeInfo@protobuf@google@@UEAAPEAXI@Z 000000014004b520 f i libprotobuf:descriptor.obj
 0001:0004a520       ??_GSourceCodeInfo@protobuf@google@@UEAAPEAXI@Z 000000014004b520 f i libprotobuf:descriptor.obj
 0001:0004a560       ??_ESourceCodeInfo_Location@protobuf@google@@UEAAPEAXI@Z 000000014004b560 f i libprotobuf:descriptor.obj
 0001:0004a560       ??_GSourceCodeInfo_Location@protobuf@google@@UEAAPEAXI@Z 000000014004b560 f i libprotobuf:descriptor.obj
 0001:0004a630       ?AddError@DescriptorBuilder@protobuf@google@@AEAAXAEBV?$basic_string@DU?$char_traits@D@std@@V?$allocator@D@2@@std@@AEBVMessage@23@W4ErrorLocation@ErrorCollector@DescriptorPool@23@0@Z 000000014004b630 f   libprotobuf:descriptor.obj
 0001:0004a770       ?AddError@DescriptorBuilder@protobuf@google@@AEAAXAEBV?$basic_string@DU?$char_traits@D@std@@V?$allocator@D@2@@std@@AEBVMessage@23@W4ErrorLocation@ErrorCollector@DescriptorPool@23@PEBD@Z 000000014004b770 f   libprotobuf:descriptor.obj
 0001:0004a850       ?AddExtension@Tables@DescriptorPool@protobuf@google@@QEAA_NPEBVFieldDescriptor@34@@Z 000000014004b850 f   libprotobuf:descriptor.obj
 0001:0004a9b0       ?AddFieldByNumber@FileDescriptorTables@protobuf@google@@QEAA_NPEAVFieldDescriptor@23@@Z 000000014004b9b0 f   libprotobuf:descriptor.obj
 0001:0004aa30       ?AddImportError@DescriptorBuilder@protobuf@google@@AEAAXAEBVFileDescriptorProto@23@H@Z 000000014004ba30 f   libprotobuf:descriptor.obj
 0001:0004ae00       ?AddLengthDelimited@UnknownFieldSet@protobuf@google@@QEAAXHAEBV?$basic_string@DU?$char_traits@D@std@@V?$allocator@D@2@@std@@@Z 000000014004be00 f i libprotobuf:descriptor.obj
 0001:0004ae40       ?AddNameError@OptionInterpreter@DescriptorBuilder@protobuf@google@@AEAA_NAEBV?$basic_string@DU?$char_traits@D@std@@V?$allocator@D@2@@std@@@Z 000000014004be40 f i libprotobuf:descriptor.obj
 0001:0004ae70       ?AddNotDefinedError@DescriptorBuilder@protobuf@google@@AEAAXAEBV?$basic_string@DU?$char_traits@D@std@@V?$allocator@D@2@@std@@AEBVMessage@23@W4ErrorLocation@ErrorCollector@DescriptorPool@23@0@Z 000000014004be70 f   libprotobuf:descriptor.obj
 0001:0004ba00       ?AddPackage@DescriptorBuilder@protobuf@google@@AEAAXAEBV?$basic_string@DU?$char_traits@D@std@@V?$allocator@D@2@@std@@AEBVMessage@23@PEAVFileDescriptor@23@@Z 000000014004ca00 f   libprotobuf:descriptor.obj
 0001:0004c5d0       ?AddRecursiveImportError@DescriptorBuilder@protobuf@google@@AEAAXAEBVFileDescriptorProto@23@H@Z 000000014004d5d0 f   libprotobuf:descriptor.obj
 0001:0004c890       ?AddSymbol@DescriptorBuilder@protobuf@google@@AEAA_NAEBV?$basic_string@DU?$char_traits@D@std@@V?$allocator@D@2@@std@@PEBX0AEBVMessage@23@VSymbol@23@@Z 000000014004d890 f   libprotobuf:descriptor.obj
 0001:0004d6f0       ?AddSymbol@Tables@DescriptorPool@protobuf@google@@QEAA_NAEBV?$basic_string@DU?$char_traits@D@std@@V?$allocator@D@2@@std@@VSymbol@34@@Z 000000014004e6f0 f   libprotobuf:descriptor.obj
 0001:0004d760       ?AddTwiceListedError@DescriptorBuilder@protobuf@google@@AEAAXAEBVFileDescriptorProto@23@H@Z 000000014004e760 f   libprotobuf:descriptor.obj
 0001:0004d980       ?AddValueError@OptionInterpreter@DescriptorBuilder@protobuf@google@@AEAA_NAEBV?$basic_string@DU?$char_traits@D@std@@V?$allocator@D@2@@std@@@Z 000000014004e980 f i libprotobuf:descriptor.obj
 0001:0004d9b0       ?AddWarning@DescriptorBuilder@protobuf@google@@AEAAXAEBV?$basic_string@DU?$char_traits@D@std@@V?$allocator@D@2@@std@@AEBVMessage@23@W4ErrorLocation@ErrorCollector@DescriptorPool@23@0@Z 000000014004e9b0 f   libprotobuf:descriptor.obj
 0001:0004da90       ?AddWithoutInterpreting@OptionInterpreter@DescriptorBuilder@protobuf@google@@AEAAXAEBVUninterpretedOption@34@PEAVMessage@34@@Z 000000014004ea90 f   libprotobuf:descriptor.obj
 0001:0004dc20       ?AllocateBytes@Tables@DescriptorPool@protobuf@google@@QEAAPEAXH@Z 000000014004ec20 f   libprotobuf:descriptor.obj
 0001:0004e480       ?AllocateNameStrings@DescriptorBuilder@protobuf@google@@AEAAPEBV?$basic_string@DU?$char_traits@D@std@@V?$allocator@D@2@@std@@AEBV45@0AEAVFlatAllocator@internal@23@@Z 000000014004f480 f   libprotobuf:descriptor.obj
 0001:0004e680       ?AllocateOptions@DescriptorBuilder@protobuf@google@@AEAAXAEBVFileOptions@23@PEAVFileDescriptor@23@AEAVFlatAllocator@internal@23@@Z 000000014004f680 f   libprotobuf:descriptor.obj
 0001:0004e8d0       ?BuildEnum@DescriptorBuilder@protobuf@google@@AEAAXAEBVEnumDescriptorProto@23@PEBVDescriptor@23@PEAVEnumDescriptor@23@AEAVFlatAllocator@internal@23@@Z 000000014004f8d0 f   libprotobuf:descriptor.obj
 0001:0004fc50       ?BuildEnumValue@DescriptorBuilder@protobuf@google@@AEAAXAEBVEnumValueDescriptorProto@23@PEBVEnumDescriptor@23@PEAVEnumValueDescriptor@23@AEAVFlatAllocator@internal@23@@Z 0000000140050c50 f   libprotobuf:descriptor.obj
 0001:00050960       ?BuildExtensionRange@DescriptorBuilder@protobuf@google@@AEAAXAEBVDescriptorProto_ExtensionRange@23@PEBVDescriptor@23@PEAUExtensionRange@523@AEAVFlatAllocator@internal@23@@Z 0000000140051960 f   libprotobuf:descriptor.obj
 0001:00050db0       ?BuildFieldOrExtension@DescriptorBuilder@protobuf@google@@AEAAXAEBVFieldDescriptorProto@23@PEAVDescriptor@23@PEAVFieldDescriptor@23@_NAEAVFlatAllocator@internal@23@@Z 0000000140051db0 f   libprotobuf:descriptor.obj
 0001:00052430       ?BuildFile@DescriptorBuilder@protobuf@google@@QEAAPEBVFileDescriptor@23@AEBVFileDescriptorProto@23@@Z 0000000140053430 f   libprotobuf:descriptor.obj
 0001:00052f40       ?BuildFileFromDatabase@DescriptorPool@protobuf@google@@AEBAPEBVFileDescriptor@23@AEBVFileDescriptorProto@23@@Z 0000000140053f40 f   libprotobuf:descriptor.obj
 0001:00053010       ?BuildFileImpl@DescriptorBuilder@protobuf@google@@AEAAPEAVFileDescriptor@23@AEBVFileDescriptorProto@23@AEAVFlatAllocator@internal@23@@Z 0000000140054010 f   libprotobuf:descriptor.obj
 0001:00054810       ?BuildLocationsByPath@FileDescriptorTables@protobuf@google@@SAXPEAU?$pair@PEBVFileDescriptorTables@protobuf@google@@PEBVSourceCodeInfo@23@@std@@@Z 0000000140055810 f   libprotobuf:descriptor.obj
 0001:00054a10       ?BuildMessage@DescriptorBuilder@protobuf@google@@AEAAXAEBVDescriptorProto@23@PEBVDescriptor@23@PEAV523@AEAVFlatAllocator@internal@23@@Z 0000000140055a10 f   libprotobuf:descriptor.obj
 0001:00056a20       ?BuildMethod@DescriptorBuilder@protobuf@google@@AEAAXAEBVMethodDescriptorProto@23@PEBVServiceDescriptor@23@PEAVMethodDescriptor@23@AEAVFlatAllocator@internal@23@@Z 0000000140057a20 f   libprotobuf:descriptor.obj
 0001:00056bd0       ?BuildOneof@DescriptorBuilder@protobuf@google@@AEAAXAEBVOneofDescriptorProto@23@PEAVDescriptor@23@PEAVOneofDescriptor@23@AEAVFlatAllocator@internal@23@@Z 0000000140057bd0 f   libprotobuf:descriptor.obj
 0001:00056e90       ?BuildService@DescriptorBuilder@protobuf@google@@AEAAXAEBVServiceDescriptorProto@23@PEBXPEAVServiceDescriptor@23@AEAVFlatAllocator@internal@23@@Z 0000000140057e90 f   libprotobuf:descriptor.obj
 0001:00057260       ?CheckEnumValueUniqueness@DescriptorBuilder@protobuf@google@@AEAAXAEBVEnumDescriptorProto@23@PEBVEnumDescriptor@23@@Z 0000000140058260 f   libprotobuf:descriptor.obj
 0001:00057cf0       ?CopyTo@Descriptor@protobuf@google@@QEBAXPEAVDescriptorProto@23@@Z 0000000140058cf0 f   libprotobuf:descriptor.obj
 0001:000581c0       ?CopyTo@EnumDescriptor@protobuf@google@@QEBAXPEAVEnumDescriptorProto@23@@Z 00000001400591c0 f   libprotobuf:descriptor.obj
 0001:00058410       ?CopyTo@FieldDescriptor@protobuf@google@@QEBAXPEAVFieldDescriptorProto@23@@Z 0000000140059410 f   libprotobuf:descriptor.obj
 0001:00058890       ?CopyTo@FileDescriptor@protobuf@google@@QEBAXPEAVFileDescriptorProto@23@@Z 0000000140059890 f   libprotobuf:descriptor.obj
 0001:00058cf0       ?CopyTo@MethodDescriptor@protobuf@google@@QEBAXPEAVMethodDescriptorProto@23@@Z 0000000140059cf0 f   libprotobuf:descriptor.obj
 0001:00058f80       ?CrossLinkField@DescriptorBuilder@protobuf@google@@AEAAXPEAVFieldDescriptor@23@AEBVFieldDescriptorProto@23@@Z 0000000140059f80 f   libprotobuf:descriptor.obj
 0001:0005a910       ?CrossLinkFile@DescriptorBuilder@protobuf@google@@AEAAXPEAVFileDescriptor@23@AEBVFileDescriptorProto@23@@Z 000000014005b910 f   libprotobuf:descriptor.obj
 0001:0005ab00       ?CrossLinkMessage@DescriptorBuilder@protobuf@google@@AEAAXPEAVDescriptor@23@AEBVDescriptorProto@23@@Z 000000014005bb00 f   libprotobuf:descriptor.obj
 0001:0005b6d0       ?CrossLinkMethod@DescriptorBuilder@protobuf@google@@AEAAXPEAVMethodDescriptor@23@AEBVMethodDescriptorProto@23@@Z 000000014005c6d0 f   libprotobuf:descriptor.obj
 0001:0005bc80       ?CrossLinkOnDemandHelper@DescriptorPool@protobuf@google@@AEBA?AVSymbol@23@VStringPiece@stringpiece_internal@23@_N@Z 000000014005cc80 f   libprotobuf:descriptor.obj
 0001:0005bf00       ?DebugString@Descriptor@protobuf@google@@AEBAXHPEAV?$basic_string@DU?$char_traits@D@std@@V?$allocator@D@2@@std@@AEBUDebugStringOptions@23@_N@Z 000000014005cf00 f   libprotobuf:descriptor.obj
 0001:0005d510       ?DebugString@EnumDescriptor@protobuf@google@@AEBAXHPEAV?$basic_string@DU?$char_traits@D@std@@V?$allocator@D@2@@std@@AEBUDebugStringOptions@23@@Z 000000014005e510 f   libprotobuf:descriptor.obj
 0001:0005e050       ?DebugString@EnumValueDescriptor@protobuf@google@@AEBAXHPEAV?$basic_string@DU?$char_traits@D@std@@V?$allocator@D@2@@std@@AEBUDebugStringOptions@23@@Z 000000014005f050 f   libprotobuf:descriptor.obj
 0001:0005e550       ?DebugString@FieldDescriptor@protobuf@google@@AEBAXHPEAV?$basic_string@DU?$char_traits@D@std@@V?$allocator@D@2@@std@@AEBUDebugStringOptions@23@@Z 000000014005f550 f   libprotobuf:descriptor.obj
 0001:0005f320       ?DebugString@OneofDescriptor@protobuf@google@@AEBAXHPEAV?$basic_string@DU?$char_traits@D@std@@V?$allocator@D@2@@std@@AEBUDebugStringOptions@23@@Z 0000000140060320 f   libprotobuf:descriptor.obj
 0001:0005f820       ?DefaultValueAsString@FieldDescriptor@protobuf@google@@AEBA?AV?$basic_string@DU?$char_traits@D@std@@V?$allocator@D@2@@std@@_N@Z 0000000140060820 f   libprotobuf:descriptor.obj
 0001:0005ffe0       ?DetectMapConflicts@DescriptorBuilder@protobuf@google@@AEAAXPEBVDescriptor@23@AEBVDescriptorProto@23@@Z 0000000140060fe0 f   libprotobuf:descriptor.obj
 0001:00060b60       ?ExamineIfOptionIsSet@OptionInterpreter@DescriptorBuilder@protobuf@google@@AEAA_NV?$_Vector_const_iterator@V?$_Vector_val@U?$_Simple_types@PEBVFieldDescriptor@protobuf@google@@@std@@@std@@@std@@0PEBVFieldDescriptor@34@AEBV?$basic_string@DU?$char_traits@D@std@@V?$allocator@D@2@@6@AEBVUnknownFieldSet@34@@Z 0000000140061b60 f   libprotobuf:descriptor.obj
 0001:00061250       ?FieldTypeNameDebugString@FieldDescriptor@protobuf@google@@AEBA?AV?$basic_string@DU?$char_traits@D@std@@V?$allocator@D@2@@std@@XZ 0000000140062250 f   libprotobuf:descriptor.obj
 0001:00061360       ?FindAnyType@AggregateOptionFinder@OptionInterpreter@DescriptorBuilder@protobuf@google@@UEBAPEBVDescriptor@45@AEBVMessage@45@AEBV?$basic_string@DU?$char_traits@D@std@@V?$allocator@D@2@@std@@1@Z 0000000140062360 f i libprotobuf:descriptor.obj
 0001:00061430       ?FindByNameHelper@Tables@DescriptorPool@protobuf@google@@QEAA?AVSymbol@34@PEBV234@VStringPiece@stringpiece_internal@34@@Z 0000000140062430 f   libprotobuf:descriptor.obj
 0001:000616e0       ?FindEnumValueByNumber@FileDescriptorTables@protobuf@google@@QEBAPEBVEnumValueDescriptor@23@PEBVEnumDescriptor@23@H@Z 00000001400626e0 f i libprotobuf:descriptor.obj
 0001:000617e0       ?FindEnumValueByNumberCreatingIfUnknown@FileDescriptorTables@protobuf@google@@QEBAPEBVEnumValueDescriptor@23@PEBVEnumDescriptor@23@H@Z 00000001400627e0 f i libprotobuf:descriptor.obj
 0001:00061d70       ?FindExtension@AggregateOptionFinder@OptionInterpreter@DescriptorBuilder@protobuf@google@@UEBAPEBVFieldDescriptor@45@PEAVMessage@45@AEBV?$basic_string@DU?$char_traits@D@std@@V?$allocator@D@2@@std@@@Z 0000000140062d70 f i libprotobuf:descriptor.obj
 0001:00061e50       ?FindExtension@Tables@DescriptorPool@protobuf@google@@QEBAPEBVFieldDescriptor@34@PEBVDescriptor@34@H@Z 0000000140062e50 f i libprotobuf:descriptor.obj
 0001:00061eb0       ?FindExtensionByNumber@DescriptorPool@protobuf@google@@QEBAPEBVFieldDescriptor@23@PEBVDescriptor@23@H@Z 0000000140062eb0 f   libprotobuf:descriptor.obj
 0001:00062010       ?FindExtensionByPrintableName@DescriptorPool@protobuf@google@@QEBAPEBVFieldDescriptor@23@PEBVDescriptor@23@AEBV?$basic_string@DU?$char_traits@D@std@@V?$allocator@D@2@@std@@@Z 0000000140063010 f   libprotobuf:descriptor.obj
 0001:00062120       ?FindExtensionRangeContainingNumber@Descriptor@protobuf@google@@QEBAPEBUExtensionRange@123@H@Z 0000000140063120 f   libprotobuf:descriptor.obj
 0001:00062160       ?FindFieldByLowercaseName@Descriptor@protobuf@google@@QEBAPEBVFieldDescriptor@23@AEBV?$basic_string@DU?$char_traits@D@std@@V?$allocator@D@2@@std@@@Z 0000000140063160 f   libprotobuf:descriptor.obj
 0001:000621c0       ?FindFieldByLowercaseName@FileDescriptorTables@protobuf@google@@QEBAPEBVFieldDescriptor@23@PEBXVStringPiece@stringpiece_internal@23@@Z 00000001400631c0 f i libprotobuf:descriptor.obj
 0001:00062420       ?FindFieldByName@Descriptor@protobuf@google@@QEBAPEBVFieldDescriptor@23@AEBV?$basic_string@DU?$char_traits@D@std@@V?$allocator@D@2@@std@@@Z 0000000140063420 f   libprotobuf:descriptor.obj
 0001:00062520       ?FindFieldByNumber@Descriptor@protobuf@google@@QEBAPEBVFieldDescriptor@23@H@Z 0000000140063520 f   libprotobuf:descriptor.obj
 0001:00062550       ?FindFieldByNumber@FileDescriptorTables@protobuf@google@@QEBAPEBVFieldDescriptor@23@PEBVDescriptor@23@H@Z 0000000140063550 f i libprotobuf:descriptor.obj
 0001:00062640       ?FindFileByName@DescriptorPool@protobuf@google@@QEBAPEBVFileDescriptor@23@AEBV?$basic_string@DU?$char_traits@D@std@@V?$allocator@D@2@@std@@@Z 0000000140063640 f   libprotobuf:descriptor.obj
 0001:000628a0       ?FindMessageTypeByName@DescriptorPool@protobuf@google@@QEBAPEBVDescriptor@23@AEBV?$basic_string@DU?$char_traits@D@std@@V?$allocator@D@2@@std@@@Z 00000001400638a0 f   libprotobuf:descriptor.obj
 0001:00062900       ?FindNestedSymbol@FileDescriptorTables@protobuf@google@@QEBA?AVSymbol@23@PEBXVStringPiece@stringpiece_internal@23@@Z 0000000140063900 f i libprotobuf:descriptor.obj
 0001:000629c0       ?FindReservedRangeContainingNumber@Descriptor@protobuf@google@@QEBAPEBUReservedRange@123@H@Z 00000001400639c0 f   libprotobuf:descriptor.obj
 0001:00062a00       ?FindSymbol@DescriptorBuilder@protobuf@google@@AEAA?AVSymbol@23@AEBV?$basic_string@DU?$char_traits@D@std@@V?$allocator@D@2@@std@@_N@Z 0000000140063a00 f   libprotobuf:descriptor.obj
 0001:00062c00       ?FindSymbol@Tables@DescriptorPool@protobuf@google@@QEBA?AVSymbol@34@VStringPiece@stringpiece_internal@34@@Z 0000000140063c00 f i libprotobuf:descriptor.obj
 0001:00062cc0       ?FindSymbolNotEnforcingDeps@DescriptorBuilder@protobuf@google@@AEAA?AVSymbol@23@AEBV?$basic_string@DU?$char_traits@D@std@@V?$allocator@D@2@@std@@_N@Z 0000000140063cc0 f   libprotobuf:descriptor.obj
 0001:00062d50       ?FindSymbolNotEnforcingDepsHelper@DescriptorBuilder@protobuf@google@@AEAA?AVSymbol@23@PEBVDescriptorPool@23@AEBV?$basic_string@DU?$char_traits@D@std@@V?$allocator@D@2@@std@@_N@Z 0000000140063d50 f   libprotobuf:descriptor.obj
 0001:00062f50       ?FindValueByName@EnumDescriptor@protobuf@google@@QEBAPEBVEnumValueDescriptor@23@AEBV?$basic_string@DU?$char_traits@D@std@@V?$allocator@D@2@@std@@@Z 0000000140063f50 f   libprotobuf:descriptor.obj
 0001:00063070       ?FindValueByNumber@EnumDescriptor@protobuf@google@@QEBAPEBVEnumValueDescriptor@23@H@Z 0000000140064070 f   libprotobuf:descriptor.obj
 0001:00063090       ?FindValueByNumberCreatingIfUnknown@EnumDescriptor@protobuf@google@@AEBAPEBVEnumValueDescriptor@23@H@Z 0000000140064090 f   libprotobuf:descriptor.obj
 0001:00063960       ?Get@LazyDescriptor@internal@protobuf@google@@QEAAPEBVDescriptor@34@PEBVServiceDescriptor@34@@Z 0000000140064960 f i libprotobuf:descriptor.obj
 0001:00063b40       ?GetFile@Symbol@protobuf@google@@QEBAPEBVFileDescriptor@23@XZ 0000000140064b40 f i libprotobuf:descriptor.obj
 0001:00063c40       ?GetLocationPath@Descriptor@protobuf@google@@AEBAXPEAV?$vector@HV?$allocator@H@std@@@std@@@Z 0000000140064c40 f   libprotobuf:descriptor.obj
 0001:00063d20       ?GetLocationPath@EnumDescriptor@protobuf@google@@AEBAXPEAV?$vector@HV?$allocator@H@std@@@std@@@Z 0000000140064d20 f   libprotobuf:descriptor.obj
 0001:00063e00       ?GetLocationPath@FieldDescriptor@protobuf@google@@AEBAXPEAV?$vector@HV?$allocator@H@std@@@std@@@Z 0000000140064e00 f   libprotobuf:descriptor.obj
 0001:00063ef0       ?GetReflection@Message@protobuf@google@@QEBAPEBVReflection@23@XZ 0000000140064ef0 f i libprotobuf:descriptor.obj
 0001:00063f10       ?GetSourceLocation@FileDescriptor@protobuf@google@@QEBA_NAEBV?$vector@HV?$allocator@H@std@@@std@@PEAUSourceLocation@23@@Z 0000000140064f10 f   libprotobuf:descriptor.obj
 0001:000640f0       ?GetSourceLocation@FileDescriptorTables@protobuf@google@@QEBAPEBVSourceCodeInfo_Location@23@AEBV?$vector@HV?$allocator@H@std@@@std@@PEBVSourceCodeInfo@23@@Z 00000001400650f0 f   libprotobuf:descriptor.obj
 0001:00064330       ?InternalAddGeneratedFile@DescriptorPool@protobuf@google@@SAXPEBXH@Z 0000000140065330 f   libprotobuf:descriptor.obj
 0001:000643e0       ?InternalFindExtensionByNumberNoLock@DescriptorPool@protobuf@google@@AEBAPEBVFieldDescriptor@23@PEBVDescriptor@23@H@Z 00000001400653e0 f   libprotobuf:descriptor.obj
 0001:00064460       ?InternalTypeOnceInit@FieldDescriptor@protobuf@google@@AEBAXXZ 0000000140065460 f   libprotobuf:descriptor.obj
 0001:00065270       ?InterpretSingleOption@OptionInterpreter@DescriptorBuilder@protobuf@google@@AEAA_NPEAVMessage@34@AEBV?$vector@HV?$allocator@H@std@@@std@@1@Z 0000000140066270 f   libprotobuf:descriptor.obj
 0001:00066830       ?IsInPackage@DescriptorBuilder@protobuf@google@@AEAA_NPEBVFileDescriptor@23@AEBV?$basic_string@DU?$char_traits@D@std@@V?$allocator@D@2@@std@@@Z 0000000140067830 f   libprotobuf:descriptor.obj
 0001:000668b0       ?IsSubSymbolOfBuiltType@DescriptorPool@protobuf@google@@AEBA_NVStringPiece@stringpiece_internal@23@@Z 00000001400678b0 f   libprotobuf:descriptor.obj
 0001:00066b70       ?LogUnusedDependency@DescriptorBuilder@protobuf@google@@AEAAXAEBVFileDescriptorProto@23@PEBVFileDescriptor@23@@Z 0000000140067b70 f   libprotobuf:descriptor.obj
 0001:00066e90       ?LookupSymbolNoPlaceholder@DescriptorBuilder@protobuf@google@@AEAA?AVSymbol@23@AEBV?$basic_string@DU?$char_traits@D@std@@V?$allocator@D@2@@std@@0W4ResolveMode@123@_N@Z 0000000140067e90 f   libprotobuf:descriptor.obj
 0001:000675e0       ?Merge@?$GenericTypeHandler@VSourceCodeInfo_Location@protobuf@google@@@internal@protobuf@google@@SAXAEBVSourceCodeInfo_Location@34@PEAV534@@Z 00000001400685e0 f i libprotobuf:descriptor.obj
 0001:00067b90       ?NewPlaceholderFileWithMutexHeld@DescriptorPool@protobuf@google@@AEBAPEAVFileDescriptor@23@VStringPiece@stringpiece_internal@23@AEAVFlatAllocator@internal@23@@Z 0000000140068b90 f   libprotobuf:descriptor.obj
 0001:00067d80       ?NewPlaceholderWithMutexHeld@DescriptorPool@protobuf@google@@AEBA?AVSymbol@23@VStringPiece@stringpiece_internal@23@W4PlaceholderType@123@@Z 0000000140068d80 f   libprotobuf:descriptor.obj
 0001:00069fc0       ?PrintableNameForExtension@FieldDescriptor@protobuf@google@@QEBAAEBV?$basic_string@DU?$char_traits@D@std@@V?$allocator@D@2@@std@@XZ 000000014006afc0 f   libprotobuf:descriptor.obj
 0001:0006a040       ?RecordPublicDependencies@DescriptorBuilder@protobuf@google@@AEAAXPEBVFileDescriptor@23@@Z 000000014006b040 f   libprotobuf:descriptor.obj
 0001:0006a0d0       ?RequestHintOnFieldNumbers@MessageHints@DescriptorBuilder@protobuf@google@@QEAAXAEBVMessage@34@W4ErrorLocation@ErrorCollector@DescriptorPool@34@HH@Z 000000014006b0d0 f i libprotobuf:descriptor.obj
 0001:0006ac80       ?RollbackToLastCheckpoint@Tables@DescriptorPool@protobuf@google@@QEAAXXZ 000000014006bc80 f   libprotobuf:descriptor.obj
 0001:0006b200       ?Set@ArenaStringPtr@internal@protobuf@google@@QEAAXPEBDPEAVArena@34@@Z 000000014006c200 f i libprotobuf:descriptor.obj
 0001:0006b2c0       ?Set@LazyDescriptor@internal@protobuf@google@@QEAAXPEBVDescriptor@34@@Z 000000014006c2c0 f   libprotobuf:descriptor.obj
 0001:0006b370       ?SetAggregateOption@OptionInterpreter@DescriptorBuilder@protobuf@google@@AEAA_NPEBVFieldDescriptor@34@PEAVUnknownFieldSet@34@@Z 000000014006c370 f   libprotobuf:descriptor.obj
 0001:0006bff0       ?SetInt32@OptionInterpreter@DescriptorBuilder@protobuf@google@@AEAAXHHW4Type@FieldDescriptor@34@PEAVUnknownFieldSet@34@@Z 000000014006cff0 f   libprotobuf:descriptor.obj
 0001:0006c0d0       ?SetInt64@OptionInterpreter@DescriptorBuilder@protobuf@google@@AEAAXH_JW4Type@FieldDescriptor@34@PEAVUnknownFieldSet@34@@Z 000000014006d0d0 f   libprotobuf:descriptor.obj
 0001:0006c1b0       ?SetLazy@LazyDescriptor@internal@protobuf@google@@QEAAXVStringPiece@stringpiece_internal@34@PEBVFileDescriptor@34@@Z 000000014006d1b0 f   libprotobuf:descriptor.obj
 0001:0006c400       ?SetOptionValue@OptionInterpreter@DescriptorBuilder@protobuf@google@@AEAA_NPEBVFieldDescriptor@34@PEAVUnknownFieldSet@34@@Z 000000014006d400 f   libprotobuf:descriptor.obj
 0001:0006e2f0       ?Split@protobuf@google@@YA?AV?$vector@V?$basic_string@DU?$char_traits@D@std@@V?$allocator@D@2@@std@@V?$allocator@V?$basic_string@DU?$char_traits@D@std@@V?$allocator@D@2@@std@@@2@@std@@VStringPiece@stringpiece_internal@12@PEBD_N@Z 000000014006f2f0 f i libprotobuf:descriptor.obj
 0001:0006e350       ?SuggestFieldNumbers@DescriptorBuilder@protobuf@google@@AEAAXPEAVFileDescriptor@23@AEBVFileDescriptorProto@23@@Z 000000014006f350 f   libprotobuf:descriptor.obj
 0001:0006ec00       ?SyntaxName@FileDescriptor@protobuf@google@@SAPEBDW4Syntax@123@@Z 000000014006fc00 f   libprotobuf:descriptor.obj
 0001:0006efc0       ?TryFindExtensionInFallbackDatabase@DescriptorPool@protobuf@google@@AEBA_NPEBVDescriptor@23@H@Z 000000014006ffc0 f   libprotobuf:descriptor.obj
 0001:0006f140       ?TryFindFileInFallbackDatabase@DescriptorPool@protobuf@google@@AEBA_NVStringPiece@stringpiece_internal@23@@Z 0000000140070140 f   libprotobuf:descriptor.obj
 0001:0006f340       ?TryFindSymbolInFallbackDatabase@DescriptorPool@protobuf@google@@AEBA_NVStringPiece@stringpiece_internal@23@@Z 0000000140070340 f   libprotobuf:descriptor.obj
 0001:0006f630       ?TypeOnceInit@FieldDescriptor@protobuf@google@@CAXPEBV123@@Z 0000000140070630 f   libprotobuf:descriptor.obj
 0001:0006f640       ?UpdateSourceCodeInfo@OptionInterpreter@DescriptorBuilder@protobuf@google@@QEAAXPEAVSourceCodeInfo@34@@Z 0000000140070640 f   libprotobuf:descriptor.obj
 0001:0006faa0       ?ValidateEnumOptions@DescriptorBuilder@protobuf@google@@AEAAXPEAVEnumDescriptor@23@AEBVEnumDescriptorProto@23@@Z 0000000140070aa0 f   libprotobuf:descriptor.obj
 0001:00070150       ?ValidateFieldOptions@DescriptorBuilder@protobuf@google@@AEAAXPEAVFieldDescriptor@23@AEBVFieldDescriptorProto@23@@Z 0000000140071150 f   libprotobuf:descriptor.obj
 0001:00070830       ?ValidateFileOptions@DescriptorBuilder@protobuf@google@@AEAAXPEAVFileDescriptor@23@AEBVFileDescriptorProto@23@@Z 0000000140071830 f   libprotobuf:descriptor.obj
 0001:00070dc0       ?ValidateJSType@DescriptorBuilder@protobuf@google@@AEAAXPEAVFieldDescriptor@23@AEBVFieldDescriptorProto@23@@Z 0000000140071dc0 f   libprotobuf:descriptor.obj
 0001:00071010       ?ValidateMapEntry@DescriptorBuilder@protobuf@google@@AEAA_NPEAVFieldDescriptor@23@AEBVFieldDescriptorProto@23@@Z 0000000140072010 f   libprotobuf:descriptor.obj
 0001:00071390       ?ValidateMessageOptions@DescriptorBuilder@protobuf@google@@AEAAXPEAVDescriptor@23@AEBVDescriptorProto@23@@Z 0000000140072390 f   libprotobuf:descriptor.obj
 0001:00071790       ?ValidateProto3Enum@DescriptorBuilder@protobuf@google@@AEAAXPEAVEnumDescriptor@23@AEBVEnumDescriptorProto@23@@Z 0000000140072790 f   libprotobuf:descriptor.obj
 0001:000718b0       ?ValidateProto3Field@DescriptorBuilder@protobuf@google@@AEAAXPEAVFieldDescriptor@23@AEBVFieldDescriptorProto@23@@Z 00000001400728b0 f   libprotobuf:descriptor.obj
 0001:000720d0       ?ValidateProto3Message@DescriptorBuilder@protobuf@google@@AEAAXPEAVDescriptor@23@AEBVDescriptorProto@23@@Z 00000001400730d0 f   libprotobuf:descriptor.obj
 0001:00072d10       ?ValidateSymbolName@DescriptorBuilder@protobuf@google@@AEAAXAEBV?$basic_string@DU?$char_traits@D@std@@V?$allocator@D@2@@std@@0AEBVMessage@23@@Z 0000000140073d10 f   libprotobuf:descriptor.obj
 0001:00072ff0       ?_Change_array@?$vector@HV?$allocator@H@std@@@std@@AEAAXQEAH_K1@Z 0000000140073ff0 f i libprotobuf:descriptor.obj
 0001:00073080       ?_Change_array@?$vector@V?$unique_ptr@HUMiscDeleter@Tables@DescriptorPool@protobuf@google@@@std@@V?$allocator@V?$unique_ptr@HUMiscDeleter@Tables@DescriptorPool@protobuf@google@@@std@@@2@@std@@AEAAXQEAV?$unique_ptr@HUMiscDeleter@Tables@DescriptorPool@protobuf@google@@@2@_K1@Z 0000000140074080 f i libprotobuf:descriptor.obj
 0001:00073200       ?_Clear_and_reserve_geometric@?$vector@HV?$allocator@H@std@@@std@@AEAAX_K@Z 0000000140074200 f i libprotobuf:descriptor.obj
 0001:00073300       ?_Destroy@?$vector@V?$basic_string@DU?$char_traits@D@std@@V?$allocator@D@2@@std@@V?$allocator@V?$basic_string@DU?$char_traits@D@std@@V?$allocator@D@2@@std@@@2@@std@@AEAAXPEAV?$basic_string@DU?$char_traits@D@std@@V?$allocator@D@2@@2@0@Z 0000000140074300 f i libprotobuf:descriptor.obj
 0001:00073320       ?_Destroy@?$vector@V?$unique_ptr@HUMiscDeleter@Tables@DescriptorPool@protobuf@google@@@std@@V?$allocator@V?$unique_ptr@HUMiscDeleter@Tables@DescriptorPool@protobuf@google@@@std@@@2@@std@@AEAAXPEAV?$unique_ptr@HUMiscDeleter@Tables@DescriptorPool@protobuf@google@@@2@0@Z 0000000140074320 f i libprotobuf:descriptor.obj
 0001:000733a0       ?_Extract@?$_Tree_val@U?$_Tree_simple_types@PEBVFileDescriptor@protobuf@google@@@std@@@std@@QEAAPEAU?$_Tree_node@PEBVFileDescriptor@protobuf@google@@PEAX@2@V?$_Tree_unchecked_const_iterator@V?$_Tree_val@U?$_Tree_simple_types@PEBVFileDescriptor@protobuf@google@@@std@@@std@@U_Iterator_base0@2@@2@@Z 00000001400743a0 f i libprotobuf:descriptor.obj
 0001:000733a0       ?_Extract@?$_Tree_val@U?$_Tree_simple_types@U?$pair@$$CBHUExtension@ExtensionSet@internal@protobuf@google@@@std@@@std@@@std@@QEAAPEAU?$_Tree_node@U?$pair@$$CBHUExtension@ExtensionSet@internal@protobuf@google@@@std@@PEAX@2@V?$_Tree_unchecked_const_iterator@V?$_Tree_val@U?$_Tree_simple_types@U?$pair@$$CBHUExtension@ExtensionSet@internal@protobuf@google@@@std@@@std@@@std@@U_Iterator_base0@2@@2@@Z 00000001400743a0 f i libprotobuf:extension_set.obj
 0001:000733a0       ?_Extract@?$_Tree_val@U?$_Tree_simple_types@U?$pair@$$CBU?$pair@PEBVDescriptor@protobuf@google@@H@std@@PEBVFieldDescriptor@protobuf@google@@@std@@@std@@@std@@QEAAPEAU?$_Tree_node@U?$pair@$$CBU?$pair@PEBVDescriptor@protobuf@google@@H@std@@PEBVFieldDescriptor@protobuf@google@@@std@@PEAX@2@V?$_Tree_unchecked_const_iterator@V?$_Tree_val@U?$_Tree_simple_types@U?$pair@$$CBU?$pair@PEBVDescriptor@protobuf@google@@H@std@@PEBVFieldDescriptor@protobuf@google@@@std@@@std@@@std@@U_Iterator_base0@2@@2@@Z 00000001400743a0 f i libprotobuf:descriptor.obj
 0001:000733a0       ?_Extract@?$_Tree_val@U?$_Tree_simple_types@U?$pair@$$CBV?$reference_wrapper@$$CBVMapKey@protobuf@google@@@std@@PEAX@std@@@std@@@std@@QEAAPEAU?$_Tree_node@U?$pair@$$CBV?$reference_wrapper@$$CBVMapKey@protobuf@google@@@std@@PEAX@std@@PEAX@2@V?$_Tree_unchecked_const_iterator@V?$_Tree_val@U?$_Tree_simple_types@U?$pair@$$CBV?$reference_wrapper@$$CBVMapKey@protobuf@google@@@std@@PEAX@std@@@std@@@std@@U_Iterator_base0@2@@2@@Z 00000001400743a0 f i libprotobuf:map_field.obj
 0001:000739b0       ?_Forced_rehash@?$_Hash@V?$_Umap_traits@V?$basic_string@DU?$char_traits@D@std@@V?$allocator@D@2@@std@@PEBVSourceCodeInfo_Location@protobuf@google@@V?$_Uhash_compare@V?$basic_string@DU?$char_traits@D@std@@V?$allocator@D@2@@std@@U?$hash@V?$basic_string@DU?$char_traits@D@std@@V?$allocator@D@2@@std@@@2@U?$equal_to@V?$basic_string@DU?$char_traits@D@std@@V?$allocator@D@2@@std@@@2@@2@V?$allocator@U?$pair@$$CBV?$basic_string@DU?$char_traits@D@std@@V?$allocator@D@2@@std@@PEBVSourceCodeInfo_Location@protobuf@google@@@std@@@2@$0A@@std@@@std@@IEAAX_K@Z 00000001400749b0 f i libprotobuf:descriptor.obj
 0001:000739b0       ?_Forced_rehash@?$_Hash@V?$_Umap_traits@V?$basic_string@DU?$char_traits@D@std@@V?$allocator@D@2@@std@@W4WellKnownType@Descriptor@protobuf@google@@V?$_Uhash_compare@V?$basic_string@DU?$char_traits@D@std@@V?$allocator@D@2@@std@@U?$hash@V?$basic_string@DU?$char_traits@D@std@@V?$allocator@D@2@@std@@@2@U?$equal_to@V?$basic_string@DU?$char_traits@D@std@@V?$allocator@D@2@@std@@@2@@2@V?$allocator@U?$pair@$$CBV?$basic_string@DU?$char_traits@D@std@@V?$allocator@D@2@@std@@W4WellKnownType@Descriptor@protobuf@google@@@std@@@2@$0A@@std@@@std@@IEAAX_K@Z 00000001400749b0 f i libprotobuf:descriptor.obj
 0001:00073c30       ?_Forced_rehash@?$_Hash@V?$_Uset_traits@V?$basic_string@DU?$char_traits@D@std@@V?$allocator@D@2@@std@@V?$_Uhash_compare@V?$basic_string@DU?$char_traits@D@std@@V?$allocator@D@2@@std@@U?$hash@V?$basic_string@DU?$char_traits@D@std@@V?$allocator@D@2@@std@@@2@U?$equal_to@V?$basic_string@DU?$char_traits@D@std@@V?$allocator@D@2@@std@@@2@@2@V?$allocator@V?$basic_string@DU?$char_traits@D@std@@V?$allocator@D@2@@std@@@2@$0A@@std@@@std@@IEAAX_K@Z 0000000140074c30 f i libprotobuf:descriptor.obj
 0001:00074650       ?_Lrotate@?$_Tree_val@U?$_Tree_simple_types@PEBVFileDescriptor@protobuf@google@@@std@@@std@@QEAAXPEAU?$_Tree_node@PEBVFileDescriptor@protobuf@google@@PEAX@2@@Z 0000000140075650 f i libprotobuf:descriptor.obj
 0001:00074650       ?_Lrotate@?$_Tree_val@U?$_Tree_simple_types@U?$pair@$$CBHUExtension@ExtensionSet@internal@protobuf@google@@@std@@@std@@@std@@QEAAXPEAU?$_Tree_node@U?$pair@$$CBHUExtension@ExtensionSet@internal@protobuf@google@@@std@@PEAX@2@@Z 0000000140075650 f i libprotobuf:extension_set.obj
 0001:00074650       ?_Lrotate@?$_Tree_val@U?$_Tree_simple_types@U?$pair@$$CBU?$pair@PEBVDescriptor@protobuf@google@@H@std@@PEBVFieldDescriptor@protobuf@google@@@std@@@std@@@std@@QEAAXPEAU?$_Tree_node@U?$pair@$$CBU?$pair@PEBVDescriptor@protobuf@google@@H@std@@PEBVFieldDescriptor@protobuf@google@@@std@@PEAX@2@@Z 0000000140075650 f i libprotobuf:descriptor.obj
 0001:00074650       ?_Lrotate@?$_Tree_val@U?$_Tree_simple_types@U?$pair@$$CBV?$reference_wrapper@$$CBVMapKey@protobuf@google@@@std@@PEAX@std@@@std@@@std@@QEAAXPEAU?$_Tree_node@U?$pair@$$CBV?$reference_wrapper@$$CBVMapKey@protobuf@google@@@std@@PEAX@std@@PEAX@2@@Z 0000000140075650 f i libprotobuf:map_field.obj
 0001:000746b0       ?_Rehash_for_1@?$_Hash@V?$_Uset_traits@V?$basic_string@DU?$char_traits@D@std@@V?$allocator@D@2@@std@@V?$_Uhash_compare@V?$basic_string@DU?$char_traits@D@std@@V?$allocator@D@2@@std@@U?$hash@V?$basic_string@DU?$char_traits@D@std@@V?$allocator@D@2@@std@@@2@U?$equal_to@V?$basic_string@DU?$char_traits@D@std@@V?$allocator@D@2@@std@@@2@@2@V?$allocator@V?$basic_string@DU?$char_traits@D@std@@V?$allocator@D@2@@std@@@2@$0A@@std@@@std@@IEAAXXZ 00000001400756b0 f i libprotobuf:descriptor.obj
 0001:00074760       ?_Rrotate@?$_Tree_val@U?$_Tree_simple_types@PEBVFileDescriptor@protobuf@google@@@std@@@std@@QEAAXPEAU?$_Tree_node@PEBVFileDescriptor@protobuf@google@@PEAX@2@@Z 0000000140075760 f i libprotobuf:descriptor.obj
 0001:00074760       ?_Rrotate@?$_Tree_val@U?$_Tree_simple_types@U?$pair@$$CBHUExtension@ExtensionSet@internal@protobuf@google@@@std@@@std@@@std@@QEAAXPEAU?$_Tree_node@U?$pair@$$CBHUExtension@ExtensionSet@internal@protobuf@google@@@std@@PEAX@2@@Z 0000000140075760 f i libprotobuf:extension_set.obj
 0001:00074760       ?_Rrotate@?$_Tree_val@U?$_Tree_simple_types@U?$pair@$$CBU?$pair@PEBVDescriptor@protobuf@google@@H@std@@PEBVFieldDescriptor@protobuf@google@@@std@@@std@@@std@@QEAAXPEAU?$_Tree_node@U?$pair@$$CBU?$pair@PEBVDescriptor@protobuf@google@@H@std@@PEBVFieldDescriptor@protobuf@google@@@std@@PEAX@2@@Z 0000000140075760 f i libprotobuf:descriptor.obj
 0001:00074760       ?_Rrotate@?$_Tree_val@U?$_Tree_simple_types@U?$pair@$$CBV?$reference_wrapper@$$CBVMapKey@protobuf@google@@@std@@PEAX@std@@@std@@@std@@QEAAXPEAU?$_Tree_node@U?$pair@$$CBV?$reference_wrapper@$$CBVMapKey@protobuf@google@@@std@@PEAX@std@@PEAX@2@@Z 0000000140075760 f i libprotobuf:map_field.obj
 0001:000747c0       ?_Unchecked_erase@?$_Hash@V?$_Uset_traits@V?$basic_string@DU?$char_traits@D@std@@V?$allocator@D@2@@std@@V?$_Uhash_compare@V?$basic_string@DU?$char_traits@D@std@@V?$allocator@D@2@@std@@U?$hash@V?$basic_string@DU?$char_traits@D@std@@V?$allocator@D@2@@std@@@2@U?$equal_to@V?$basic_string@DU?$char_traits@D@std@@V?$allocator@D@2@@std@@@2@@2@V?$allocator@V?$basic_string@DU?$char_traits@D@std@@V?$allocator@D@2@@std@@@2@$0A@@std@@@std@@AEAAPEAU?$_List_node@V?$basic_string@DU?$char_traits@D@std@@V?$allocator@D@2@@std@@PEAX@2@PEAU32@QEAU32@@Z 00000001400757c0 f i libprotobuf:descriptor.obj
 0001:00074a00       ?allocate@?$allocator@U?$_Tree_node@U?$pair@$$CBV?$basic_string@DU?$char_traits@D@std@@V?$allocator@D@2@@std@@PEBVEnumValueDescriptor@protobuf@google@@@std@@PEAX@std@@@std@@QEAAPEAU?$_Tree_node@U?$pair@$$CBV?$basic_string@DU?$char_traits@D@std@@V?$allocator@D@2@@std@@PEBVEnumValueDescriptor@protobuf@google@@@std@@PEAX@2@_K@Z 0000000140075a00 f i libprotobuf:descriptor.obj
 0001:00074a00       ?allocate@?$allocator@U?$_Tree_node@U?$pair@$$CBV?$basic_string@DU?$char_traits@D@std@@V?$allocator@D@2@@std@@PEBVFieldDescriptor@protobuf@google@@@std@@PEAX@std@@@std@@QEAAPEAU?$_Tree_node@U?$pair@$$CBV?$basic_string@DU?$char_traits@D@std@@V?$allocator@D@2@@std@@PEBVFieldDescriptor@protobuf@google@@@std@@PEAX@2@_K@Z 0000000140075a00 f i libprotobuf:descriptor.obj
 0001:00074a80       ?allocate@?$allocator@U?$_Tree_node@U?$pair@$$CBV?$vector@HV?$allocator@H@std@@@std@@V12@@std@@PEAX@std@@@std@@QEAAPEAU?$_Tree_node@U?$pair@$$CBV?$vector@HV?$allocator@H@std@@@std@@V12@@std@@PEAX@2@_K@Z 0000000140075a80 f i libprotobuf:descriptor.obj
 0001:00074af0       ?allocate@?$allocator@V?$basic_string@DU?$char_traits@D@std@@V?$allocator@D@2@@std@@@std@@QEAAPEAV?$basic_string@DU?$char_traits@D@std@@V?$allocator@D@2@@2@_K@Z 0000000140075af0 f i libprotobuf:descriptor.obj
 0001:00074bd0       ?assign@?$basic_string@DU?$char_traits@D@std@@V?$allocator@D@2@@std@@QEAAAEAV12@_KD@Z 0000000140075bd0 f i libprotobuf:descriptor.obj
 0001:00074d40       ?clear@?$_Hash@V?$_Uset_traits@V?$basic_string@DU?$char_traits@D@std@@V?$allocator@D@2@@std@@V?$_Uhash_compare@V?$basic_string@DU?$char_traits@D@std@@V?$allocator@D@2@@std@@U?$hash@V?$basic_string@DU?$char_traits@D@std@@V?$allocator@D@2@@std@@@2@U?$equal_to@V?$basic_string@DU?$char_traits@D@std@@V?$allocator@D@2@@std@@@2@@2@V?$allocator@V?$basic_string@DU?$char_traits@D@std@@V?$allocator@D@2@@std@@@2@$0A@@std@@@std@@QEAAXXZ 0000000140075d40 f i libprotobuf:descriptor.obj
 0001:00074dd0       ?clear@?$_Tree@V?$_Tset_traits@PEBVFileDescriptor@protobuf@google@@U?$less@PEBVFileDescriptor@protobuf@google@@@std@@V?$allocator@PEBVFileDescriptor@protobuf@google@@@5@$0A@@std@@@std@@QEAAXXZ 0000000140075dd0 f i libprotobuf:descriptor.obj
 0001:00074e40       ?clear@?$list@VSymbol@protobuf@google@@V?$allocator@VSymbol@protobuf@google@@@std@@@std@@QEAAXXZ 0000000140075e40 f i libprotobuf:descriptor.obj
 0001:00074eb0       ?deallocate@?$allocator@UCheckPoint@Tables@DescriptorPool@protobuf@google@@@std@@QEAAXQEAUCheckPoint@Tables@DescriptorPool@protobuf@google@@_K@Z 0000000140075eb0 f i libprotobuf:descriptor.obj
 0001:00074f90       ?deallocate@?$allocator@V?$basic_string@DU?$char_traits@D@std@@V?$allocator@D@2@@std@@@std@@QEAAXQEAV?$basic_string@DU?$char_traits@D@std@@V?$allocator@D@2@@2@_K@Z 0000000140075f90 f i libprotobuf:descriptor.obj
 0001:00074fe0       ?default_value_enum@FieldDescriptor@protobuf@google@@QEBAPEBVEnumValueDescriptor@23@XZ 0000000140075fe0 f   libprotobuf:descriptor.obj
 0001:00075060       ?dependency@FileDescriptor@protobuf@google@@QEBAPEBV123@H@Z 0000000140076060 f   libprotobuf:descriptor.obj
 0001:00075270       ?enum_type@FieldDescriptor@protobuf@google@@QEBAPEBVEnumDescriptor@23@XZ 0000000140076270 f   libprotobuf:descriptor.obj
 0001:00075300       ?erase@?$_Tree@V?$_Tmap_traits@U?$pair@PEBVDescriptor@protobuf@google@@H@std@@PEBVFieldDescriptor@protobuf@google@@U?$less@U?$pair@PEBVDescriptor@protobuf@google@@H@std@@@2@V?$allocator@U?$pair@$$CBU?$pair@PEBVDescriptor@protobuf@google@@H@std@@PEBVFieldDescriptor@protobuf@google@@@std@@@2@$0A@@std@@@std@@QEAA_KAEBU?$pair@PEBVDescriptor@protobuf@google@@H@2@@Z 0000000140076300 f i libprotobuf:descriptor.obj
 0001:00075560       ?erase@?$_Tree@V?$_Tset_traits@PEBVFileDescriptor@protobuf@google@@U?$less@PEBVFileDescriptor@protobuf@google@@@std@@V?$allocator@PEBVFileDescriptor@protobuf@google@@@5@$0A@@std@@@std@@QEAA_KAEBQEBVFileDescriptor@protobuf@google@@@Z 0000000140076560 f i libprotobuf:descriptor.obj
 0001:00075760       ?find@?$_Tree@V?$_Tmap_traits@V?$basic_string@DU?$char_traits@D@std@@V?$allocator@D@2@@std@@_NU?$less@V?$basic_string@DU?$char_traits@D@std@@V?$allocator@D@2@@std@@@2@V?$allocator@U?$pair@$$CBV?$basic_string@DU?$char_traits@D@std@@V?$allocator@D@2@@std@@_N@std@@@2@$0A@@std@@@std@@QEBA?AV?$_Tree_const_iterator@V?$_Tree_val@U?$_Tree_simple_types@U?$pair@$$CBV?$basic_string@DU?$char_traits@D@std@@V?$allocator@D@2@@std@@_N@std@@@std@@@std@@@2@AEBV?$basic_string@DU?$char_traits@D@std@@V?$allocator@D@2@@2@@Z 0000000140076760 f i libprotobuf:descriptor.obj
 0001:000757f0       ?full_name@Symbol@protobuf@google@@QEBA?AVStringPiece@stringpiece_internal@23@XZ 00000001400767f0 f i libprotobuf:descriptor.obj
 0001:00075a00       ?generated_pool@DescriptorPool@protobuf@google@@SAPEBV123@XZ 0000000140076a00 f   libprotobuf:descriptor.obj
 0001:00075b70       ?internal_generated_pool@DescriptorPool@protobuf@google@@SAPEAV123@XZ 0000000140076b70 f   libprotobuf:descriptor.obj
 0001:00075ce0       ?is_map_message_type@FieldDescriptor@protobuf@google@@AEBA_NXZ 0000000140076ce0 f   libprotobuf:descriptor.obj
 0001:00075cf0       ?is_packed@FieldDescriptor@protobuf@google@@QEBA_NXZ 0000000140076cf0 f   libprotobuf:descriptor.obj
 0001:00075d50       ?is_repeated@FieldDescriptor@protobuf@google@@QEBA_NXZ 0000000140076d50 f i libprotobuf:descriptor.obj
 0001:00075d60       ?map_key@Descriptor@protobuf@google@@QEBAPEBVFieldDescriptor@23@XZ 0000000140076d60 f   libprotobuf:descriptor.obj
 0001:00075d80       ?map_value@Descriptor@protobuf@google@@QEBAPEBVFieldDescriptor@23@XZ 0000000140076d80 f   libprotobuf:descriptor.obj
 0001:00075da0       ?message_type@FieldDescriptor@protobuf@google@@QEBAPEBVDescriptor@23@XZ 0000000140076da0 f   libprotobuf:descriptor.obj
 0001:00075e30       ?parent_name_key@Symbol@protobuf@google@@QEBA?AU?$pair@PEBXVStringPiece@stringpiece_internal@protobuf@google@@@std@@XZ 0000000140076e30 f i libprotobuf:descriptor.obj
 0001:00076110       ?parent_number_key@Symbol@protobuf@google@@QEBA?AU?$pair@PEBXH@std@@XZ 0000000140077110 f i libprotobuf:descriptor.obj
 0001:000761e0       ?push_back@?$vector@HV?$allocator@H@std@@@std@@QEAAXAEBH@Z 00000001400771e0 f i libprotobuf:descriptor.obj
 0001:000762c0       ?replace@?$basic_string@DU?$char_traits@D@std@@V?$allocator@D@2@@std@@QEAAAEAV12@_K_KQEBD0@Z 00000001400772c0 f i libprotobuf:descriptor.obj
 0001:00076470       ?reset@?$unique_ptr@VUnknownFieldSet@protobuf@google@@U?$default_delete@VUnknownFieldSet@protobuf@google@@@std@@@std@@QEAAXPEAVUnknownFieldSet@protobuf@google@@@Z 0000000140077470 f i libprotobuf:descriptor.obj
 0001:000764b0       ??$FindExtensionInfoFromFieldNumber@VDescriptorPoolExtensionFinder@internal@protobuf@google@@@ExtensionSet@internal@protobuf@google@@AEBA_NHHPEAVDescriptorPoolExtensionFinder@123@PEAUExtensionInfo@123@PEA_N@Z 00000001400774b0 f i libprotobuf:extension_set_heavy.obj
 0001:000768d0       ??$PackedEnumParserArg@VUnknownFieldSet@protobuf@google@@@internal@protobuf@google@@YAPEBDPEAXPEBDPEAVParseContext@012@P6A_NPEBXH@Z3PEAVInternalMetadata@012@H@Z 00000001400778d0 f i libprotobuf:extension_set_heavy.obj
 0001:00076ab0       ??$ParseFieldWithExtensionInfo@VUnknownFieldSet@protobuf@google@@@ExtensionSet@internal@protobuf@google@@AEAAPEBDH_NAEBUExtensionInfo@123@PEAVInternalMetadata@123@PEBDPEAVParseContext@123@@Z 0000000140077ab0 f i libprotobuf:extension_set_heavy.obj
 0001:000775f0       ??$ReadPackedVarintArray@V<lambda_bd8624a5e2f3766cd6bada05db9427c5>@@@internal@protobuf@google@@YAPEBDPEBD0V<lambda_bd8624a5e2f3766cd6bada05db9427c5>@@@Z 00000001400785f0 f i libprotobuf:extension_set_heavy.obj
 0001:000776d0       ??$arena_destruct_object@V?$RepeatedPtrField@VMessage@protobuf@google@@@protobuf@google@@@internal@protobuf@google@@YAXPEAX@Z 00000001400786d0 f i libprotobuf:map_field.obj
 0001:000776d0       ??$arena_destruct_object@V?$RepeatedPtrField@VMessageLite@protobuf@google@@@protobuf@google@@@internal@protobuf@google@@YAXPEAX@Z 00000001400786d0 f i libprotobuf:extension_set_heavy.obj
 0001:000776f0       ?AddMessage@ExtensionSet@internal@protobuf@google@@QEAAPEAVMessageLite@34@PEBVFieldDescriptor@34@PEAVMessageFactory@34@@Z 00000001400786f0 f   libprotobuf:extension_set_heavy.obj
 0001:00077850       ?AppendToList@ExtensionSet@internal@protobuf@google@@QEBAXPEBVDescriptor@34@PEBVDescriptorPool@34@PEAV?$vector@PEBVFieldDescriptor@protobuf@google@@V?$allocator@PEBVFieldDescriptor@protobuf@google@@@std@@@std@@@Z 0000000140078850 f   libprotobuf:extension_set_heavy.obj
 0001:00077880       ?FindExtension@ExtensionSet@internal@protobuf@google@@AEAA_NHIPEBVMessage@34@PEBVParseContext@234@PEAUExtensionInfo@234@PEA_N@Z 0000000140078880 f i libprotobuf:extension_set_heavy.obj
 0001:00077990       ?GetMessage@ExtensionSet@internal@protobuf@google@@QEBAAEBVMessageLite@34@HPEBVDescriptor@34@PEAVMessageFactory@34@@Z 0000000140078990 f   libprotobuf:extension_set_heavy.obj
 0001:00077a10       ?MaybeNewRepeatedExtension@ExtensionSet@internal@protobuf@google@@AEAAPEAUExtension@1234@PEBVFieldDescriptor@34@@Z 0000000140078a10 f   libprotobuf:extension_set_heavy.obj
 0001:00077ae0       ?MutableMessage@ExtensionSet@internal@protobuf@google@@QEAAPEAVMessageLite@34@PEBVFieldDescriptor@34@PEAVMessageFactory@34@@Z 0000000140078ae0 f   libprotobuf:extension_set_heavy.obj
 0001:00077bd0       ?ParseField@ExtensionSet@internal@protobuf@google@@QEAAPEBD_KPEBDPEBVMessage@34@PEAVInternalMetadata@234@PEAVParseContext@234@@Z 0000000140078bd0 f   libprotobuf:extension_set_heavy.obj
 0001:00077cc0       ?SpaceUsedExcludingSelfLong@Extension@ExtensionSet@internal@protobuf@google@@QEBA_KXZ 0000000140078cc0 f   libprotobuf:extension_set_heavy.obj
 0001:00077e90       ?SpaceUsedExcludingSelfLong@ExtensionSet@internal@protobuf@google@@QEBA_KXZ 0000000140078e90 f   libprotobuf:extension_set_heavy.obj
 0001:00077f80       ?UnsafeArenaReleaseMessage@ExtensionSet@internal@protobuf@google@@QEAAPEAVMessageLite@34@PEBVFieldDescriptor@34@PEAVMessageFactory@34@@Z 0000000140078f80 f   libprotobuf:extension_set_heavy.obj
 0001:000781d0       ??$_Erase_tree@V?$allocator@U?$_Tree_node@U?$pair@$$CBHUExtension@ExtensionSet@internal@protobuf@google@@@std@@PEAX@std@@@std@@@?$_Tree_val@U?$_Tree_simple_types@U?$pair@$$CBHUExtension@ExtensionSet@internal@protobuf@google@@@std@@@std@@@std@@QEAAXAEAV?$allocator@U?$_Tree_node@U?$pair@$$CBHUExtension@ExtensionSet@internal@protobuf@google@@@std@@PEAX@std@@@1@PEAU?$_Tree_node@U?$pair@$$CBHUExtension@ExtensionSet@internal@protobuf@google@@@std@@PEAX@1@@Z 00000001400791d0 f i libprotobuf:extension_set.obj
 0001:00078230       ??$_Find_hint@H@?$_Tree@V?$_Tmap_traits@HUExtension@ExtensionSet@internal@protobuf@google@@U?$less@H@std@@V?$allocator@U?$pair@$$CBHUExtension@ExtensionSet@internal@protobuf@google@@@std@@@7@$0A@@std@@@std@@IEBA?AU?$_Tree_find_hint_result@PEAU?$_Tree_node@U?$pair@$$CBHUExtension@ExtensionSet@internal@protobuf@google@@@std@@PEAX@std@@@1@QEAU?$_Tree_node@U?$pair@$$CBHUExtension@ExtensionSet@internal@protobuf@google@@@std@@PEAX@1@AEBH@Z 0000000140079230 f i libprotobuf:extension_set.obj
 0001:00078430       ??$arena_destruct_object@V?$RepeatedField@H@protobuf@google@@@internal@protobuf@google@@YAXPEAX@Z 0000000140079430 f i libprotobuf:extension_set.obj
 0001:00078430       ??$arena_destruct_object@V?$RepeatedField@I@protobuf@google@@@internal@protobuf@google@@YAXPEAX@Z 0000000140079430 f i libprotobuf:extension_set.obj
 0001:00078430       ??$arena_destruct_object@V?$RepeatedField@M@protobuf@google@@@internal@protobuf@google@@YAXPEAX@Z 0000000140079430 f i libprotobuf:extension_set.obj
 0001:00078440       ??$arena_destruct_object@V?$RepeatedField@N@protobuf@google@@@internal@protobuf@google@@YAXPEAX@Z 0000000140079440 f i libprotobuf:extension_set.obj
 0001:00078440       ??$arena_destruct_object@V?$RepeatedField@_J@protobuf@google@@@internal@protobuf@google@@YAXPEAX@Z 0000000140079440 f i libprotobuf:extension_set.obj
 0001:00078440       ??$arena_destruct_object@V?$RepeatedField@_K@protobuf@google@@@internal@protobuf@google@@YAXPEAX@Z 0000000140079440 f i libprotobuf:extension_set.obj
 0001:00078450       ??$arena_destruct_object@V?$RepeatedField@_N@protobuf@google@@@internal@protobuf@google@@YAXPEAX@Z 0000000140079450 f i libprotobuf:extension_set.obj
 0001:00078460       ??$arena_destruct_object@V?$RepeatedPtrField@V?$basic_string@DU?$char_traits@D@std@@V?$allocator@D@2@@std@@@protobuf@google@@@internal@protobuf@google@@YAXPEAX@Z 0000000140079460 f i libprotobuf:extension_set.obj
 0001:00078470       ??$arena_destruct_object@V?$map@HUExtension@ExtensionSet@internal@protobuf@google@@U?$less@H@std@@V?$allocator@U?$pair@$$CBHUExtension@ExtensionSet@internal@protobuf@google@@@std@@@7@@std@@@internal@protobuf@google@@YAXPEAX@Z 0000000140079470 f i libprotobuf:extension_set.obj
 0001:000784d0       ??0ExtensionSet@internal@protobuf@google@@QEAA@PEAVArena@23@@Z 00000001400794d0 f   libprotobuf:extension_set.obj
 0001:000784e0       ??1ExtensionSet@internal@protobuf@google@@QEAA@XZ 00000001400794e0 f   libprotobuf:extension_set.obj
 0001:000785f0       ??E?$_Tree_unchecked_const_iterator@V?$_Tree_val@U?$_Tree_simple_types@U?$pair@$$CBHUExtension@ExtensionSet@internal@protobuf@google@@@std@@@std@@@std@@U_Iterator_base0@2@@std@@QEAAAEAV01@XZ 00000001400795f0 f i libprotobuf:extension_set.obj
 0001:000785f0       ??E?$_Tree_unchecked_const_iterator@V?$_Tree_val@U?$_Tree_simple_types@USymbolEntry@DescriptorIndex@EncodedDescriptorDatabase@protobuf@google@@@std@@@std@@U_Iterator_base0@2@@std@@QEAAAEAV01@XZ 00000001400795f0 f i libprotobuf:descriptor_database.obj
 0001:00078660       ??_G?$map@HUExtension@ExtensionSet@internal@protobuf@google@@U?$less@H@std@@V?$allocator@U?$pair@$$CBHUExtension@ExtensionSet@internal@protobuf@google@@@std@@@7@@std@@QEAAPEAXI@Z 0000000140079660 f i libprotobuf:extension_set.obj
 0001:000786e0       ?AddAllocated@?$RepeatedPtrField@VMessageLite@protobuf@google@@@protobuf@google@@QEAAXPEAVMessageLite@23@@Z 00000001400796e0 f i libprotobuf:extension_set.obj
 0001:000787b0       ?AddBool@ExtensionSet@internal@protobuf@google@@QEAAXHE_N0PEBVFieldDescriptor@34@@Z 00000001400797b0 f   libprotobuf:extension_set.obj
 0001:00078890       ?AddDouble@ExtensionSet@internal@protobuf@google@@QEAAXHE_NNPEBVFieldDescriptor@34@@Z 0000000140079890 f   libprotobuf:extension_set.obj
 0001:00078970       ?AddEnum@ExtensionSet@internal@protobuf@google@@QEAAXHE_NHPEBVFieldDescriptor@34@@Z 0000000140079970 f   libprotobuf:extension_set.obj
 0001:00078970       ?AddInt32@ExtensionSet@internal@protobuf@google@@QEAAXHE_NHPEBVFieldDescriptor@34@@Z 0000000140079970 f   libprotobuf:extension_set.obj
 0001:00078a50       ?AddFloat@ExtensionSet@internal@protobuf@google@@QEAAXHE_NMPEBVFieldDescriptor@34@@Z 0000000140079a50 f   libprotobuf:extension_set.obj
 0001:00078b30       ?AddInt64@ExtensionSet@internal@protobuf@google@@QEAAXHE_N_JPEBVFieldDescriptor@34@@Z 0000000140079b30 f   libprotobuf:extension_set.obj
 0001:00078c10       ?AddMessage@ExtensionSet@internal@protobuf@google@@QEAAPEAVMessageLite@34@HEAEBV534@PEBVFieldDescriptor@34@@Z 0000000140079c10 f   libprotobuf:extension_set.obj
 0001:00078d30       ?AddString@ExtensionSet@internal@protobuf@google@@QEAAPEAV?$basic_string@DU?$char_traits@D@std@@V?$allocator@D@2@@std@@HEPEBVFieldDescriptor@34@@Z 0000000140079d30 f   libprotobuf:extension_set.obj
 0001:00078e00       ?AddUInt32@ExtensionSet@internal@protobuf@google@@QEAAXHE_NIPEBVFieldDescriptor@34@@Z 0000000140079e00 f   libprotobuf:extension_set.obj
 0001:00078ee0       ?AddUInt64@ExtensionSet@internal@protobuf@google@@QEAAXHE_N_KPEBVFieldDescriptor@34@@Z 0000000140079ee0 f   libprotobuf:extension_set.obj
 0001:00078fc0       ?ByteSize@Extension@ExtensionSet@internal@protobuf@google@@QEBA_KH@Z 0000000140079fc0 f   libprotobuf:extension_set.obj
 0001:00079a30       ?ByteSize@ExtensionSet@internal@protobuf@google@@QEBA_KXZ 000000014007aa30 f   libprotobuf:extension_set.obj
 0001:00079b20       ?Clear@Extension@ExtensionSet@internal@protobuf@google@@QEAAXXZ 000000014007ab20 f   libprotobuf:extension_set.obj
 0001:00079cd0       ?Clear@ExtensionSet@internal@protobuf@google@@QEAAXXZ 000000014007acd0 f   libprotobuf:extension_set.obj
 0001:00079d90       ?ClearExtension@ExtensionSet@internal@protobuf@google@@QEAAXH@Z 000000014007ad90 f   libprotobuf:extension_set.obj
 0001:00079db0       ?Erase@ExtensionSet@internal@protobuf@google@@AEAAXH@Z 000000014007adb0 f   libprotobuf:extension_set.obj
 0001:00079e50       ?ExtensionSize@ExtensionSet@internal@protobuf@google@@QEBAHH@Z 000000014007ae50 f   libprotobuf:extension_set.obj
 0001:0007a010       ?Find@GeneratedExtensionFinder@internal@protobuf@google@@QEAA_NHPEAUExtensionInfo@234@@Z 000000014007b010 f   libprotobuf:extension_set.obj
 0001:0007a050       ?FindOrNull@ExtensionSet@internal@protobuf@google@@AEAAPEAUExtension@1234@H@Z 000000014007b050 f   libprotobuf:extension_set.obj
 0001:0007a060       ?FindOrNull@ExtensionSet@internal@protobuf@google@@AEBAPEBUExtension@1234@H@Z 000000014007b060 f   libprotobuf:extension_set.obj
 0001:0007a260       ?Free@Extension@ExtensionSet@internal@protobuf@google@@QEAAXXZ 000000014007b260 f   libprotobuf:extension_set.obj
 0001:0007a470       ?GetBool@ExtensionSet@internal@protobuf@google@@QEBA_NH_N@Z 000000014007b470 f   libprotobuf:extension_set.obj
 0001:0007a4a0       ?GetDouble@ExtensionSet@internal@protobuf@google@@QEBANHN@Z 000000014007b4a0 f   libprotobuf:extension_set.obj
 0001:0007a4e0       ?GetEnum@ExtensionSet@internal@protobuf@google@@QEBAHHH@Z 000000014007b4e0 f   libprotobuf:extension_set.obj
 0001:0007a4e0       ?GetInt32@ExtensionSet@internal@protobuf@google@@QEBAHHH@Z 000000014007b4e0 f   libprotobuf:extension_set.obj
 0001:0007a4e0       ?GetUInt32@ExtensionSet@internal@protobuf@google@@QEBAIHI@Z 000000014007b4e0 f   libprotobuf:extension_set.obj
 0001:0007a510       ?GetFloat@ExtensionSet@internal@protobuf@google@@QEBAMHM@Z 000000014007b510 f   libprotobuf:extension_set.obj
 0001:0007a550       ?GetInt64@ExtensionSet@internal@protobuf@google@@QEBA_JH_J@Z 000000014007b550 f   libprotobuf:extension_set.obj
 0001:0007a550       ?GetString@ExtensionSet@internal@protobuf@google@@QEBAAEBV?$basic_string@DU?$char_traits@D@std@@V?$allocator@D@2@@std@@HAEBV56@@Z 000000014007b550 f   libprotobuf:extension_set.obj
 0001:0007a550       ?GetUInt64@ExtensionSet@internal@protobuf@google@@QEBA_KH_K@Z 000000014007b550 f   libprotobuf:extension_set.obj
 0001:0007a580       ?GetPrototypeForLazyMessage@ExtensionSet@internal@protobuf@google@@AEBAPEBVMessageLite@34@PEBV534@H@Z 000000014007b580 f   libprotobuf:extension_set.obj
 0001:0007a610       ?GetRepeatedBool@ExtensionSet@internal@protobuf@google@@QEBA_NHH@Z 000000014007b610 f   libprotobuf:extension_set.obj
 0001:0007a6c0       ?GetRepeatedDouble@ExtensionSet@internal@protobuf@google@@QEBANHH@Z 000000014007b6c0 f   libprotobuf:extension_set.obj
 0001:0007a770       ?GetRepeatedEnum@ExtensionSet@internal@protobuf@google@@QEBAHHH@Z 000000014007b770 f   libprotobuf:extension_set.obj
 0001:0007a820       ?GetRepeatedFloat@ExtensionSet@internal@protobuf@google@@QEBAMHH@Z 000000014007b820 f   libprotobuf:extension_set.obj
 0001:0007a8d0       ?GetRepeatedInt32@ExtensionSet@internal@protobuf@google@@QEBAHHH@Z 000000014007b8d0 f   libprotobuf:extension_set.obj
 0001:0007a980       ?GetRepeatedInt64@ExtensionSet@internal@protobuf@google@@QEBA_JHH@Z 000000014007b980 f   libprotobuf:extension_set.obj
 0001:0007aa30       ?GetRepeatedMessage@ExtensionSet@internal@protobuf@google@@QEBAAEBVMessageLite@34@HH@Z 000000014007ba30 f   libprotobuf:extension_set.obj
 0001:0007aaf0       ?GetRepeatedString@ExtensionSet@internal@protobuf@google@@QEBAAEBV?$basic_string@DU?$char_traits@D@std@@V?$allocator@D@2@@std@@HH@Z 000000014007baf0 f   libprotobuf:extension_set.obj
 0001:0007aba0       ?GetRepeatedUInt32@ExtensionSet@internal@protobuf@google@@QEBAIHH@Z 000000014007bba0 f   libprotobuf:extension_set.obj
 0001:0007ac50       ?GetRepeatedUInt64@ExtensionSet@internal@protobuf@google@@QEBA_KHH@Z 000000014007bc50 f   libprotobuf:extension_set.obj
 0001:0007ad00       ?GetSize@Extension@ExtensionSet@internal@protobuf@google@@QEBAHXZ 000000014007bd00 f   libprotobuf:extension_set.obj
 0001:0007aeb0       ?GrowCapacity@ExtensionSet@internal@protobuf@google@@AEAAX_K@Z 000000014007beb0 f   libprotobuf:extension_set.obj
 0001:0007b150       ?Has@ExtensionSet@internal@protobuf@google@@QEBA_NH@Z 000000014007c150 f   libprotobuf:extension_set.obj
 0001:0007b170       ?Insert@ExtensionSet@internal@protobuf@google@@AEAA?AU?$pair@PEAUExtension@ExtensionSet@internal@protobuf@google@@_N@std@@H@Z 000000014007c170 f   libprotobuf:extension_set.obj
 0001:0007b370       ?InternalExtensionMergeFrom@ExtensionSet@internal@protobuf@google@@AEAAXPEBVMessageLite@34@HAEBUExtension@1234@PEAVArena@34@@Z 000000014007c370 f   libprotobuf:extension_set.obj
 0001:0007be10       ?InternalSerializeFieldWithCachedSizesToArray@Extension@ExtensionSet@internal@protobuf@google@@QEBAPEAEPEBVMessageLite@45@PEBV2345@HPEAEPEAVEpsCopyOutputStream@io@45@@Z 000000014007ce10 f   libprotobuf:extension_set.obj
 0001:0007dac0       ?InternalSwap@ExtensionSet@internal@protobuf@google@@QEAAXPEAV1234@@Z 000000014007eac0 f   libprotobuf:extension_set.obj
 0001:0007db10       ?IsInitialized@Extension@ExtensionSet@internal@protobuf@google@@QEBA_NXZ 000000014007eb10 f   libprotobuf:extension_set.obj
 0001:0007dbc0       ?IsInitialized@ExtensionSet@internal@protobuf@google@@QEBA_NXZ 000000014007ebc0 f   libprotobuf:extension_set.obj
 0001:0007dcb0       ?MaybeNewExtension@ExtensionSet@internal@protobuf@google@@AEAA_NHPEBVFieldDescriptor@34@PEAPEAUExtension@1234@@Z 000000014007ecb0 f   libprotobuf:extension_set.obj
 0001:0007dcf0       ?MergeFrom@ExtensionSet@internal@protobuf@google@@QEAAXPEBVMessageLite@34@AEBV1234@@Z 000000014007ecf0 f   libprotobuf:extension_set.obj
 0001:0007ded0       ?MutableMessage@ExtensionSet@internal@protobuf@google@@QEAAPEAVMessageLite@34@HEAEBV534@PEBVFieldDescriptor@34@@Z 000000014007eed0 f   libprotobuf:extension_set.obj
 0001:0007df70       ?MutableRawRepeatedField@ExtensionSet@internal@protobuf@google@@QEAAPEAXHE_NPEBVFieldDescriptor@34@@Z 000000014007ef70 f   libprotobuf:extension_set.obj
 0001:0007e470       ?MutableString@ExtensionSet@internal@protobuf@google@@QEAAPEAV?$basic_string@DU?$char_traits@D@std@@V?$allocator@D@2@@std@@HEPEBVFieldDescriptor@34@@Z 000000014007f470 f   libprotobuf:extension_set.obj
 0001:0007e580       ?SetBool@ExtensionSet@internal@protobuf@google@@QEAAXHE_NPEBVFieldDescriptor@34@@Z 000000014007f580 f   libprotobuf:extension_set.obj
 0001:0007e5d0       ?SetDouble@ExtensionSet@internal@protobuf@google@@QEAAXHENPEBVFieldDescriptor@34@@Z 000000014007f5d0 f   libprotobuf:extension_set.obj
 0001:0007e620       ?SetEnum@ExtensionSet@internal@protobuf@google@@QEAAXHEHPEBVFieldDescriptor@34@@Z 000000014007f620 f   libprotobuf:extension_set.obj
 0001:0007e620       ?SetInt32@ExtensionSet@internal@protobuf@google@@QEAAXHEHPEBVFieldDescriptor@34@@Z 000000014007f620 f   libprotobuf:extension_set.obj
 0001:0007e620       ?SetUInt32@ExtensionSet@internal@protobuf@google@@QEAAXHEIPEBVFieldDescriptor@34@@Z 000000014007f620 f   libprotobuf:extension_set.obj
 0001:0007e670       ?SetFloat@ExtensionSet@internal@protobuf@google@@QEAAXHEMPEBVFieldDescriptor@34@@Z 000000014007f670 f   libprotobuf:extension_set.obj
 0001:0007e6c0       ?SetInt64@ExtensionSet@internal@protobuf@google@@QEAAXHE_JPEBVFieldDescriptor@34@@Z 000000014007f6c0 f   libprotobuf:extension_set.obj
 0001:0007e6c0       ?SetUInt64@ExtensionSet@internal@protobuf@google@@QEAAXHE_KPEBVFieldDescriptor@34@@Z 000000014007f6c0 f   libprotobuf:extension_set.obj
 0001:0007e710       ?UnsafeArenaSetAllocatedMessage@ExtensionSet@internal@protobuf@google@@QEAAXHEPEBVFieldDescriptor@34@PEAVMessageLite@34@@Z 000000014007f710 f   libprotobuf:extension_set.obj
 0001:0007e7d0       ?_InternalSerializeImpl@ExtensionSet@internal@protobuf@google@@AEBAPEAEPEBVMessageLite@34@HHPEAEPEAVEpsCopyOutputStream@io@34@@Z 000000014007f7d0 f   libprotobuf:extension_set.obj
 0001:0007e970       ?erase@?$_Tree@V?$_Tmap_traits@HUExtension@ExtensionSet@internal@protobuf@google@@U?$less@H@std@@V?$allocator@U?$pair@$$CBHUExtension@ExtensionSet@internal@protobuf@google@@@std@@@7@$0A@@std@@@std@@QEAA_KAEBH@Z 000000014007f970 f i libprotobuf:extension_set.obj
 0001:0007ebb0       ??$?AVMapKey@protobuf@google@@@?$Map@VMapKey@protobuf@google@@VMapValueRef@23@@protobuf@google@@QEAAAEAVMapValueRef@12@AEBVMapKey@12@@Z 000000014007fbb0 f i libprotobuf:map_field.obj
 0001:0007ecd0       ??$FindHelper@VMapKey@protobuf@google@@@InnerMap@?$Map@VMapKey@protobuf@google@@VMapValueRef@23@@protobuf@google@@AEBA?AU?$pair@V?$iterator_base@$$CBU?$MapPair@VMapKey@protobuf@google@@VMapValueRef@23@@protobuf@google@@@InnerMap@?$Map@VMapKey@protobuf@google@@VMapValueRef@23@@protobuf@google@@_K@std@@AEBVMapKey@23@PEAV?$_Tree_iterator@V?$_Tree_val@U?$_Tree_simple_types@U?$pair@$$CBV?$reference_wrapper@$$CBVMapKey@protobuf@google@@@std@@PEAX@std@@@std@@@std@@@5@@Z 000000014007fcd0 f i libprotobuf:map_field.obj
 0001:0007edf0       ??$MergeFrom@VTypeHandler@?$RepeatedPtrField@VMessage@protobuf@google@@@protobuf@google@@@RepeatedPtrFieldBase@internal@protobuf@google@@QEAAXAEBV0123@@Z 000000014007fdf0 f i libprotobuf:map_field.obj
 0001:0007ee60       ??$_Erase_tree@V?$MapAllocator@U?$_Tree_node@U?$pair@$$CBV?$reference_wrapper@$$CBVMapKey@protobuf@google@@@std@@PEAX@std@@PEAX@std@@@internal@protobuf@google@@@?$_Tree_val@U?$_Tree_simple_types@U?$pair@$$CBV?$reference_wrapper@$$CBVMapKey@protobuf@google@@@std@@PEAX@std@@@std@@@std@@QEAAXAEAV?$MapAllocator@U?$_Tree_node@U?$pair@$$CBV?$reference_wrapper@$$CBVMapKey@protobuf@google@@@std@@PEAX@std@@PEAX@std@@@internal@protobuf@google@@PEAU?$_Tree_node@U?$pair@$$CBV?$reference_wrapper@$$CBVMapKey@protobuf@google@@@std@@PEAX@std@@PEAX@1@@Z 000000014007fe60 f i libprotobuf:map_field.obj
 0001:0007eec0       ??$_Find_lower_bound@V?$reference_wrapper@$$CBVMapKey@protobuf@google@@@std@@@?$_Tree@V?$_Tmap_traits@V?$reference_wrapper@$$CBVMapKey@protobuf@google@@@std@@PEAXU?$less@VMapKey@protobuf@google@@@2@V?$MapAllocator@U?$pair@$$CBV?$reference_wrapper@$$CBVMapKey@protobuf@google@@@std@@PEAX@std@@@internal@protobuf@google@@$0A@@std@@@std@@IEBA?AU?$_Tree_find_result@PEAU?$_Tree_node@U?$pair@$$CBV?$reference_wrapper@$$CBVMapKey@protobuf@google@@@std@@PEAX@std@@PEAX@std@@@1@AEBV?$reference_wrapper@$$CBVMapKey@protobuf@google@@@1@@Z 000000014007fec0 f i libprotobuf:map_field.obj
 0001:0007f0a0       ??$arena_destruct_object@V?$map@V?$reference_wrapper@$$CBVMapKey@protobuf@google@@@std@@PEAXU?$less@VMapKey@protobuf@google@@@2@V?$MapAllocator@U?$pair@$$CBV?$reference_wrapper@$$CBVMapKey@protobuf@google@@@std@@PEAX@std@@@internal@protobuf@google@@@std@@@internal@protobuf@google@@YAXPEAX@Z 00000001400800a0 f i libprotobuf:map_field.obj
 0001:0007f0b0       ??$insert@$0A@$0A@@?$_Tree@V?$_Tmap_traits@V?$reference_wrapper@$$CBVMapKey@protobuf@google@@@std@@PEAXU?$less@VMapKey@protobuf@google@@@2@V?$MapAllocator@U?$pair@$$CBV?$reference_wrapper@$$CBVMapKey@protobuf@google@@@std@@PEAX@std@@@internal@protobuf@google@@$0A@@std@@@std@@QEAA?AU?$pair@V?$_Tree_iterator@V?$_Tree_val@U?$_Tree_simple_types@U?$pair@$$CBV?$reference_wrapper@$$CBVMapKey@protobuf@google@@@std@@PEAX@std@@@std@@@std@@@std@@_N@1@$$QEAU?$pair@$$CBV?$reference_wrapper@$$CBVMapKey@protobuf@google@@@std@@PEAX@1@@Z 00000001400800b0 f i libprotobuf:map_field.obj
 0001:0007f1b0       ??$insert@Vconst_iterator@?$Map@VMapKey@protobuf@google@@VMapValueRef@23@@protobuf@google@@@?$Map@VMapKey@protobuf@google@@VMapValueRef@23@@protobuf@google@@QEAAXVconst_iterator@012@0@Z 00000001400801b0 f i libprotobuf:map_field.obj
 0001:0007f510       ??0DynamicMapField@internal@protobuf@google@@QEAA@PEBVMessage@23@@Z 0000000140080510 f   libprotobuf:map_field.obj
 0001:0007f590       ??0DynamicMapField@internal@protobuf@google@@QEAA@PEBVMessage@23@PEAVArena@23@@Z 0000000140080590 f   libprotobuf:map_field.obj
 0001:0007f610       ??1?$Map@VMapKey@protobuf@google@@VMapValueRef@23@@protobuf@google@@QEAA@XZ 0000000140080610 f i libprotobuf:map_field.obj
 0001:0007f650       ??1?$_Alloc_construct_ptr@V?$MapAllocator@U?$_Tree_node@U?$pair@$$CBV?$reference_wrapper@$$CBVMapKey@protobuf@google@@@std@@PEAX@std@@PEAX@std@@@internal@protobuf@google@@@std@@QEAA@XZ 0000000140080650 f i libprotobuf:map_field.obj
 0001:0007f670       ??1?$_Tree@V?$_Tmap_traits@V?$reference_wrapper@$$CBVMapKey@protobuf@google@@@std@@PEAXU?$less@VMapKey@protobuf@google@@@2@V?$MapAllocator@U?$pair@$$CBV?$reference_wrapper@$$CBVMapKey@protobuf@google@@@std@@PEAX@std@@@internal@protobuf@google@@$0A@@std@@@std@@QEAA@XZ 0000000140080670 f i libprotobuf:map_field.obj
 0001:0007f6e0       ??1DynamicMapField@internal@protobuf@google@@UEAA@XZ 00000001400806e0 f   libprotobuf:map_field.obj
 0001:0007f910       ??4?$Map@VMapKey@protobuf@google@@VMapValueRef@23@@protobuf@google@@QEAAAEAV012@AEBV012@@Z 0000000140080910 f i libprotobuf:map_field.obj
 0001:0007f9f0       ??8MapKey@protobuf@google@@QEBA_NAEBV012@@Z 00000001400809f0 f i libprotobuf:map_field.obj
 0001:0007fba0       ??E?$iterator_base@U?$MapPair@VMapKey@protobuf@google@@VMapValueRef@23@@protobuf@google@@@InnerMap@?$Map@VMapKey@protobuf@google@@VMapValueRef@23@@protobuf@google@@QEAAAEAV01234@XZ 0000000140080ba0 f i libprotobuf:map_field.obj
 0001:0007fc90       ??Econst_iterator@?$Map@VMapKey@protobuf@google@@VMapValueRef@23@@protobuf@google@@QEAAAEAV0123@XZ 0000000140080c90 f i libprotobuf:map_field.obj
 0001:0007fde0       ??R?$hash@VMapKey@protobuf@google@@@std@@QEBA_KAEBVMapKey@protobuf@google@@@Z 0000000140080de0 f i libprotobuf:map_field.obj
 0001:000801d0       ??R?$less@VMapKey@protobuf@google@@@std@@QEBA_NAEBVMapKey@protobuf@google@@0@Z 00000001400811d0 f i libprotobuf:map_field.obj
 0001:00080340       ??_EDynamicMapField@internal@protobuf@google@@UEAAPEAXI@Z 0000000140081340 f i libprotobuf:map_field.obj
 0001:00080340       ??_GDynamicMapField@internal@protobuf@google@@UEAAPEAXI@Z 0000000140081340 f i libprotobuf:map_field.obj
 0001:00080380       ?AllocateMapValue@DynamicMapField@internal@protobuf@google@@AEAAXPEAVMapValueRef@34@@Z 0000000140081380 f   libprotobuf:map_field.obj
 0001:00080650       ?Clear@DynamicMapField@internal@protobuf@google@@UEAAXXZ 0000000140081650 f   libprotobuf:map_field.obj
 0001:00080800       ?ContainsMapKey@DynamicMapField@internal@protobuf@google@@UEBA_NAEBVMapKey@34@@Z 0000000140081800 f   libprotobuf:map_field.obj
 0001:00080840       ?CopyIterator@?$TypeDefinedMapFieldBase@VMapKey@protobuf@google@@VMapValueRef@23@@internal@protobuf@google@@EEBAXPEAVMapIterator@34@AEBV534@@Z 0000000140081840 f i libprotobuf:map_field.obj
 0001:000808f0       ?CopyListToTree@InnerMap@?$Map@VMapKey@protobuf@google@@VMapValueRef@23@@protobuf@google@@AEAA_K_KPEAV?$map@V?$reference_wrapper@$$CBVMapKey@protobuf@google@@@std@@PEAXU?$less@VMapKey@protobuf@google@@@2@V?$MapAllocator@U?$pair@$$CBV?$reference_wrapper@$$CBVMapKey@protobuf@google@@@std@@PEAX@std@@@internal@protobuf@google@@@std@@@Z 00000001400818f0 f i libprotobuf:map_field.obj
 0001:00080aa0       ?DeleteData@MapValueRef@protobuf@google@@AEAAXXZ 0000000140081aa0 f i libprotobuf:map_field.obj
 0001:00080b40       ?DeleteIterator@?$TypeDefinedMapFieldBase@VMapKey@protobuf@google@@VMapValueRef@23@@internal@protobuf@google@@EEBAXPEAVMapIterator@34@@Z 0000000140081b40 f i libprotobuf:map_field.obj
 0001:00080b50       ?DeleteMapValue@DynamicMapField@internal@protobuf@google@@UEAA_NAEBVMapKey@34@@Z 0000000140081b50 f   libprotobuf:map_field.obj
 0001:00080c60       ?EqualIterator@?$TypeDefinedMapFieldBase@VMapKey@protobuf@google@@VMapValueRef@23@@internal@protobuf@google@@UEBA_NAEBVMapIterator@34@0@Z 0000000140081c60 f i libprotobuf:map_field.obj
 0001:00080c70       ?EraseFromLinkedList@InnerMap@?$Map@VMapKey@protobuf@google@@VMapValueRef@23@@protobuf@google@@AEAAPEAUNode@1234@PEAU51234@0@Z 0000000140081c70 f i libprotobuf:map_field.obj
 0001:00080ca0       ?GetBoolValue@MapValueConstRef@protobuf@google@@QEBA_NXZ 0000000140081ca0 f i libprotobuf:map_field.obj
 0001:00080dd0       ?GetDoubleValue@MapValueConstRef@protobuf@google@@QEBANXZ 0000000140081dd0 f i libprotobuf:map_field.obj
 0001:00080f00       ?GetFloatValue@MapValueConstRef@protobuf@google@@QEBAMXZ 0000000140081f00 f i libprotobuf:map_field.obj
 0001:00081030       ?GetMap@DynamicMapField@internal@protobuf@google@@UEBAAEBV?$Map@VMapKey@protobuf@google@@VMapValueRef@23@@34@XZ 0000000140082030 f   libprotobuf:map_field.obj
 0001:00081090       ?GetRepeatedField@MapFieldBase@internal@protobuf@google@@QEBAAEBVRepeatedPtrFieldBase@234@XZ 0000000140082090 f   libprotobuf:map_field.obj
 0001:000810b0       ?IncreaseIterator@?$TypeDefinedMapFieldBase@VMapKey@protobuf@google@@VMapValueRef@23@@internal@protobuf@google@@EEBAXPEAVMapIterator@34@@Z 00000001400820b0 f i libprotobuf:map_field.obj
 0001:000810f0       ?InitializeIterator@?$TypeDefinedMapFieldBase@VMapKey@protobuf@google@@VMapValueRef@23@@internal@protobuf@google@@EEBAXPEAVMapIterator@34@@Z 00000001400820f0 f i libprotobuf:map_field.obj
 0001:000811b0       ?InsertOrLookupMapValue@DynamicMapField@internal@protobuf@google@@UEAA_NAEBVMapKey@34@PEAVMapValueRef@34@@Z 00000001400821b0 f   libprotobuf:map_field.obj
 0001:00081250       ?InsertUnique@InnerMap@?$Map@VMapKey@protobuf@google@@VMapValueRef@23@@protobuf@google@@AEAA?AV?$iterator_base@U?$MapPair@VMapKey@protobuf@google@@VMapValueRef@23@@protobuf@google@@@1234@_KPEAUNode@1234@@Z 0000000140082250 f i libprotobuf:map_field.obj
 0001:00081460       ?InsertUniqueInTree@InnerMap@?$Map@VMapKey@protobuf@google@@VMapValueRef@23@@protobuf@google@@AEAA?AV?$iterator_base@U?$MapPair@VMapKey@protobuf@google@@VMapValueRef@23@@protobuf@google@@@1234@_KPEAUNode@1234@@Z 0000000140082460 f i libprotobuf:map_field.obj
 0001:000814e0       ?IsMapValid@MapFieldBase@internal@protobuf@google@@QEBA_NXZ 00000001400824e0 f   libprotobuf:map_field.obj
 0001:000814f0       ?IsRepeatedFieldValid@MapFieldBase@internal@protobuf@google@@QEBA_NXZ 00000001400824f0 f   libprotobuf:map_field.obj
 0001:00081500       ?LookupMapValue@DynamicMapField@internal@protobuf@google@@UEBA_NAEBVMapKey@34@PEAVMapValueConstRef@34@@Z 0000000140082500 f   libprotobuf:map_field.obj
 0001:00081560       ?MapBegin@?$TypeDefinedMapFieldBase@VMapKey@protobuf@google@@VMapValueRef@23@@internal@protobuf@google@@UEBAXPEAVMapIterator@34@@Z 0000000140082560 f i libprotobuf:map_field.obj
 0001:00081620       ?MapEnd@?$TypeDefinedMapFieldBase@VMapKey@protobuf@google@@VMapValueRef@23@@internal@protobuf@google@@UEBAXPEAVMapIterator@34@@Z 0000000140082620 f i libprotobuf:map_field.obj
 0001:00081660       ?MergeFrom@DynamicMapField@internal@protobuf@google@@UEAAXAEBVMapFieldBase@234@@Z 0000000140082660 f   libprotobuf:map_field.obj
 0001:00082440       ?MutableMap@DynamicMapField@internal@protobuf@google@@UEAAPEAV?$Map@VMapKey@protobuf@google@@VMapValueRef@23@@34@XZ 0000000140083440 f   libprotobuf:map_field.obj
 0001:000824a0       ?MutableRepeatedField@MapFieldBase@internal@protobuf@google@@QEAAPEAVRepeatedPtrFieldBase@234@XZ 00000001400834a0 f   libprotobuf:map_field.obj
 0001:000824c0       ?Resize@InnerMap@?$Map@VMapKey@protobuf@google@@VMapValueRef@23@@protobuf@google@@AEAAX_K@Z 00000001400834c0 f i libprotobuf:map_field.obj
 0001:00082600       ?ResizeIfLoadIsOutOfRange@InnerMap@?$Map@VMapKey@protobuf@google@@VMapValueRef@23@@protobuf@google@@AEAA_N_K@Z 0000000140083600 f i libprotobuf:map_field.obj
 0001:000826b0       ?SearchFrom@?$iterator_base@$$CBU?$MapPair@VMapKey@protobuf@google@@VMapValueRef@23@@protobuf@google@@@InnerMap@?$Map@VMapKey@protobuf@google@@VMapValueRef@23@@protobuf@google@@QEAAX_K@Z 00000001400836b0 f i libprotobuf:map_field.obj
 0001:000826b0       ?SearchFrom@?$iterator_base@U?$MapPair@VMapKey@protobuf@google@@VMapValueRef@23@@protobuf@google@@@InnerMap@?$Map@VMapKey@protobuf@google@@VMapValueRef@23@@protobuf@google@@QEAAX_K@Z 00000001400836b0 f i libprotobuf:map_field.obj
 0001:00082710       ?SetMapIteratorValue@DynamicMapField@internal@protobuf@google@@EEBAXPEAVMapIterator@34@@Z 0000000140083710 f   libprotobuf:map_field.obj
 0001:00082750       ?SpaceUsedExcludingSelfLong@?$RepeatedPtrField@VMessage@protobuf@google@@@protobuf@google@@QEBA_KXZ 0000000140083750 f i libprotobuf:map_field.obj
 0001:000827d0       ?SpaceUsedExcludingSelfLong@MapFieldBase@internal@protobuf@google@@QEBA_KXZ 00000001400837d0 f   libprotobuf:map_field.obj
 0001:00082810       ?SpaceUsedExcludingSelfNoLock@DynamicMapField@internal@protobuf@google@@EEBA_KXZ 0000000140083810 f   libprotobuf:map_field.obj
 0001:000829c0       ?SpaceUsedExcludingSelfNoLock@MapFieldBase@internal@protobuf@google@@MEBA_KXZ 00000001400839c0 f   libprotobuf:map_field.obj
 0001:000829d0       ?Swap@DynamicMapField@internal@protobuf@google@@UEAAXPEAVMapFieldBase@234@@Z 00000001400839d0 f   libprotobuf:map_field.obj
 0001:00082a20       ?Swap@MapFieldBase@internal@protobuf@google@@UEAAXPEAV1234@@Z 0000000140083a20 f   libprotobuf:map_field.obj
 0001:00082b40       ?SwapRepeatedPtrToNull@internal@protobuf@google@@YAXPEAPEAV?$RepeatedPtrField@VMessage@protobuf@google@@@23@0PEAVArena@23@1@Z 0000000140083b40 f   libprotobuf:map_field.obj
 0001:00082c80       ?SyncMapWithRepeatedFieldNoLock@DynamicMapField@internal@protobuf@google@@EEBAXXZ 0000000140083c80 f   libprotobuf:map_field.obj
 0001:00083930       ?SyncRepeatedFieldWithMap@MapFieldBase@internal@protobuf@google@@IEBAXXZ 0000000140084930 f   libprotobuf:map_field.obj
 0001:00083a30       ?SyncRepeatedFieldWithMapNoLock@DynamicMapField@internal@protobuf@google@@EEBAXXZ 0000000140084a30 f   libprotobuf:map_field.obj
 0001:000840d0       ?SyncRepeatedFieldWithMapNoLock@MapFieldBase@internal@protobuf@google@@MEBAXXZ 00000001400850d0 f   libprotobuf:map_field.obj
 0001:00084180       ?TransferList@InnerMap@?$Map@VMapKey@protobuf@google@@VMapValueRef@23@@protobuf@google@@AEAAXPEBQEAX_K@Z 0000000140085180 f i libprotobuf:map_field.obj
 0001:00084430       ?TransferTree@InnerMap@?$Map@VMapKey@protobuf@google@@VMapValueRef@23@@protobuf@google@@AEAAXPEBQEAX_K@Z 0000000140085430 f i libprotobuf:map_field.obj
 0001:00084750       ?PrintBytes@FastFieldValuePrinter@TextFormat@protobuf@google@@UEBAXAEBV?$basic_string@DU?$char_traits@D@std@@V?$allocator@D@2@@std@@PEAVBaseTextGenerator@234@@Z 0000000140085750 f i libprotobuf:text_format.obj
 0001:00084750       ?UnsafeShallowSwap@DynamicMapField@internal@protobuf@google@@UEAAXPEAVMapFieldBase@234@@Z 0000000140085750 f i libprotobuf:map_field.obj
 0001:00084760       ?UnsafeShallowSwap@MapFieldBase@internal@protobuf@google@@UEAAXPEAV1234@@Z 0000000140085760 f   libprotobuf:map_field.obj
 0001:000847a0       ?clear@InnerMap@?$Map@VMapKey@protobuf@google@@VMapValueRef@23@@protobuf@google@@QEAAXXZ 00000001400857a0 f i libprotobuf:map_field.obj
 0001:00084a20       ?erase@InnerMap@?$Map@VMapKey@protobuf@google@@VMapValueRef@23@@protobuf@google@@QEAAXV?$iterator_base@U?$MapPair@VMapKey@protobuf@google@@VMapValueRef@23@@protobuf@google@@@1234@@Z 0000000140085a20 f i libprotobuf:map_field.obj
 0001:00084c70       ?revalidate_if_necessary@?$iterator_base@U?$MapPair@VMapKey@protobuf@google@@VMapValueRef@23@@protobuf@google@@@InnerMap@?$Map@VMapKey@protobuf@google@@VMapValueRef@23@@protobuf@google@@QEAA_NPEAV?$_Tree_iterator@V?$_Tree_val@U?$_Tree_simple_types@U?$pair@$$CBV?$reference_wrapper@$$CBVMapKey@protobuf@google@@@std@@PEAX@std@@@std@@@std@@@std@@@Z 0000000140085c70 f i libprotobuf:map_field.obj
 0001:00084d20       ?size@DynamicMapField@internal@protobuf@google@@UEBAHXZ 0000000140085d20 f   libprotobuf:map_field.obj
 0001:00084d40       ?swap@?$Map@VMapKey@protobuf@google@@VMapValueRef@23@@protobuf@google@@QEAAXAEAV123@@Z 0000000140085d40 f i libprotobuf:map_field.obj
 0001:000855c0       ??$safe_parse_positive_int@H@protobuf@google@@YA_NV?$basic_string@DU?$char_traits@D@std@@V?$allocator@D@2@@std@@PEAH@Z 00000001400865c0 f i libprotobuf:strutil.obj
 0001:000856d0       ??0AlphaNum@strings@protobuf@google@@QEAA@UHex@123@@Z 00000001400866d0 f   libprotobuf:strutil.obj
 0001:00085730       ??1?$unique_ptr@$$BY0A@DU?$default_delete@$$BY0A@D@std@@@std@@QEAA@XZ 0000000140086730 f i libprotobuf:strutil.obj
 0001:00085740       ??4?$back_insert_iterator@V?$vector@V?$basic_string@DU?$char_traits@D@std@@V?$allocator@D@2@@std@@V?$allocator@V?$basic_string@DU?$char_traits@D@std@@V?$allocator@D@2@@std@@@2@@std@@@std@@QEAAAEAV01@$$QEAV?$basic_string@DU?$char_traits@D@std@@V?$allocator@D@2@@1@@Z 0000000140086740 f i libprotobuf:strutil.obj
 0001:00085850       ?CEscape@protobuf@google@@YA?AV?$basic_string@DU?$char_traits@D@std@@V?$allocator@D@2@@std@@AEBV34@@Z 0000000140086850 f   libprotobuf:strutil.obj
 0001:000858c0       ?CEscapeAndAppend@protobuf@google@@YAXVStringPiece@stringpiece_internal@12@PEAV?$basic_string@DU?$char_traits@D@std@@V?$allocator@D@2@@std@@@Z 00000001400868c0 f   libprotobuf:strutil.obj
 0001:00085b30       ?DelocalizeRadix@protobuf@google@@YAXPEAD@Z 0000000140086b30 f   libprotobuf:strutil.obj
 0001:00085bf0       ?FastInt32ToBuffer@protobuf@google@@YAPEADHPEAD@Z 0000000140086bf0 f   libprotobuf:strutil.obj
 0001:00085cd0       ?FastInt32ToBufferLeft@protobuf@google@@YAPEADHPEAD@Z 0000000140086cd0 f   libprotobuf:strutil.obj
 0001:00085cf0       ?FastInt64ToBuffer@protobuf@google@@YAPEAD_JPEAD@Z 0000000140086cf0 f   libprotobuf:strutil.obj
 0001:00085df0       ?FastInt64ToBufferLeft@protobuf@google@@YAPEAD_JPEAD@Z 0000000140086df0 f   libprotobuf:strutil.obj
 0001:00085e10       ?FastUInt32ToBufferLeft@protobuf@google@@YAPEADIPEAD@Z 0000000140086e10 f   libprotobuf:strutil.obj
 0001:00085fc0       ?FastUInt64ToBufferLeft@protobuf@google@@YAPEAD_KPEAD@Z 0000000140086fc0 f   libprotobuf:strutil.obj
 0001:00086320       ?NoLocaleStrtod@internal@protobuf@google@@YANPEBDPEAPEAD@Z 0000000140087320 f   libprotobuf:strutil.obj
 0001:00086450       ?SimpleDtoa@protobuf@google@@YA?AV?$basic_string@DU?$char_traits@D@std@@V?$allocator@D@2@@std@@N@Z 0000000140087450 f   libprotobuf:strutil.obj
 0001:000865a0       ?SimpleFtoa@protobuf@google@@YA?AV?$basic_string@DU?$char_traits@D@std@@V?$allocator@D@2@@std@@M@Z 00000001400875a0 f   libprotobuf:strutil.obj
 0001:00086740       ?SplitStringAllowEmpty@protobuf@google@@YAXVStringPiece@stringpiece_internal@12@PEBDPEAV?$vector@V?$basic_string@DU?$char_traits@D@std@@V?$allocator@D@2@@std@@V?$allocator@V?$basic_string@DU?$char_traits@D@std@@V?$allocator@D@2@@std@@@2@@std@@@Z 0000000140087740 f   libprotobuf:strutil.obj
 0001:00086770       ?SplitStringUsing@protobuf@google@@YAXVStringPiece@stringpiece_internal@12@PEBDPEAV?$vector@V?$basic_string@DU?$char_traits@D@std@@V?$allocator@D@2@@std@@V?$allocator@V?$basic_string@DU?$char_traits@D@std@@V?$allocator@D@2@@std@@@2@@std@@@Z 0000000140087770 f   libprotobuf:strutil.obj
 0001:000867a0       ?StrAppend@protobuf@google@@YAXPEAV?$basic_string@DU?$char_traits@D@std@@V?$allocator@D@2@@std@@AEBUAlphaNum@strings@12@@Z 00000001400877a0 f   libprotobuf:strutil.obj
 0001:000867b0       ?StrCat@protobuf@google@@YA?AV?$basic_string@DU?$char_traits@D@std@@V?$allocator@D@2@@std@@AEBUAlphaNum@strings@12@00000@Z 00000001400877b0 f   libprotobuf:strutil.obj
 0001:00086890       ?StrCat@protobuf@google@@YA?AV?$basic_string@DU?$char_traits@D@std@@V?$allocator@D@2@@std@@AEBUAlphaNum@strings@12@0000@Z 0000000140087890 f   libprotobuf:strutil.obj
 0001:00086940       ?StrCat@protobuf@google@@YA?AV?$basic_string@DU?$char_traits@D@std@@V?$allocator@D@2@@std@@AEBUAlphaNum@strings@12@00@Z 0000000140087940 f   libprotobuf:strutil.obj
 0001:00086a00       ?StrCat@protobuf@google@@YA?AV?$basic_string@DU?$char_traits@D@std@@V?$allocator@D@2@@std@@AEBUAlphaNum@strings@12@0@Z 0000000140087a00 f   libprotobuf:strutil.obj
 0001:00086aa0       ?StripWhitespace@protobuf@google@@YAXPEAV?$basic_string@DU?$char_traits@D@std@@V?$allocator@D@2@@std@@@Z 0000000140087aa0 f   libprotobuf:strutil.obj
 0001:00086bc0       ?UnescapeCEscapeSequences@protobuf@google@@YAHPEBDPEADPEAV?$vector@V?$basic_string@DU?$char_traits@D@std@@V?$allocator@D@2@@std@@V?$allocator@V?$basic_string@DU?$char_traits@D@std@@V?$allocator@D@2@@std@@@2@@std@@@Z 0000000140087bc0 f   libprotobuf:strutil.obj
 0001:00086f30       ?UnescapeCEscapeString@protobuf@google@@YA?AV?$basic_string@DU?$char_traits@D@std@@V?$allocator@D@2@@std@@AEBV34@@Z 0000000140087f30 f   libprotobuf:strutil.obj
 0001:00086fc0       ?safe_parse_sign@protobuf@google@@YA_NPEAV?$basic_string@DU?$char_traits@D@std@@V?$allocator@D@2@@std@@PEA_N@Z 0000000140087fc0 f i libprotobuf:strutil.obj
 0001:00087120       ?safe_strto32@protobuf@google@@YA_NAEBV?$basic_string@DU?$char_traits@D@std@@V?$allocator@D@2@@std@@PEAH@Z 0000000140088120 f   libprotobuf:strutil.obj
 0001:00087240       ?WriteAliasedRaw@ZeroCopyOutputStream@io@protobuf@google@@UEAA_NPEBXH@Z 0000000140088240 f   libprotobuf:zero_copy_stream.obj
 0001:000872b0       ??0ArrayInputStream@io@protobuf@google@@QEAA@PEBXHH@Z 00000001400882b0 f   libprotobuf:zero_copy_stream_impl_lite.obj
 0001:000872e0       ??0StringOutputStream@io@protobuf@google@@QEAA@PEAV?$basic_string@DU?$char_traits@D@std@@V?$allocator@D@2@@std@@@Z 00000001400882e0 f   libprotobuf:zero_copy_stream_impl_lite.obj
 0001:00087300       ??1StringOutputStream@io@protobuf@google@@UEAA@XZ 0000000140088300 f i libprotobuf:zero_copy_stream_impl_lite.obj
 0001:00087310       ??_EArrayInputStream@io@protobuf@google@@UEAAPEAXI@Z 0000000140088310 f i libprotobuf:zero_copy_stream_impl_lite.obj
 0001:00087310       ??_GArrayInputStream@io@protobuf@google@@UEAAPEAXI@Z 0000000140088310 f i libprotobuf:zero_copy_stream_impl_lite.obj
 0001:00087340       ??_EStringOutputStream@io@protobuf@google@@UEAAPEAXI@Z 0000000140088340 f i libprotobuf:zero_copy_stream_impl_lite.obj
 0001:00087340       ??_GStringOutputStream@io@protobuf@google@@UEAAPEAXI@Z 0000000140088340 f i libprotobuf:zero_copy_stream_impl_lite.obj
 0001:00087370       ?BackUp@ArrayInputStream@io@protobuf@google@@UEAAXH@Z 0000000140088370 f   libprotobuf:zero_copy_stream_impl_lite.obj
 0001:000874e0       ?BackUp@StringOutputStream@io@protobuf@google@@UEAAXH@Z 00000001400884e0 f   libprotobuf:zero_copy_stream_impl_lite.obj
 0001:000876b0       ?ByteCount@ArrayInputStream@io@protobuf@google@@UEBA_JXZ 00000001400886b0 f   libprotobuf:zero_copy_stream_impl_lite.obj
 0001:000876c0       ?ByteCount@StringOutputStream@io@protobuf@google@@UEBA_JXZ 00000001400886c0 f   libprotobuf:zero_copy_stream_impl_lite.obj
 0001:00087760       ?Next@ArrayInputStream@io@protobuf@google@@UEAA_NPEAPEBXPEAH@Z 0000000140088760 f   libprotobuf:zero_copy_stream_impl_lite.obj
 0001:000877b0       ?Next@StringOutputStream@io@protobuf@google@@UEAA_NPEAPEAXPEAH@Z 00000001400887b0 f   libprotobuf:zero_copy_stream_impl_lite.obj
 0001:000878b0       ?Skip@ArrayInputStream@io@protobuf@google@@UEAA_NH@Z 00000001400888b0 f   libprotobuf:zero_copy_stream_impl_lite.obj
 0001:00087970       ?IsStructurallyValidUTF8@internal@protobuf@google@@YA_NPEBDH@Z 0000000140088970 f   libprotobuf:structurally_valid.obj
 0001:00087cc0       ?_InternalParse@ImplicitWeakMessage@internal@protobuf@google@@UEAAPEBDPEBDPEAVParseContext@234@@Z 0000000140088cc0 f   libprotobuf:implicit_weak_message.obj
 0001:00087d70       ?Clear@ReflectionOps@internal@protobuf@google@@SAXPEAVMessage@34@@Z 0000000140088d70 f   libprotobuf:reflection_ops.obj
 0001:00087e60       ?Copy@ReflectionOps@internal@protobuf@google@@SAXAEBVMessage@34@PEAV534@@Z 0000000140088e60 f   libprotobuf:reflection_ops.obj
 0001:00087f80       ?FindInitializationErrors@ReflectionOps@internal@protobuf@google@@SAXAEBVMessage@34@AEBV?$basic_string@DU?$char_traits@D@std@@V?$allocator@D@2@@std@@PEAV?$vector@V?$basic_string@DU?$char_traits@D@std@@V?$allocator@D@2@@std@@V?$allocator@V?$basic_string@DU?$char_traits@D@std@@V?$allocator@D@2@@std@@@2@@7@@Z 0000000140088f80 f   libprotobuf:reflection_ops.obj
 0001:00088630       ?IsInitialized@ReflectionOps@internal@protobuf@google@@SA_NAEBVMessage@34@@Z 0000000140089630 f   libprotobuf:reflection_ops.obj
 0001:00088d20       ?Merge@ReflectionOps@internal@protobuf@google@@SAXAEBVMessage@34@PEAV534@@Z 0000000140089d20 f   libprotobuf:reflection_ops.obj
 0001:000897e0       ?find_first_not_of@StringPiece@stringpiece_internal@protobuf@google@@QEBA_KV1234@_K@Z 000000014008a7e0 f   libprotobuf:stringpiece.obj
 0001:00089900       ?find_first_of@StringPiece@stringpiece_internal@protobuf@google@@QEBA_KV1234@_K@Z 000000014008a900 f   libprotobuf:stringpiece.obj
 0001:00089a20       ?rfind@StringPiece@stringpiece_internal@protobuf@google@@QEBA_KD_K@Z 000000014008aa20 f   libprotobuf:stringpiece.obj
 0001:00089a60       ?substr@StringPiece@stringpiece_internal@protobuf@google@@QEBA?AV1234@_K0@Z 000000014008aa60 f   libprotobuf:stringpiece.obj
 0001:00089a90       ??$?0_J@?$_Optimistic_temporary_buffer@PEBVMessage@protobuf@google@@@std@@QEAA@_J@Z 000000014008aa90 f i libprotobuf:text_format.obj
 0001:00089b40       ??$?HDU?$char_traits@D@std@@V?$allocator@D@1@@std@@YA?AV?$basic_string@DU?$char_traits@D@std@@V?$allocator@D@2@@0@$$QEAV10@QEBD@Z 000000014008ab40 f i libprotobuf:text_format.obj
 0001:00089ba0       ??$_Buffered_inplace_merge_divide_and_conquer2@PEAPEBVMessage@protobuf@google@@VMapEntryMessageComparator@23@@std@@YAXPEAPEBVMessage@protobuf@google@@00_J1QEAPEBV123@_JVMapEntryMessageComparator@23@0011@Z 000000014008aba0 f i libprotobuf:text_format.obj
 0001:00089c90       ??$_Buffered_inplace_merge_unchecked@PEAPEBVMessage@protobuf@google@@VMapEntryMessageComparator@23@@std@@YAXPEAPEBVMessage@protobuf@google@@00_J1QEAPEBV123@_JVMapEntryMessageComparator@23@@Z 000000014008ac90 f i libprotobuf:text_format.obj
 0001:00089dd0       ??$_Buffered_inplace_merge_unchecked_impl@PEAPEBVMessage@protobuf@google@@VMapEntryMessageComparator@23@@std@@YAXPEAPEBVMessage@protobuf@google@@00_J1QEAPEBV123@_JVMapEntryMessageComparator@23@@Z 000000014008add0 f i libprotobuf:text_format.obj
 0001:0008a080       ??$_Buffered_merge_sort_unchecked@PEAPEBVMessage@protobuf@google@@VMapEntryMessageComparator@23@@std@@YAXQEAPEBVMessage@protobuf@google@@0_J0VMapEntryMessageComparator@23@@Z 000000014008b080 f i libprotobuf:text_format.obj
 0001:0008a280       ??$_Chunked_merge_unchecked@PEAPEBVMessage@protobuf@google@@PEAPEBV123@VMapEntryMessageComparator@23@@std@@YAXPEAPEBVMessage@protobuf@google@@QEAPEBV123@0_J_JVMapEntryMessageComparator@23@@Z 000000014008b280 f i libprotobuf:text_format.obj
 0001:0008a3c0       ??$_Destroy_range@V?$allocator@V?$unique_ptr@VParseInfoTree@TextFormat@protobuf@google@@U?$default_delete@VParseInfoTree@TextFormat@protobuf@google@@@std@@@std@@@std@@@std@@YAXPEAV?$unique_ptr@VParseInfoTree@TextFormat@protobuf@google@@U?$default_delete@VParseInfoTree@TextFormat@protobuf@google@@@std@@@0@QEAV10@AEAV?$allocator@V?$unique_ptr@VParseInfoTree@TextFormat@protobuf@google@@U?$default_delete@VParseInfoTree@TextFormat@protobuf@google@@@std@@@std@@@0@@Z 000000014008b3c0 f i libprotobuf:text_format.obj
 0001:0008a460       ??$_Emplace_reallocate@PEAVParseInfoTree@TextFormat@protobuf@google@@@?$vector@V?$unique_ptr@VParseInfoTree@TextFormat@protobuf@google@@U?$default_delete@VParseInfoTree@TextFormat@protobuf@google@@@std@@@std@@V?$allocator@V?$unique_ptr@VParseInfoTree@TextFormat@protobuf@google@@U?$default_delete@VParseInfoTree@TextFormat@protobuf@google@@@std@@@std@@@2@@std@@QEAAPEAV?$unique_ptr@VParseInfoTree@TextFormat@protobuf@google@@U?$default_delete@VParseInfoTree@TextFormat@protobuf@google@@@std@@@1@QEAV21@$$QEAPEAVParseInfoTree@TextFormat@protobuf@google@@@Z 000000014008b460 f i libprotobuf:text_format.obj
 0001:0008a6b0       ??$_Erase_tree@V?$allocator@U?$_Tree_node@U?$pair@QEBVFieldDescriptor@protobuf@google@@V?$vector@UParseLocationRange@TextFormat@protobuf@google@@V?$allocator@UParseLocationRange@TextFormat@protobuf@google@@@std@@@std@@@std@@PEAX@std@@@std@@@?$_Tree_val@U?$_Tree_simple_types@U?$pair@QEBVFieldDescriptor@protobuf@google@@V?$vector@UParseLocationRange@TextFormat@protobuf@google@@V?$allocator@UParseLocationRange@TextFormat@protobuf@google@@@std@@@std@@@std@@@std@@@std@@QEAAXAEAV?$allocator@U?$_Tree_node@U?$pair@QEBVFieldDescriptor@protobuf@google@@V?$vector@UParseLocationRange@TextFormat@protobuf@google@@V?$allocator@UParseLocationRange@TextFormat@protobuf@google@@@std@@@std@@@std@@PEAX@std@@@1@PEAU?$_Tree_node@U?$pair@QEBVFieldDescriptor@protobuf@google@@V?$vector@UParseLocationRange@TextFormat@protobuf@google@@V?$allocator@UParseLocationRange@TextFormat@protobuf@google@@@std@@@std@@@std@@PEAX@1@@Z 000000014008b6b0 f i libprotobuf:text_format.obj
 0001:0008a770       ??$_Erase_tree@V?$allocator@U?$_Tree_node@U?$pair@QEBVFieldDescriptor@protobuf@google@@V?$vector@V?$unique_ptr@VParseInfoTree@TextFormat@protobuf@google@@U?$default_delete@VParseInfoTree@TextFormat@protobuf@google@@@std@@@std@@V?$allocator@V?$unique_ptr@VParseInfoTree@TextFormat@protobuf@google@@U?$default_delete@VParseInfoTree@TextFormat@protobuf@google@@@std@@@std@@@2@@std@@@std@@PEAX@std@@@std@@@?$_Tree_val@U?$_Tree_simple_types@U?$pair@QEBVFieldDescriptor@protobuf@google@@V?$vector@V?$unique_ptr@VParseInfoTree@TextFormat@protobuf@google@@U?$default_delete@VParseInfoTree@TextFormat@protobuf@google@@@std@@@std@@V?$allocator@V?$unique_ptr@VParseInfoTree@TextFormat@protobuf@google@@U?$default_delete@VParseInfoTree@TextFormat@protobuf@google@@@std@@@std@@@2@@std@@@std@@@std@@@std@@QEAAXAEAV?$allocator@U?$_Tree_node@U?$pair@QEBVFieldDescriptor@protobuf@google@@V?$vector@V?$unique_ptr@VParseInfoTree@TextFormat@protobuf@google@@U?$default_delete@VParseInfoTree@TextFormat@protobuf@google@@@std@@@std@@V?$allocator@V?$unique_ptr@VParseInfoTree@TextFormat@protobuf@google@@U?$default_delete@VParseInfoTree@TextFormat@protobuf@google@@@std@@@std@@@2@@std@@@std@@PEAX@std@@@1@PEAU?$_Tree_node@U?$pair@QEBVFieldDescriptor@protobuf@google@@V?$vector@V?$unique_ptr@VParseInfoTree@TextFormat@protobuf@google@@U?$default_delete@VParseInfoTree@TextFormat@protobuf@google@@@std@@@std@@V?$allocator@V?$unique_ptr@VParseInfoTree@TextFormat@protobuf@google@@U?$default_delete@VParseInfoTree@TextFormat@protobuf@google@@@std@@@std@@@2@@std@@@std@@PEAX@1@@Z 000000014008b770 f i libprotobuf:text_format.obj
 0001:0008a9b0       ??$_Insertion_sort_unchecked@PEAPEBVMessage@protobuf@google@@VMapEntryMessageComparator@23@@std@@YAPEAPEBVMessage@protobuf@google@@QEAPEBV123@0VMapEntryMessageComparator@23@@Z 000000014008b9b0 f i libprotobuf:text_format.obj
 0001:0008b9b0       ??$_Stable_sort_unchecked@PEAPEBVMessage@protobuf@google@@VMapEntryMessageComparator@23@@std@@YAXQEAPEBVMessage@protobuf@google@@0_J01VMapEntryMessageComparator@23@@Z 000000014008c9b0 f i libprotobuf:text_format.obj
 0001:0008bac0       ??$lower_bound@PEAPEBVMessage@protobuf@google@@PEBV123@VMapEntryMessageComparator@23@@std@@YAPEAPEBVMessage@protobuf@google@@PEAPEBV123@QEAPEBV123@AEBQEBV123@VMapEntryMessageComparator@23@@Z 000000014008cac0 f i libprotobuf:text_format.obj
 0001:0008be40       ??$upper_bound@PEAPEBVMessage@protobuf@google@@PEBV123@VMapEntryMessageComparator@23@@std@@YAPEAPEBVMessage@protobuf@google@@PEAPEBV123@0AEBQEBV123@VMapEntryMessageComparator@23@@Z 000000014008ce40 f i libprotobuf:text_format.obj
 0001:0008c1c0       ??0Parser@TextFormat@protobuf@google@@QEAA@XZ 000000014008d1c0 f   libprotobuf:text_format.obj
 0001:0008c1e0       ??0ParserImpl@Parser@TextFormat@protobuf@google@@QEAA@PEBVDescriptor@34@PEAVZeroCopyInputStream@io@34@PEAVErrorCollector@734@PEBVFinder@234@PEAVParseInfoTree@234@W4SingularOverwritePolicy@01234@_N666666H@Z 000000014008d1e0 f i libprotobuf:text_format.obj
 0001:0008c2f0       ??0Printer@TextFormat@protobuf@google@@QEAA@XZ 000000014008d2f0 f   libprotobuf:text_format.obj
 0001:0008c3d0       ??1?$map@PEBVDescriptor@protobuf@google@@V?$unique_ptr@$$CBVMessagePrinter@TextFormat@protobuf@google@@U?$default_delete@$$CBVMessagePrinter@TextFormat@protobuf@google@@@std@@@std@@U?$less@PEBVDescriptor@protobuf@google@@@5@V?$allocator@U?$pair@QEBVDescriptor@protobuf@google@@V?$unique_ptr@$$CBVMessagePrinter@TextFormat@protobuf@google@@U?$default_delete@$$CBVMessagePrinter@TextFormat@protobuf@google@@@std@@@std@@@std@@@5@@std@@QEAA@XZ 000000014008d3d0 f i libprotobuf:text_format.obj
 0001:0008c3d0       ??1?$map@PEBVFieldDescriptor@protobuf@google@@V?$unique_ptr@$$CBVFastFieldValuePrinter@TextFormat@protobuf@google@@U?$default_delete@$$CBVFastFieldValuePrinter@TextFormat@protobuf@google@@@std@@@std@@U?$less@PEBVFieldDescriptor@protobuf@google@@@5@V?$allocator@U?$pair@QEBVFieldDescriptor@protobuf@google@@V?$unique_ptr@$$CBVFastFieldValuePrinter@TextFormat@protobuf@google@@U?$default_delete@$$CBVFastFieldValuePrinter@TextFormat@protobuf@google@@@std@@@std@@@std@@@5@@std@@QEAA@XZ 000000014008d3d0 f i libprotobuf:text_format.obj
 0001:0008c400       ??1?$map@PEBVFieldDescriptor@protobuf@google@@V?$vector@UParseLocationRange@TextFormat@protobuf@google@@V?$allocator@UParseLocationRange@TextFormat@protobuf@google@@@std@@@std@@U?$less@PEBVFieldDescriptor@protobuf@google@@@5@V?$allocator@U?$pair@QEBVFieldDescriptor@protobuf@google@@V?$vector@UParseLocationRange@TextFormat@protobuf@google@@V?$allocator@UParseLocationRange@TextFormat@protobuf@google@@@std@@@std@@@std@@@5@@std@@QEAA@XZ 000000014008d400 f i libprotobuf:text_format.obj
 0001:0008c430       ??1?$vector@V?$unique_ptr@VParseInfoTree@TextFormat@protobuf@google@@U?$default_delete@VParseInfoTree@TextFormat@protobuf@google@@@std@@@std@@V?$allocator@V?$unique_ptr@VParseInfoTree@TextFormat@protobuf@google@@U?$default_delete@VParseInfoTree@TextFormat@protobuf@google@@@std@@@std@@@2@@std@@QEAA@XZ 000000014008d430 f i libprotobuf:text_format.obj
 0001:0008c4d0       ??1Finder@TextFormat@protobuf@google@@UEAA@XZ 000000014008d4d0 f   libprotobuf:text_format.obj
 0001:0008c4e0       ??1ParserErrorCollector@ParserImpl@Parser@TextFormat@protobuf@google@@UEAA@XZ 000000014008d4e0 f i libprotobuf:text_format.obj
 0001:0008c4f0       ??1ParserImpl@Parser@TextFormat@protobuf@google@@QEAA@XZ 000000014008d4f0 f i libprotobuf:text_format.obj
 0001:0008c520       ??1TextGenerator@Printer@TextFormat@protobuf@google@@UEAA@XZ 000000014008d520 f i libprotobuf:text_format.obj
 0001:0008c570       ??RMapEntryMessageComparator@protobuf@google@@QEAA_NPEBVMessage@12@0@Z 000000014008d570 f i libprotobuf:text_format.obj
 0001:0008c870       ??_G?$unique_ptr@VParseInfoTree@TextFormat@protobuf@google@@U?$default_delete@VParseInfoTree@TextFormat@protobuf@google@@@std@@@std@@QEAAPEAXI@Z 000000014008d870 f i libprotobuf:text_format.obj
 0001:0008c910       ??_EBaseTextGenerator@TextFormat@protobuf@google@@UEAAPEAXI@Z 000000014008d910 f i libprotobuf:text_format.obj
 0001:0008c910       ??_GBaseTextGenerator@TextFormat@protobuf@google@@UEAAPEAXI@Z 000000014008d910 f i libprotobuf:text_format.obj
 0001:0008c940       ??_EDebugStringFieldValuePrinter@Printer@TextFormat@protobuf@google@@UEAAPEAXI@Z 000000014008d940 f i libprotobuf:text_format.obj
 0001:0008c940       ??_EFastFieldValuePrinter@TextFormat@protobuf@google@@UEAAPEAXI@Z 000000014008d940 f i libprotobuf:text_format.obj
 0001:0008c940       ??_GDebugStringFieldValuePrinter@Printer@TextFormat@protobuf@google@@UEAAPEAXI@Z 000000014008d940 f i libprotobuf:text_format.obj
 0001:0008c940       ??_GFastFieldValuePrinter@TextFormat@protobuf@google@@UEAAPEAXI@Z 000000014008d940 f i libprotobuf:text_format.obj
 0001:0008c970       ??_EParserErrorCollector@ParserImpl@Parser@TextFormat@protobuf@google@@UEAAPEAXI@Z 000000014008d970 f i libprotobuf:text_format.obj
 0001:0008c970       ??_GParserErrorCollector@ParserImpl@Parser@TextFormat@protobuf@google@@UEAAPEAXI@Z 000000014008d970 f i libprotobuf:text_format.obj
 0001:0008c9b0       ??_ETextGenerator@Printer@TextFormat@protobuf@google@@UEAAPEAXI@Z 000000014008d9b0 f i libprotobuf:text_format.obj
 0001:0008c9b0       ??_GTextGenerator@Printer@TextFormat@protobuf@google@@UEAAPEAXI@Z 000000014008d9b0 f i libprotobuf:text_format.obj
 0001:0008ca10       ?AddError@ParserErrorCollector@ParserImpl@Parser@TextFormat@protobuf@google@@UEAAXHHAEBV?$basic_string@DU?$char_traits@D@std@@V?$allocator@D@2@@std@@@Z 000000014008da10 f i libprotobuf:text_format.obj
 0001:0008ca20       ?AddWarning@ParserErrorCollector@ParserImpl@Parser@TextFormat@protobuf@google@@UEAAXHHAEBV?$basic_string@DU?$char_traits@D@std@@V?$allocator@D@2@@std@@@Z 000000014008da20 f i libprotobuf:text_format.obj
 0001:0008cbc0       ?Consume@ParserImpl@Parser@TextFormat@protobuf@google@@AEAA_NAEBV?$basic_string@DU?$char_traits@D@std@@V?$allocator@D@2@@std@@@Z 000000014008dbc0 f i libprotobuf:text_format.obj
 0001:0008cf10       ?ConsumeAnyTypeUrl@ParserImpl@Parser@TextFormat@protobuf@google@@AEAA_NPEAV?$basic_string@DU?$char_traits@D@std@@V?$allocator@D@2@@std@@0@Z 000000014008df10 f i libprotobuf:text_format.obj
 0001:0008d350       ?ConsumeAnyValue@ParserImpl@Parser@TextFormat@protobuf@google@@AEAA_NPEBVDescriptor@45@PEAV?$basic_string@DU?$char_traits@D@std@@V?$allocator@D@2@@std@@@Z 000000014008e350 f i libprotobuf:text_format.obj
 0001:0008d620       ?ConsumeBeforeWhitespace@ParserImpl@Parser@TextFormat@protobuf@google@@AEAA_NAEBV?$basic_string@DU?$char_traits@D@std@@V?$allocator@D@2@@std@@@Z 000000014008e620 f i libprotobuf:text_format.obj
 0001:0008d670       ?ConsumeDouble@ParserImpl@Parser@TextFormat@protobuf@google@@AEAA_NPEAN@Z 000000014008e670 f i libprotobuf:text_format.obj
 0001:0008d9e0       ?ConsumeField@ParserImpl@Parser@TextFormat@protobuf@google@@AEAA_NPEAVMessage@45@@Z 000000014008e9e0 f i libprotobuf:text_format.obj
 0001:0008f250       ?ConsumeFieldMessage@ParserImpl@Parser@TextFormat@protobuf@google@@AEAA_NPEAVMessage@45@PEBVReflection@45@PEBVFieldDescriptor@45@@Z 0000000140090250 f i libprotobuf:text_format.obj
 0001:0008f570       ?ConsumeFieldValue@ParserImpl@Parser@TextFormat@protobuf@google@@AEAA_NPEAVMessage@45@PEBVReflection@45@PEBVFieldDescriptor@45@@Z 0000000140090570 f i libprotobuf:text_format.obj
 0001:00090600       ?ConsumeFullTypeName@ParserImpl@Parser@TextFormat@protobuf@google@@AEAA_NPEAV?$basic_string@DU?$char_traits@D@std@@V?$allocator@D@2@@std@@@Z 0000000140091600 f i libprotobuf:text_format.obj
 0001:00090850       ?ConsumeIdentifier@ParserImpl@Parser@TextFormat@protobuf@google@@AEAA_NPEAV?$basic_string@DU?$char_traits@D@std@@V?$allocator@D@2@@std@@@Z 0000000140091850 f i libprotobuf:text_format.obj
 0001:00090950       ?ConsumeIdentifierBeforeWhitespace@ParserImpl@Parser@TextFormat@protobuf@google@@AEAA_NPEAV?$basic_string@DU?$char_traits@D@std@@V?$allocator@D@2@@std@@@Z 0000000140091950 f i libprotobuf:text_format.obj
 0001:000909a0       ?ConsumeMessage@ParserImpl@Parser@TextFormat@protobuf@google@@AEAA_NPEAVMessage@45@V?$basic_string@DU?$char_traits@D@std@@V?$allocator@D@2@@std@@@Z 00000001400919a0 f i libprotobuf:text_format.obj
 0001:00090bb0       ?ConsumeMessageDelimiter@ParserImpl@Parser@TextFormat@protobuf@google@@AEAA_NPEAV?$basic_string@DU?$char_traits@D@std@@V?$allocator@D@2@@std@@@Z 0000000140091bb0 f i libprotobuf:text_format.obj
 0001:00090ce0       ?ConsumeSignedInteger@ParserImpl@Parser@TextFormat@protobuf@google@@AEAA_NPEA_J_K@Z 0000000140091ce0 f i libprotobuf:text_format.obj
 0001:00090dd0       ?ConsumeString@ParserImpl@Parser@TextFormat@protobuf@google@@AEAA_NPEAV?$basic_string@DU?$char_traits@D@std@@V?$allocator@D@2@@std@@@Z 0000000140091dd0 f i libprotobuf:text_format.obj
 0001:00090ed0       ?ConsumeTypeUrlOrFullTypeName@ParserImpl@Parser@TextFormat@protobuf@google@@AEAA_NPEAV?$basic_string@DU?$char_traits@D@std@@V?$allocator@D@2@@std@@@Z 0000000140091ed0 f i libprotobuf:text_format.obj
 0001:000911a0       ?ConsumeUnsignedDecimalAsDouble@ParserImpl@Parser@TextFormat@protobuf@google@@AEAA_NPEAN_K@Z 00000001400921a0 f i libprotobuf:text_format.obj
 0001:000913b0       ?ConsumeUnsignedInteger@ParserImpl@Parser@TextFormat@protobuf@google@@AEAA_NPEA_K_K@Z 00000001400923b0 f i libprotobuf:text_format.obj
 0001:000915d0       ?CopyKey@MapFieldPrinterHelper@internal@protobuf@google@@SAXAEBVMapKey@34@PEAVMessage@34@PEBVFieldDescriptor@34@@Z 00000001400925d0 f   libprotobuf:text_format.obj
 0001:00091c50       ?CopyValue@MapFieldPrinterHelper@internal@protobuf@google@@SAXAEBVMapValueRef@34@PEAVMessage@34@PEBVFieldDescriptor@34@@Z 0000000140092c50 f   libprotobuf:text_format.obj
 0001:00092590       ?CreateNested@ParseInfoTree@TextFormat@protobuf@google@@AEAAPEAV1234@PEBVFieldDescriptor@34@@Z 0000000140093590 f   libprotobuf:text_format.obj
 0001:00092800       ?FindAnyType@Finder@TextFormat@protobuf@google@@UEBAPEBVDescriptor@34@AEBVMessage@34@AEBV?$basic_string@DU?$char_traits@D@std@@V?$allocator@D@2@@std@@1@Z 0000000140093800 f   libprotobuf:text_format.obj
 0001:00092820       ?FindExtension@Finder@TextFormat@protobuf@google@@UEBAPEBVFieldDescriptor@34@PEAVMessage@34@AEBV?$basic_string@DU?$char_traits@D@std@@V?$allocator@D@2@@std@@@Z 0000000140093820 f   libprotobuf:text_format.obj
 0001:00092850       ?FindExtensionByNumber@Finder@TextFormat@protobuf@google@@UEBAPEBVFieldDescriptor@34@PEBVDescriptor@34@H@Z 0000000140093850 f   libprotobuf:text_format.obj
 0001:00092860       ?GetCurrentIndentationSize@TextGenerator@Printer@TextFormat@protobuf@google@@UEBA_KXZ 0000000140093860 f i libprotobuf:text_format.obj
 0001:00092870       ?GetFieldPrinter@Printer@TextFormat@protobuf@google@@AEBAPEBVFastFieldValuePrinter@234@PEBVFieldDescriptor@34@@Z 0000000140093870 f i libprotobuf:text_format.obj
 0001:000928c0       ?Indent@TextGenerator@Printer@TextFormat@protobuf@google@@UEAAXXZ 00000001400938c0 f i libprotobuf:text_format.obj
 0001:000928d0       ?LookingAt@ParserImpl@Parser@TextFormat@protobuf@google@@AEAA_NAEBV?$basic_string@DU?$char_traits@D@std@@V?$allocator@D@2@@std@@@Z 00000001400938d0 f i libprotobuf:text_format.obj
 0001:00092920       ?LowerString@protobuf@google@@YAXPEAV?$basic_string@DU?$char_traits@D@std@@V?$allocator@D@2@@std@@@Z 0000000140093920 f i libprotobuf:text_format.obj
 0001:00092970       ?MergeUsingImpl@Parser@TextFormat@protobuf@google@@AEAA_NPEAVZeroCopyInputStream@io@34@PEAVMessage@34@PEAVParserImpl@1234@@Z 0000000140093970 f   libprotobuf:text_format.obj
 0001:00092d30       ?Outdent@TextGenerator@Printer@TextFormat@protobuf@google@@UEAAXXZ 0000000140093d30 f i libprotobuf:text_format.obj
 0001:00092dc0       ?Parse@Parser@TextFormat@protobuf@google@@QEAA_NPEAVZeroCopyInputStream@io@34@PEAVMessage@34@@Z 0000000140093dc0 f   libprotobuf:text_format.obj
 0001:00092ef0       ?ParseFromString@Parser@TextFormat@protobuf@google@@QEAA_NAEBV?$basic_string@DU?$char_traits@D@std@@V?$allocator@D@2@@std@@PEAVMessage@34@@Z 0000000140093ef0 f   libprotobuf:text_format.obj
 0001:00092fa0       ?Print@Printer@TextFormat@protobuf@google@@AEBAXAEBVMessage@34@PEAVTextGenerator@1234@@Z 0000000140093fa0 f   libprotobuf:text_format.obj
 0001:00093310       ?Print@TextGenerator@Printer@TextFormat@protobuf@google@@UEAAXPEBD_K@Z 0000000140094310 f i libprotobuf:text_format.obj
 0001:00093510       ?PrintAny@Printer@TextFormat@protobuf@google@@AEBA_NAEBVMessage@34@PEAVTextGenerator@1234@@Z 0000000140094510 f   libprotobuf:text_format.obj
 0001:00093a10       ?PrintBool@FastFieldValuePrinter@TextFormat@protobuf@google@@UEBAX_NPEAVBaseTextGenerator@234@@Z 0000000140094a10 f   libprotobuf:text_format.obj
 0001:00093a40       ?PrintDouble@FastFieldValuePrinter@TextFormat@protobuf@google@@UEBAXNPEAVBaseTextGenerator@234@@Z 0000000140094a40 f   libprotobuf:text_format.obj
 0001:00093bb0       ?PrintEnum@FastFieldValuePrinter@TextFormat@protobuf@google@@UEBAXHAEBV?$basic_string@DU?$char_traits@D@std@@V?$allocator@D@2@@std@@PEAVBaseTextGenerator@234@@Z 0000000140094bb0 f   libprotobuf:text_format.obj
 0001:00093bd0       ?PrintField@Printer@TextFormat@protobuf@google@@AEBAXAEBVMessage@34@PEBVReflection@34@PEBVFieldDescriptor@34@PEAVTextGenerator@1234@@Z 0000000140094bd0 f   libprotobuf:text_format.obj
 0001:00094070       ?PrintFieldName@FastFieldValuePrinter@TextFormat@protobuf@google@@UEBAXAEBVMessage@34@HHPEBVReflection@34@PEBVFieldDescriptor@34@PEAVBaseTextGenerator@234@@Z 0000000140095070 f   libprotobuf:text_format.obj
 0001:00094090       ?PrintFieldName@FastFieldValuePrinter@TextFormat@protobuf@google@@UEBAXAEBVMessage@34@PEBVReflection@34@PEBVFieldDescriptor@34@PEAVBaseTextGenerator@234@@Z 0000000140095090 f   libprotobuf:text_format.obj
 0001:00094150       ?PrintFieldName@Printer@TextFormat@protobuf@google@@AEBAXAEBVMessage@34@HHPEBVReflection@34@PEBVFieldDescriptor@34@PEAVTextGenerator@1234@@Z 0000000140095150 f   libprotobuf:text_format.obj
 0001:000942e0       ?PrintFieldValue@Printer@TextFormat@protobuf@google@@AEBAXAEBVMessage@34@PEBVReflection@34@PEBVFieldDescriptor@34@HPEAVTextGenerator@1234@@Z 00000001400952e0 f   libprotobuf:text_format.obj
 0001:00094990       ?PrintFieldValueToString@Printer@TextFormat@protobuf@google@@QEBAXAEBVMessage@34@PEBVFieldDescriptor@34@HPEAV?$basic_string@DU?$char_traits@D@std@@V?$allocator@D@2@@std@@@Z 0000000140095990 f   libprotobuf:text_format.obj
 0001:00094a70       ?PrintFieldValueToString@TextFormat@protobuf@google@@SAXAEBVMessage@23@PEBVFieldDescriptor@23@HPEAV?$basic_string@DU?$char_traits@D@std@@V?$allocator@D@2@@std@@@Z 0000000140095a70 f   libprotobuf:text_format.obj
 0001:00094bb0       ?PrintFloat@FastFieldValuePrinter@TextFormat@protobuf@google@@UEBAXMPEAVBaseTextGenerator@234@@Z 0000000140095bb0 f   libprotobuf:text_format.obj
 0001:00094d20       ?PrintInt32@FastFieldValuePrinter@TextFormat@protobuf@google@@UEBAXHPEAVBaseTextGenerator@234@@Z 0000000140095d20 f   libprotobuf:text_format.obj
 0001:00094e10       ?PrintInt64@FastFieldValuePrinter@TextFormat@protobuf@google@@UEBAX_JPEAVBaseTextGenerator@234@@Z 0000000140095e10 f   libprotobuf:text_format.obj
 0001:00094f00       ?PrintMessageEnd@FastFieldValuePrinter@TextFormat@protobuf@google@@UEBAXAEBVMessage@34@HH_NPEAVBaseTextGenerator@234@@Z 0000000140095f00 f   libprotobuf:text_format.obj
 0001:00094f30       ?PrintMessageStart@DebugStringFieldValuePrinter@Printer@TextFormat@protobuf@google@@UEBAXAEBVMessage@45@HH_NPEAVBaseTextGenerator@345@@Z 0000000140095f30 f i libprotobuf:text_format.obj
 0001:00094fc0       ?PrintMessageStart@FastFieldValuePrinter@TextFormat@protobuf@google@@UEBAXAEBVMessage@34@HH_NPEAVBaseTextGenerator@234@@Z 0000000140095fc0 f   libprotobuf:text_format.obj
 0001:00094ff0       ?PrintString@FastFieldValuePrinter@TextFormat@protobuf@google@@UEBAXAEBV?$basic_string@DU?$char_traits@D@std@@V?$allocator@D@2@@std@@PEAVBaseTextGenerator@234@@Z 0000000140095ff0 f   libprotobuf:text_format.obj
 0001:000950c0       ?PrintUInt32@FastFieldValuePrinter@TextFormat@protobuf@google@@UEBAXIPEAVBaseTextGenerator@234@@Z 00000001400960c0 f   libprotobuf:text_format.obj
 0001:000951b0       ?PrintUInt64@FastFieldValuePrinter@TextFormat@protobuf@google@@UEBAX_KPEAVBaseTextGenerator@234@@Z 00000001400961b0 f   libprotobuf:text_format.obj
 0001:000952a0       ?PrintUnknownFields@Printer@TextFormat@protobuf@google@@AEBAXAEBVUnknownFieldSet@34@PEAVTextGenerator@1234@H@Z 00000001400962a0 f   libprotobuf:text_format.obj
 0001:00095b50       ?RecordLocation@TextFormat@protobuf@google@@CAXPEAVParseInfoTree@123@PEBVFieldDescriptor@23@UParseLocationRange@123@@Z 0000000140096b50 f i libprotobuf:text_format.obj
 0001:00095c70       ?ReportError@ParserImpl@Parser@TextFormat@protobuf@google@@AEAAXAEBV?$basic_string@DU?$char_traits@D@std@@V?$allocator@D@2@@std@@@Z 0000000140096c70 f i libprotobuf:text_format.obj
 0001:00095c80       ?ReportError@ParserImpl@Parser@TextFormat@protobuf@google@@QEAAXHHAEBV?$basic_string@DU?$char_traits@D@std@@V?$allocator@D@2@@std@@@Z 0000000140096c80 f i libprotobuf:text_format.obj
 0001:00095df0       ?ReportWarning@ParserImpl@Parser@TextFormat@protobuf@google@@AEAAXAEBV?$basic_string@DU?$char_traits@D@std@@V?$allocator@D@2@@std@@@Z 0000000140096df0 f i libprotobuf:text_format.obj
 0001:00095e00       ?ReportWarning@ParserImpl@Parser@TextFormat@protobuf@google@@QEAAXHHAEBV?$basic_string@DU?$char_traits@D@std@@V?$allocator@D@2@@std@@@Z 0000000140096e00 f i libprotobuf:text_format.obj
 0001:00095f70       ?ShortDebugString@Message@protobuf@google@@QEBA?AV?$basic_string@DU?$char_traits@D@std@@V?$allocator@D@2@@std@@XZ 0000000140096f70 f   libprotobuf:text_format.obj
 0001:00096160       ?SkipField@ParserImpl@Parser@TextFormat@protobuf@google@@AEAA_NXZ 0000000140097160 f i libprotobuf:text_format.obj
 0001:000965d0       ?SkipFieldMessage@ParserImpl@Parser@TextFormat@protobuf@google@@AEAA_NXZ 00000001400975d0 f i libprotobuf:text_format.obj
 0001:00096880       ?SkipFieldValue@ParserImpl@Parser@TextFormat@protobuf@google@@AEAA_NXZ 0000000140097880 f i libprotobuf:text_format.obj
 0001:00096df0       ?SortMap@MapFieldPrinterHelper@internal@protobuf@google@@SA_NAEBVMessage@34@PEBVReflection@34@PEBVFieldDescriptor@34@PEAV?$vector@PEBVMessage@protobuf@google@@V?$allocator@PEBVMessage@protobuf@google@@@std@@@std@@@Z 0000000140097df0 f   libprotobuf:text_format.obj
 0001:00097140       ?TryConsume@ParserImpl@Parser@TextFormat@protobuf@google@@AEAA_NAEBV?$basic_string@DU?$char_traits@D@std@@V?$allocator@D@2@@std@@@Z 0000000140098140 f i libprotobuf:text_format.obj
 0001:000971a0       ?TryConsumeBeforeWhitespace@ParserImpl@Parser@TextFormat@protobuf@google@@AEAA_NAEBV?$basic_string@DU?$char_traits@D@std@@V?$allocator@D@2@@std@@@Z 00000001400981a0 f i libprotobuf:text_format.obj
 0001:00097220       ?TryConsumeWhitespace@ParserImpl@Parser@TextFormat@protobuf@google@@AEAA_NXZ 0000000140098220 f i libprotobuf:text_format.obj
 0001:00097350       ?Write@TextGenerator@Printer@TextFormat@protobuf@google@@AEAAXPEBD_K@Z 0000000140098350 f i libprotobuf:text_format.obj
 0001:000974b0       ?_Destroy@?$vector@V?$unique_ptr@VParseInfoTree@TextFormat@protobuf@google@@U?$default_delete@VParseInfoTree@TextFormat@protobuf@google@@@std@@@std@@V?$allocator@V?$unique_ptr@VParseInfoTree@TextFormat@protobuf@google@@U?$default_delete@VParseInfoTree@TextFormat@protobuf@google@@@std@@@std@@@2@@std@@AEAAXPEAV?$unique_ptr@VParseInfoTree@TextFormat@protobuf@google@@U?$default_delete@VParseInfoTree@TextFormat@protobuf@google@@@std@@@2@0@Z 00000001400984b0 f i libprotobuf:text_format.obj
 0001:000974d0       ?containing_oneof@FieldDescriptor@protobuf@google@@QEBAPEBVOneofDescriptor@23@XZ 00000001400984d0 f i libprotobuf:text_format.obj
 0001:000974e0       ?cpp_type@FieldDescriptor@protobuf@google@@QEBA?AW4CppType@123@XZ 00000001400984e0 f i libprotobuf:text_format.obj
 0001:00097500       ?MergeFrom@MessageOptions@protobuf@google@@QEAAXAEBV123@@Z 0000000140098500 f   libprotobuf:descriptor.pb.obj
 0001:00097500       ?MergeImpl@MessageOptions@protobuf@google@@CAXAEAVMessage@23@AEBV423@@Z 0000000140098500 f   libprotobuf:descriptor.pb.obj
 0001:000975f0       ?MergeFrom@FieldOptions@protobuf@google@@QEAAXAEBV123@@Z 00000001400985f0 f   libprotobuf:descriptor.pb.obj
 0001:000975f0       ?MergeImpl@FieldOptions@protobuf@google@@CAXAEAVMessage@23@AEBV423@@Z 00000001400985f0 f   libprotobuf:descriptor.pb.obj
 0001:00097700       ?MergeFrom@OneofOptions@protobuf@google@@QEAAXAEBV123@@Z 0000000140098700 f   libprotobuf:descriptor.pb.obj
 0001:00097700       ?MergeImpl@OneofOptions@protobuf@google@@CAXAEAVMessage@23@AEBV423@@Z 0000000140098700 f   libprotobuf:descriptor.pb.obj
 0001:000977c0       ?MergeFrom@EnumOptions@protobuf@google@@QEAAXAEBV123@@Z 00000001400987c0 f   libprotobuf:descriptor.pb.obj
 0001:000977c0       ?MergeImpl@EnumOptions@protobuf@google@@CAXAEAVMessage@23@AEBV423@@Z 00000001400987c0 f   libprotobuf:descriptor.pb.obj
 0001:000978a0       ?MergeFrom@EnumValueOptions@protobuf@google@@QEAAXAEBV123@@Z 00000001400988a0 f   libprotobuf:descriptor.pb.obj
 0001:000978a0       ?MergeImpl@EnumValueOptions@protobuf@google@@CAXAEAVMessage@23@AEBV423@@Z 00000001400988a0 f   libprotobuf:descriptor.pb.obj
 0001:00097970       ?MergeFrom@ServiceOptions@protobuf@google@@QEAAXAEBV123@@Z 0000000140098970 f   libprotobuf:descriptor.pb.obj
 0001:00097970       ?MergeImpl@ServiceOptions@protobuf@google@@CAXAEAVMessage@23@AEBV423@@Z 0000000140098970 f   libprotobuf:descriptor.pb.obj
 0001:00097a40       ?MergeFrom@MethodOptions@protobuf@google@@QEAAXAEBV123@@Z 0000000140098a40 f   libprotobuf:descriptor.pb.obj
 0001:00097a40       ?MergeImpl@MethodOptions@protobuf@google@@CAXAEAVMessage@23@AEBV423@@Z 0000000140098a40 f   libprotobuf:descriptor.pb.obj
 0001:00097b20       ?MergeFrom@UninterpretedOption_NamePart@protobuf@google@@QEAAXAEBV123@@Z 0000000140098b20 f   libprotobuf:descriptor.pb.obj
 0001:00097b20       ?MergeImpl@UninterpretedOption_NamePart@protobuf@google@@CAXAEAVMessage@23@AEBV423@@Z 0000000140098b20 f   libprotobuf:descriptor.pb.obj
 0001:00097bb0       ?MergeImpl@UninterpretedOption@protobuf@google@@CAXAEAVMessage@23@AEBV423@@Z 0000000140098bb0 f   libprotobuf:descriptor.pb.obj
 0001:00097d00       ?MergeFrom@SourceCodeInfo_Location@protobuf@google@@QEAAXAEBV123@@Z 0000000140098d00 f   libprotobuf:descriptor.pb.obj
 0001:00097d00       ?MergeImpl@SourceCodeInfo_Location@protobuf@google@@CAXAEAVMessage@23@AEBV423@@Z 0000000140098d00 f   libprotobuf:descriptor.pb.obj
 0001:00097dd0       ?MergeImpl@FileDescriptorSet@protobuf@google@@CAXAEAVMessage@23@AEBV423@@Z 0000000140098dd0 f   libprotobuf:descriptor.pb.obj
 0001:00097e70       ?MergeFrom@SourceCodeInfo@protobuf@google@@QEAAXAEBV123@@Z 0000000140098e70 f   libprotobuf:descriptor.pb.obj
 0001:00097e70       ?MergeImpl@SourceCodeInfo@protobuf@google@@CAXAEAVMessage@23@AEBV423@@Z 0000000140098e70 f   libprotobuf:descriptor.pb.obj
 0001:00097f10       ?MergeImpl@FileDescriptorProto@protobuf@google@@CAXAEAVMessage@23@AEBV423@@Z 0000000140098f10 f   libprotobuf:descriptor.pb.obj
 0001:00098200       ?MergeFrom@GeneratedCodeInfo_Annotation@protobuf@google@@QEAAXAEBV123@@Z 0000000140099200 f   libprotobuf:descriptor.pb.obj
 0001:00098200       ?MergeImpl@GeneratedCodeInfo_Annotation@protobuf@google@@CAXAEAVMessage@23@AEBV423@@Z 0000000140099200 f   libprotobuf:descriptor.pb.obj
 0001:000982a0       ?MergeImpl@GeneratedCodeInfo@protobuf@google@@CAXAEAVMessage@23@AEBV423@@Z 00000001400992a0 f   libprotobuf:descriptor.pb.obj
 0001:00098340       ?MergeFrom@DescriptorProto_ExtensionRange@protobuf@google@@QEAAXAEBV123@@Z 0000000140099340 f   libprotobuf:descriptor.pb.obj
 0001:00098340       ?MergeImpl@DescriptorProto_ExtensionRange@protobuf@google@@CAXAEAVMessage@23@AEBV423@@Z 0000000140099340 f   libprotobuf:descriptor.pb.obj
 0001:00098400       ?MergeImpl@DescriptorProto_ReservedRange@protobuf@google@@CAXAEAVMessage@23@AEBV423@@Z 0000000140099400 f   libprotobuf:descriptor.pb.obj
 0001:00098400       ?MergeImpl@EnumDescriptorProto_EnumReservedRange@protobuf@google@@CAXAEAVMessage@23@AEBV423@@Z 0000000140099400 f   libprotobuf:descriptor.pb.obj
 0001:00098450       ?MergeImpl@DescriptorProto@protobuf@google@@CAXAEAVMessage@23@AEBV423@@Z 0000000140099450 f   libprotobuf:descriptor.pb.obj
 0001:00098730       ?MergeFrom@ExtensionRangeOptions@protobuf@google@@QEAAXAEBV123@@Z 0000000140099730 f   libprotobuf:descriptor.pb.obj
 0001:00098730       ?MergeImpl@ExtensionRangeOptions@protobuf@google@@CAXAEAVMessage@23@AEBV423@@Z 0000000140099730 f   libprotobuf:descriptor.pb.obj
 0001:000987f0       ?MergeImpl@FieldDescriptorProto@protobuf@google@@CAXAEAVMessage@23@AEBV423@@Z 00000001400997f0 f   libprotobuf:descriptor.pb.obj
 0001:000989c0       ?MergeFrom@OneofDescriptorProto@protobuf@google@@QEAAXAEBV123@@Z 00000001400999c0 f   libprotobuf:descriptor.pb.obj
 0001:000989c0       ?MergeImpl@OneofDescriptorProto@protobuf@google@@CAXAEAVMessage@23@AEBV423@@Z 00000001400999c0 f   libprotobuf:descriptor.pb.obj
 0001:00098a80       ?MergeImpl@EnumDescriptorProto@protobuf@google@@CAXAEAVMessage@23@AEBV423@@Z 0000000140099a80 f   libprotobuf:descriptor.pb.obj
 0001:00098be0       ?MergeFrom@EnumValueDescriptorProto@protobuf@google@@QEAAXAEBV123@@Z 0000000140099be0 f   libprotobuf:descriptor.pb.obj
 0001:00098be0       ?MergeImpl@EnumValueDescriptorProto@protobuf@google@@CAXAEAVMessage@23@AEBV423@@Z 0000000140099be0 f   libprotobuf:descriptor.pb.obj
 0001:00098cc0       ?MergeImpl@ServiceDescriptorProto@protobuf@google@@CAXAEAVMessage@23@AEBV423@@Z 0000000140099cc0 f   libprotobuf:descriptor.pb.obj
 0001:00098dd0       ?MergeImpl@MethodDescriptorProto@protobuf@google@@CAXAEAVMessage@23@AEBV423@@Z 0000000140099dd0 f   libprotobuf:descriptor.pb.obj
 0001:00098f20       ?MergeImpl@FileOptions@protobuf@google@@CAXAEAVMessage@23@AEBV423@@Z 0000000140099f20 f   libprotobuf:descriptor.pb.obj
 0001:00099270       ??$AllAreInitialized@VDescriptorProto@protobuf@google@@@internal@protobuf@google@@YA_NAEBV?$RepeatedPtrField@VDescriptorProto@protobuf@google@@@12@@Z 000000014009a270 f i libprotobuf:descriptor.pb.obj
 0001:000992d0       ??$AllAreInitialized@VEnumDescriptorProto@protobuf@google@@@internal@protobuf@google@@YA_NAEBV?$RepeatedPtrField@VEnumDescriptorProto@protobuf@google@@@12@@Z 000000014009a2d0 f i libprotobuf:descriptor.pb.obj
 0001:00099400       ??$AllAreInitialized@VFieldDescriptorProto@protobuf@google@@@internal@protobuf@google@@YA_NAEBV?$RepeatedPtrField@VFieldDescriptorProto@protobuf@google@@@12@@Z 000000014009a400 f i libprotobuf:descriptor.pb.obj
 0001:00099480       ??$AllAreInitialized@VServiceDescriptorProto@protobuf@google@@@internal@protobuf@google@@YA_NAEBV?$RepeatedPtrField@VServiceDescriptorProto@protobuf@google@@@12@@Z 000000014009a480 f i libprotobuf:descriptor.pb.obj
 0001:000995b0       ??$AllAreInitialized@VUninterpretedOption@protobuf@google@@@internal@protobuf@google@@YA_NAEBV?$RepeatedPtrField@VUninterpretedOption@protobuf@google@@@12@@Z 000000014009a5b0 f i libprotobuf:descriptor.pb.obj
 0001:00099620       ??$CreateMaybeMessage@VDescriptorProto@protobuf@google@@$$V@Arena@protobuf@google@@CAPEAVDescriptorProto@12@PEAV012@@Z 000000014009a620 f   libprotobuf:descriptor.pb.obj
 0001:00099680       ??$CreateMaybeMessage@VDescriptorProto_ExtensionRange@protobuf@google@@$$V@Arena@protobuf@google@@CAPEAVDescriptorProto_ExtensionRange@12@PEAV012@@Z 000000014009a680 f   libprotobuf:descriptor.pb.obj
 0001:00099700       ??$CreateMaybeMessage@VDescriptorProto_ReservedRange@protobuf@google@@$$V@Arena@protobuf@google@@CAPEAVDescriptorProto_ReservedRange@12@PEAV012@@Z 000000014009a700 f   libprotobuf:descriptor.pb.obj
 0001:00099780       ??$CreateMaybeMessage@VEnumDescriptorProto@protobuf@google@@$$V@Arena@protobuf@google@@CAPEAVEnumDescriptorProto@12@PEAV012@@Z 000000014009a780 f   libprotobuf:descriptor.pb.obj
 0001:000998a0       ??$CreateMaybeMessage@VEnumDescriptorProto_EnumReservedRange@protobuf@google@@$$V@Arena@protobuf@google@@CAPEAVEnumDescriptorProto_EnumReservedRange@12@PEAV012@@Z 000000014009a8a0 f   libprotobuf:descriptor.pb.obj
 0001:00099920       ??$CreateMaybeMessage@VEnumOptions@protobuf@google@@$$V@Arena@protobuf@google@@CAPEAVEnumOptions@12@PEAV012@@Z 000000014009a920 f   libprotobuf:descriptor.pb.obj
 0001:00099a10       ??$CreateMaybeMessage@VEnumValueDescriptorProto@protobuf@google@@$$V@Arena@protobuf@google@@CAPEAVEnumValueDescriptorProto@12@PEAV012@@Z 000000014009aa10 f   libprotobuf:descriptor.pb.obj
 0001:00099aa0       ??$CreateMaybeMessage@VEnumValueOptions@protobuf@google@@$$V@Arena@protobuf@google@@CAPEAVEnumValueOptions@12@PEAV012@@Z 000000014009aaa0 f   libprotobuf:descriptor.pb.obj
 0001:00099b80       ??$CreateMaybeMessage@VExtensionRangeOptions@protobuf@google@@$$V@Arena@protobuf@google@@CAPEAVExtensionRangeOptions@12@PEAV012@@Z 000000014009ab80 f   libprotobuf:descriptor.pb.obj
 0001:00099c60       ??$CreateMaybeMessage@VFieldDescriptorProto@protobuf@google@@$$V@Arena@protobuf@google@@CAPEAVFieldDescriptorProto@12@PEAV012@@Z 000000014009ac60 f   libprotobuf:descriptor.pb.obj
 0001:00099d40       ??$CreateMaybeMessage@VFieldOptions@protobuf@google@@$$V@Arena@protobuf@google@@CAPEAVFieldOptions@12@PEAV012@@Z 000000014009ad40 f   libprotobuf:descriptor.pb.obj
 0001:00099e30       ??$CreateMaybeMessage@VFileDescriptorProto@protobuf@google@@$$V@Arena@protobuf@google@@CAPEAVFileDescriptorProto@12@PEAV012@@Z 000000014009ae30 f   libprotobuf:descriptor.pb.obj
 0001:00099e90       ??$CreateMaybeMessage@VFileDescriptorSet@protobuf@google@@$$V@Arena@protobuf@google@@CAPEAVFileDescriptorSet@12@PEAV012@@Z 000000014009ae90 f   libprotobuf:descriptor.pb.obj
 0001:00099f10       ??$CreateMaybeMessage@VFileOptions@protobuf@google@@$$V@Arena@protobuf@google@@CAPEAVFileOptions@12@PEAV012@@Z 000000014009af10 f   libprotobuf:descriptor.pb.obj
 0001:00099f70       ??$CreateMaybeMessage@VGeneratedCodeInfo@protobuf@google@@$$V@Arena@protobuf@google@@CAPEAVGeneratedCodeInfo@12@PEAV012@@Z 000000014009af70 f   libprotobuf:descriptor.pb.obj
 0001:00099ff0       ??$CreateMaybeMessage@VGeneratedCodeInfo_Annotation@protobuf@google@@$$V@Arena@protobuf@google@@CAPEAVGeneratedCodeInfo_Annotation@12@PEAV012@@Z 000000014009aff0 f   libprotobuf:descriptor.pb.obj
 0001:0009a0f0       ??$CreateMaybeMessage@VMessageOptions@protobuf@google@@$$V@Arena@protobuf@google@@CAPEAVMessageOptions@12@PEAV012@@Z 000000014009b0f0 f   libprotobuf:descriptor.pb.obj
 0001:0009a1d0       ??$CreateMaybeMessage@VMethodDescriptorProto@protobuf@google@@$$V@Arena@protobuf@google@@CAPEAVMethodDescriptorProto@12@PEAV012@@Z 000000014009b1d0 f   libprotobuf:descriptor.pb.obj
 0001:0009a280       ??$CreateMaybeMessage@VMethodOptions@protobuf@google@@$$V@Arena@protobuf@google@@CAPEAVMethodOptions@12@PEAV012@@Z 000000014009b280 f   libprotobuf:descriptor.pb.obj
 0001:0009a370       ??$CreateMaybeMessage@VOneofDescriptorProto@protobuf@google@@$$V@Arena@protobuf@google@@CAPEAVOneofDescriptorProto@12@PEAV012@@Z 000000014009b370 f   libprotobuf:descriptor.pb.obj
 0001:0009a400       ??$CreateMaybeMessage@VOneofOptions@protobuf@google@@$$V@Arena@protobuf@google@@CAPEAVOneofOptions@12@PEAV012@@Z 000000014009b400 f   libprotobuf:descriptor.pb.obj
 0001:0009a4e0       ??$CreateMaybeMessage@VServiceDescriptorProto@protobuf@google@@$$V@Arena@protobuf@google@@CAPEAVServiceDescriptorProto@12@PEAV012@@Z 000000014009b4e0 f   libprotobuf:descriptor.pb.obj
 0001:0009a590       ??$CreateMaybeMessage@VServiceOptions@protobuf@google@@$$V@Arena@protobuf@google@@CAPEAVServiceOptions@12@PEAV012@@Z 000000014009b590 f   libprotobuf:descriptor.pb.obj
 0001:0009a670       ??$CreateMaybeMessage@VSourceCodeInfo@protobuf@google@@$$V@Arena@protobuf@google@@CAPEAVSourceCodeInfo@12@PEAV012@@Z 000000014009b670 f   libprotobuf:descriptor.pb.obj
 0001:0009a6f0       ??$CreateMaybeMessage@VSourceCodeInfo_Location@protobuf@google@@$$V@Arena@protobuf@google@@CAPEAVSourceCodeInfo_Location@12@PEAV012@@Z 000000014009b6f0 f   libprotobuf:descriptor.pb.obj
 0001:0009a750       ??$CreateMaybeMessage@VUninterpretedOption@protobuf@google@@$$V@Arena@protobuf@google@@CAPEAVUninterpretedOption@12@PEAV012@@Z 000000014009b750 f   libprotobuf:descriptor.pb.obj
 0001:0009a820       ??$CreateMaybeMessage@VUninterpretedOption_NamePart@protobuf@google@@$$V@Arena@protobuf@google@@CAPEAVUninterpretedOption_NamePart@12@PEAV012@@Z 000000014009b820 f   libprotobuf:descriptor.pb.obj
 0001:0009a8b0       ??$MergeFrom@VTypeHandler@?$RepeatedPtrField@VDescriptorProto@protobuf@google@@@protobuf@google@@@RepeatedPtrFieldBase@internal@protobuf@google@@QEAAXAEBV0123@@Z 000000014009b8b0 f i libprotobuf:descriptor.pb.obj
 0001:0009a920       ??$MergeFromInnerLoop@VTypeHandler@?$RepeatedPtrField@VDescriptorProto@protobuf@google@@@protobuf@google@@@RepeatedPtrFieldBase@internal@protobuf@google@@AEAAXPEAPEAX0HH@Z 000000014009b920 f i libprotobuf:descriptor.pb.obj
 0001:0009a9b0       ??$MergeFromInnerLoop@VTypeHandler@?$RepeatedPtrField@VDescriptorProto_ExtensionRange@protobuf@google@@@protobuf@google@@@RepeatedPtrFieldBase@internal@protobuf@google@@AEAAXPEAPEAX0HH@Z 000000014009b9b0 f i libprotobuf:descriptor.pb.obj
 0001:0009aa40       ??$MergeFromInnerLoop@VTypeHandler@?$RepeatedPtrField@VDescriptorProto_ReservedRange@protobuf@google@@@protobuf@google@@@RepeatedPtrFieldBase@internal@protobuf@google@@AEAAXPEAPEAX0HH@Z 000000014009ba40 f i libprotobuf:descriptor.pb.obj
 0001:0009aad0       ??$MergeFromInnerLoop@VTypeHandler@?$RepeatedPtrField@VEnumDescriptorProto@protobuf@google@@@protobuf@google@@@RepeatedPtrFieldBase@internal@protobuf@google@@AEAAXPEAPEAX0HH@Z 000000014009bad0 f i libprotobuf:descriptor.pb.obj
 0001:0009ab60       ??$MergeFromInnerLoop@VTypeHandler@?$RepeatedPtrField@VEnumDescriptorProto_EnumReservedRange@protobuf@google@@@protobuf@google@@@RepeatedPtrFieldBase@internal@protobuf@google@@AEAAXPEAPEAX0HH@Z 000000014009bb60 f i libprotobuf:descriptor.pb.obj
 0001:0009abf0       ??$MergeFromInnerLoop@VTypeHandler@?$RepeatedPtrField@VEnumValueDescriptorProto@protobuf@google@@@protobuf@google@@@RepeatedPtrFieldBase@internal@protobuf@google@@AEAAXPEAPEAX0HH@Z 000000014009bbf0 f i libprotobuf:descriptor.pb.obj
 0001:0009ac80       ??$MergeFromInnerLoop@VTypeHandler@?$RepeatedPtrField@VFieldDescriptorProto@protobuf@google@@@protobuf@google@@@RepeatedPtrFieldBase@internal@protobuf@google@@AEAAXPEAPEAX0HH@Z 000000014009bc80 f i libprotobuf:descriptor.pb.obj
 0001:0009ad10       ??$MergeFromInnerLoop@VTypeHandler@?$RepeatedPtrField@VFileDescriptorProto@protobuf@google@@@protobuf@google@@@RepeatedPtrFieldBase@internal@protobuf@google@@AEAAXPEAPEAX0HH@Z 000000014009bd10 f i libprotobuf:descriptor.pb.obj
 0001:0009ada0       ??$MergeFromInnerLoop@VTypeHandler@?$RepeatedPtrField@VGeneratedCodeInfo_Annotation@protobuf@google@@@protobuf@google@@@RepeatedPtrFieldBase@internal@protobuf@google@@AEAAXPEAPEAX0HH@Z 000000014009bda0 f i libprotobuf:descriptor.pb.obj
 0001:0009ae30       ??$MergeFromInnerLoop@VTypeHandler@?$RepeatedPtrField@VMethodDescriptorProto@protobuf@google@@@protobuf@google@@@RepeatedPtrFieldBase@internal@protobuf@google@@AEAAXPEAPEAX0HH@Z 000000014009be30 f i libprotobuf:descriptor.pb.obj
 0001:0009aec0       ??$MergeFromInnerLoop@VTypeHandler@?$RepeatedPtrField@VOneofDescriptorProto@protobuf@google@@@protobuf@google@@@RepeatedPtrFieldBase@internal@protobuf@google@@AEAAXPEAPEAX0HH@Z 000000014009bec0 f i libprotobuf:descriptor.pb.obj
 0001:0009af50       ??$MergeFromInnerLoop@VTypeHandler@?$RepeatedPtrField@VServiceDescriptorProto@protobuf@google@@@protobuf@google@@@RepeatedPtrFieldBase@internal@protobuf@google@@AEAAXPEAPEAX0HH@Z 000000014009bf50 f i libprotobuf:descriptor.pb.obj
 0001:0009afe0       ??$MergeFromInnerLoop@VTypeHandler@?$RepeatedPtrField@VUninterpretedOption@protobuf@google@@@protobuf@google@@@RepeatedPtrFieldBase@internal@protobuf@google@@AEAAXPEAPEAX0HH@Z 000000014009bfe0 f i libprotobuf:descriptor.pb.obj
 0001:0009b070       ??$MergeFromInnerLoop@VTypeHandler@?$RepeatedPtrField@VUninterpretedOption_NamePart@protobuf@google@@@protobuf@google@@@RepeatedPtrFieldBase@internal@protobuf@google@@AEAAXPEAPEAX0HH@Z 000000014009c070 f i libprotobuf:descriptor.pb.obj
 0001:0009b100       ??$MessageSize@VDescriptorProto@protobuf@google@@@WireFormatLite@internal@protobuf@google@@SA_KAEBVDescriptorProto@23@@Z 000000014009c100 f i libprotobuf:descriptor.pb.obj
 0001:0009b130       ??0DescriptorProto@protobuf@google@@IEAA@PEAVArena@12@_N@Z 000000014009c130 f   libprotobuf:descriptor.pb.obj
 0001:0009b220       ??0EnumOptions@protobuf@google@@IEAA@PEAVArena@12@_N@Z 000000014009c220 f   libprotobuf:descriptor.pb.obj
 0001:0009b2a0       ??0EnumValueOptions@protobuf@google@@IEAA@PEAVArena@12@_N@Z 000000014009c2a0 f   libprotobuf:descriptor.pb.obj
 0001:0009b320       ??0ExtensionRangeOptions@protobuf@google@@IEAA@PEAVArena@12@_N@Z 000000014009c320 f   libprotobuf:descriptor.pb.obj
 0001:0009b390       ??0FieldOptions@protobuf@google@@IEAA@PEAVArena@12@_N@Z 000000014009c390 f   libprotobuf:descriptor.pb.obj
 0001:0009b410       ??0FileDescriptorProto@protobuf@google@@IEAA@PEAVArena@12@_N@Z 000000014009c410 f   libprotobuf:descriptor.pb.obj
 0001:0009b500       ??0FileOptions@protobuf@google@@IEAA@PEAVArena@12@_N@Z 000000014009c500 f   libprotobuf:descriptor.pb.obj
 0001:0009b5e0       ??0MessageOptions@protobuf@google@@IEAA@PEAVArena@12@_N@Z 000000014009c5e0 f   libprotobuf:descriptor.pb.obj
 0001:0009b660       ??0MethodOptions@protobuf@google@@IEAA@PEAVArena@12@_N@Z 000000014009c660 f   libprotobuf:descriptor.pb.obj
 0001:0009b6e0       ??0OneofOptions@protobuf@google@@IEAA@PEAVArena@12@_N@Z 000000014009c6e0 f   libprotobuf:descriptor.pb.obj
 0001:0009b750       ??0ServiceOptions@protobuf@google@@IEAA@PEAVArena@12@_N@Z 000000014009c750 f   libprotobuf:descriptor.pb.obj
 0001:0009b7d0       ??0SourceCodeInfo@protobuf@google@@IEAA@PEAVArena@12@_N@Z 000000014009c7d0 f   libprotobuf:descriptor.pb.obj
 0001:0009b810       ??0SourceCodeInfo_Location@protobuf@google@@IEAA@PEAVArena@12@_N@Z 000000014009c810 f   libprotobuf:descriptor.pb.obj
 0001:0009b8c0       ??1?$RepeatedPtrField@VDescriptorProto_ReservedRange@protobuf@google@@@protobuf@google@@QEAA@XZ 000000014009c8c0 f i libprotobuf:descriptor.pb.obj
 0001:0009b8c0       ??1?$RepeatedPtrField@VEnumDescriptorProto_EnumReservedRange@protobuf@google@@@protobuf@google@@QEAA@XZ 000000014009c8c0 f i libprotobuf:descriptor.pb.obj
 0001:0009b8e0       ??1DescriptorProto@protobuf@google@@UEAA@XZ 000000014009c8e0 f   libprotobuf:descriptor.pb.obj
 0001:0009ba30       ??1DescriptorProto_ExtensionRange@protobuf@google@@UEAA@XZ 000000014009ca30 f   libprotobuf:descriptor.pb.obj
 0001:0009bad0       ??1EnumDescriptorProto@protobuf@google@@UEAA@XZ 000000014009cad0 f   libprotobuf:descriptor.pb.obj
 0001:0009bbb0       ??1EnumOptions@protobuf@google@@UEAA@XZ 000000014009cbb0 f   libprotobuf:descriptor.pb.obj
 0001:0009bc40       ??1EnumValueDescriptorProto@protobuf@google@@UEAA@XZ 000000014009cc40 f   libprotobuf:descriptor.pb.obj
 0001:0009bce0       ??1EnumValueOptions@protobuf@google@@UEAA@XZ 000000014009cce0 f   libprotobuf:descriptor.pb.obj
 0001:0009bd70       ??1ExtensionRangeOptions@protobuf@google@@UEAA@XZ 000000014009cd70 f   libprotobuf:descriptor.pb.obj
 0001:0009be00       ??1FieldDescriptorProto@protobuf@google@@UEAA@XZ 000000014009ce00 f   libprotobuf:descriptor.pb.obj
 0001:0009bec0       ??1FieldOptions@protobuf@google@@UEAA@XZ 000000014009cec0 f   libprotobuf:descriptor.pb.obj
 0001:0009bf50       ??1FileDescriptorProto@protobuf@google@@UEAA@XZ 000000014009cf50 f   libprotobuf:descriptor.pb.obj
 0001:0009c0b0       ??1FileDescriptorSet@protobuf@google@@UEAA@XZ 000000014009d0b0 f   libprotobuf:descriptor.pb.obj
 0001:0009c130       ??1FileOptions@protobuf@google@@UEAA@XZ 000000014009d130 f   libprotobuf:descriptor.pb.obj
 0001:0009c220       ??1GeneratedCodeInfo@protobuf@google@@UEAA@XZ 000000014009d220 f   libprotobuf:descriptor.pb.obj
 0001:0009c2a0       ??1GeneratedCodeInfo_Annotation@protobuf@google@@UEAA@XZ 000000014009d2a0 f   libprotobuf:descriptor.pb.obj
 0001:0009c320       ??1MessageOptions@protobuf@google@@UEAA@XZ 000000014009d320 f   libprotobuf:descriptor.pb.obj
 0001:0009c3b0       ??1MethodDescriptorProto@protobuf@google@@UEAA@XZ 000000014009d3b0 f   libprotobuf:descriptor.pb.obj
 0001:0009c460       ??1MethodOptions@protobuf@google@@UEAA@XZ 000000014009d460 f   libprotobuf:descriptor.pb.obj
 0001:0009c4f0       ??1OneofDescriptorProto@protobuf@google@@UEAA@XZ 000000014009d4f0 f   libprotobuf:descriptor.pb.obj
 0001:0009c590       ??1OneofOptions@protobuf@google@@UEAA@XZ 000000014009d590 f   libprotobuf:descriptor.pb.obj
 0001:0009c620       ??1ServiceDescriptorProto@protobuf@google@@UEAA@XZ 000000014009d620 f   libprotobuf:descriptor.pb.obj
 0001:0009c6e0       ??1ServiceOptions@protobuf@google@@UEAA@XZ 000000014009d6e0 f   libprotobuf:descriptor.pb.obj
 0001:0009c770       ??1SourceCodeInfo@protobuf@google@@UEAA@XZ 000000014009d770 f   libprotobuf:descriptor.pb.obj
 0001:0009c7f0       ??1SourceCodeInfo_Location@protobuf@google@@UEAA@XZ 000000014009d7f0 f   libprotobuf:descriptor.pb.obj
 0001:0009c890       ??1UninterpretedOption@protobuf@google@@UEAA@XZ 000000014009d890 f   libprotobuf:descriptor.pb.obj
 0001:0009c930       ??1UninterpretedOption_NamePart@protobuf@google@@UEAA@XZ 000000014009d930 f   libprotobuf:descriptor.pb.obj
 0001:0009c9b0       ??_EDescriptorProto@protobuf@google@@UEAAPEAXI@Z 000000014009d9b0 f i libprotobuf:descriptor.pb.obj
 0001:0009c9b0       ??_GDescriptorProto@protobuf@google@@UEAAPEAXI@Z 000000014009d9b0 f i libprotobuf:descriptor.pb.obj
 0001:0009c9f0       ??_EDescriptorProto_ExtensionRange@protobuf@google@@UEAAPEAXI@Z 000000014009d9f0 f i libprotobuf:descriptor.pb.obj
 0001:0009c9f0       ??_GDescriptorProto_ExtensionRange@protobuf@google@@UEAAPEAXI@Z 000000014009d9f0 f i libprotobuf:descriptor.pb.obj
 0001:0009ca30       ??_EDescriptorProto_ReservedRange@protobuf@google@@UEAAPEAXI@Z 000000014009da30 f i libprotobuf:descriptor.pb.obj
 0001:0009ca30       ??_GDescriptorProto_ReservedRange@protobuf@google@@UEAAPEAXI@Z 000000014009da30 f i libprotobuf:descriptor.pb.obj
 0001:0009cab0       ??_EEnumDescriptorProto@protobuf@google@@UEAAPEAXI@Z 000000014009dab0 f i libprotobuf:descriptor.pb.obj
 0001:0009cab0       ??_GEnumDescriptorProto@protobuf@google@@UEAAPEAXI@Z 000000014009dab0 f i libprotobuf:descriptor.pb.obj
 0001:0009caf0       ??_EEnumDescriptorProto_EnumReservedRange@protobuf@google@@UEAAPEAXI@Z 000000014009daf0 f i libprotobuf:descriptor.pb.obj
 0001:0009caf0       ??_GEnumDescriptorProto_EnumReservedRange@protobuf@google@@UEAAPEAXI@Z 000000014009daf0 f i libprotobuf:descriptor.pb.obj
 0001:0009cb70       ??_EEnumValueDescriptorProto@protobuf@google@@UEAAPEAXI@Z 000000014009db70 f i libprotobuf:descriptor.pb.obj
 0001:0009cb70       ??_GEnumValueDescriptorProto@protobuf@google@@UEAAPEAXI@Z 000000014009db70 f i libprotobuf:descriptor.pb.obj
 0001:0009cbb0       ??_EFieldDescriptorProto@protobuf@google@@UEAAPEAXI@Z 000000014009dbb0 f i libprotobuf:descriptor.pb.obj
 0001:0009cbb0       ??_GFieldDescriptorProto@protobuf@google@@UEAAPEAXI@Z 000000014009dbb0 f i libprotobuf:descriptor.pb.obj
 0001:0009cbf0       ??_EFileDescriptorProto@protobuf@google@@UEAAPEAXI@Z 000000014009dbf0 f i libprotobuf:descriptor.pb.obj
 0001:0009cbf0       ??_GFileDescriptorProto@protobuf@google@@UEAAPEAXI@Z 000000014009dbf0 f i libprotobuf:descriptor.pb.obj
 0001:0009cc30       ??_EFileDescriptorSet@protobuf@google@@UEAAPEAXI@Z 000000014009dc30 f i libprotobuf:descriptor.pb.obj
 0001:0009cc30       ??_GFileDescriptorSet@protobuf@google@@UEAAPEAXI@Z 000000014009dc30 f i libprotobuf:descriptor.pb.obj
 0001:0009cc70       ??_EGeneratedCodeInfo@protobuf@google@@UEAAPEAXI@Z 000000014009dc70 f i libprotobuf:descriptor.pb.obj
 0001:0009cc70       ??_GGeneratedCodeInfo@protobuf@google@@UEAAPEAXI@Z 000000014009dc70 f i libprotobuf:descriptor.pb.obj
 0001:0009ccb0       ??_EGeneratedCodeInfo_Annotation@protobuf@google@@UEAAPEAXI@Z 000000014009dcb0 f i libprotobuf:descriptor.pb.obj
 0001:0009ccb0       ??_GGeneratedCodeInfo_Annotation@protobuf@google@@UEAAPEAXI@Z 000000014009dcb0 f i libprotobuf:descriptor.pb.obj
 0001:0009ccf0       ??_EMethodDescriptorProto@protobuf@google@@UEAAPEAXI@Z 000000014009dcf0 f i libprotobuf:descriptor.pb.obj
 0001:0009ccf0       ??_GMethodDescriptorProto@protobuf@google@@UEAAPEAXI@Z 000000014009dcf0 f i libprotobuf:descriptor.pb.obj
 0001:0009cd30       ??_EOneofDescriptorProto@protobuf@google@@UEAAPEAXI@Z 000000014009dd30 f i libprotobuf:descriptor.pb.obj
 0001:0009cd30       ??_GOneofDescriptorProto@protobuf@google@@UEAAPEAXI@Z 000000014009dd30 f i libprotobuf:descriptor.pb.obj
 0001:0009cd70       ??_EServiceDescriptorProto@protobuf@google@@UEAAPEAXI@Z 000000014009dd70 f i libprotobuf:descriptor.pb.obj
 0001:0009cd70       ??_GServiceDescriptorProto@protobuf@google@@UEAAPEAXI@Z 000000014009dd70 f i libprotobuf:descriptor.pb.obj
 0001:0009cdb0       ??_EUninterpretedOption@protobuf@google@@UEAAPEAXI@Z 000000014009ddb0 f i libprotobuf:descriptor.pb.obj
 0001:0009cdb0       ??_GUninterpretedOption@protobuf@google@@UEAAPEAXI@Z 000000014009ddb0 f i libprotobuf:descriptor.pb.obj
 0001:0009cdf0       ??_EUninterpretedOption_NamePart@protobuf@google@@UEAAPEAXI@Z 000000014009ddf0 f i libprotobuf:descriptor.pb.obj
 0001:0009cdf0       ??_GUninterpretedOption_NamePart@protobuf@google@@UEAAPEAXI@Z 000000014009ddf0 f i libprotobuf:descriptor.pb.obj
 0001:0009ce30       ?ByteSizeLong@DescriptorProto@protobuf@google@@UEBA_KXZ 000000014009de30 f   libprotobuf:descriptor.pb.obj
 0001:0009d2d0       ?ByteSizeLong@DescriptorProto_ExtensionRange@protobuf@google@@UEBA_KXZ 000000014009e2d0 f   libprotobuf:descriptor.pb.obj
 0001:0009d410       ?ByteSizeLong@DescriptorProto_ReservedRange@protobuf@google@@UEBA_KXZ 000000014009e410 f   libprotobuf:descriptor.pb.obj
 0001:0009d410       ?ByteSizeLong@EnumDescriptorProto_EnumReservedRange@protobuf@google@@UEBA_KXZ 000000014009e410 f   libprotobuf:descriptor.pb.obj
 0001:0009d470       ?ByteSizeLong@EnumDescriptorProto@protobuf@google@@UEBA_KXZ 000000014009e470 f   libprotobuf:descriptor.pb.obj
 0001:0009d720       ?ByteSizeLong@EnumOptions@protobuf@google@@UEBA_KXZ 000000014009e720 f   libprotobuf:descriptor.pb.obj
 0001:0009d7e0       ?ByteSizeLong@EnumValueDescriptorProto@protobuf@google@@UEBA_KXZ 000000014009e7e0 f   libprotobuf:descriptor.pb.obj
 0001:0009d930       ?ByteSizeLong@EnumValueOptions@protobuf@google@@UEBA_KXZ 000000014009e930 f   libprotobuf:descriptor.pb.obj
 0001:0009d9e0       ?ByteSizeLong@ExtensionRangeOptions@protobuf@google@@UEBA_KXZ 000000014009e9e0 f   libprotobuf:descriptor.pb.obj
 0001:0009d9e0       ?ByteSizeLong@OneofOptions@protobuf@google@@UEBA_KXZ 000000014009e9e0 f   libprotobuf:descriptor.pb.obj
 0001:0009da80       ?ByteSizeLong@FieldDescriptorProto@protobuf@google@@UEBA_KXZ 000000014009ea80 f   libprotobuf:descriptor.pb.obj
 0001:0009dc70       ?ByteSizeLong@FieldOptions@protobuf@google@@UEBA_KXZ 000000014009ec70 f   libprotobuf:descriptor.pb.obj
 0001:0009dd90       ?ByteSizeLong@FileDescriptorProto@protobuf@google@@UEBA_KXZ 000000014009ed90 f   libprotobuf:descriptor.pb.obj
 0001:0009e140       ?ByteSizeLong@FileDescriptorSet@protobuf@google@@UEBA_KXZ 000000014009f140 f   libprotobuf:descriptor.pb.obj
 0001:0009e1d0       ?ByteSizeLong@FileOptions@protobuf@google@@UEBA_KXZ 000000014009f1d0 f   libprotobuf:descriptor.pb.obj
 0001:0009e4f0       ?ByteSizeLong@GeneratedCodeInfo@protobuf@google@@UEBA_KXZ 000000014009f4f0 f   libprotobuf:descriptor.pb.obj
 0001:0009e670       ?ByteSizeLong@GeneratedCodeInfo_Annotation@protobuf@google@@UEBA_KXZ 000000014009f670 f   libprotobuf:descriptor.pb.obj
 0001:0009e750       ?ByteSizeLong@MessageOptions@protobuf@google@@UEBA_KXZ 000000014009f750 f   libprotobuf:descriptor.pb.obj
 0001:0009e820       ?ByteSizeLong@MethodDescriptorProto@protobuf@google@@UEBA_KXZ 000000014009f820 f   libprotobuf:descriptor.pb.obj
 0001:0009e9f0       ?ByteSizeLong@MethodOptions@protobuf@google@@UEBA_KXZ 000000014009f9f0 f   libprotobuf:descriptor.pb.obj
 0001:0009ead0       ?ByteSizeLong@OneofDescriptorProto@protobuf@google@@UEBA_KXZ 000000014009fad0 f   libprotobuf:descriptor.pb.obj
 0001:0009ec00       ?ByteSizeLong@ServiceDescriptorProto@protobuf@google@@UEBA_KXZ 000000014009fc00 f   libprotobuf:descriptor.pb.obj
 0001:0009ed80       ?ByteSizeLong@ServiceOptions@protobuf@google@@UEBA_KXZ 000000014009fd80 f   libprotobuf:descriptor.pb.obj
 0001:0009ee30       ?ByteSizeLong@SourceCodeInfo@protobuf@google@@UEBA_KXZ 000000014009fe30 f   libprotobuf:descriptor.pb.obj
 0001:0009eec0       ?ByteSizeLong@SourceCodeInfo_Location@protobuf@google@@UEBA_KXZ 000000014009fec0 f   libprotobuf:descriptor.pb.obj
 0001:0009f020       ?ByteSizeLong@UninterpretedOption@protobuf@google@@UEBA_KXZ 00000001400a0020 f   libprotobuf:descriptor.pb.obj
 0001:0009f220       ?ByteSizeLong@UninterpretedOption_NamePart@protobuf@google@@UEBA_KXZ 00000001400a0220 f   libprotobuf:descriptor.pb.obj
 0001:0009f2b0       ?Clear@DescriptorProto@protobuf@google@@UEAAXXZ 00000001400a02b0 f   libprotobuf:descriptor.pb.obj
 0001:0009f530       ?Clear@DescriptorProto_ExtensionRange@protobuf@google@@UEAAXXZ 00000001400a0530 f   libprotobuf:descriptor.pb.obj
 0001:0009f580       ?Clear@DescriptorProto_ReservedRange@protobuf@google@@UEAAXXZ 00000001400a0580 f   libprotobuf:descriptor.pb.obj
 0001:0009f580       ?Clear@EnumDescriptorProto_EnumReservedRange@protobuf@google@@UEAAXXZ 00000001400a0580 f   libprotobuf:descriptor.pb.obj
 0001:0009f5a0       ?Clear@EnumDescriptorProto@protobuf@google@@UEAAXXZ 00000001400a05a0 f   libprotobuf:descriptor.pb.obj
 0001:0009f700       ?Clear@EnumOptions@protobuf@google@@UEAAXXZ 00000001400a0700 f   libprotobuf:descriptor.pb.obj
 0001:0009f790       ?Clear@EnumValueDescriptorProto@protobuf@google@@UEAAXXZ 00000001400a0790 f   libprotobuf:descriptor.pb.obj
 0001:0009f800       ?Clear@EnumValueOptions@protobuf@google@@UEAAXXZ 00000001400a0800 f   libprotobuf:descriptor.pb.obj
 0001:0009f800       ?Clear@ServiceOptions@protobuf@google@@UEAAXXZ 00000001400a0800 f   libprotobuf:descriptor.pb.obj
 0001:0009f890       ?Clear@ExtensionRangeOptions@protobuf@google@@UEAAXXZ 00000001400a0890 f   libprotobuf:descriptor.pb.obj
 0001:0009f890       ?Clear@OneofOptions@protobuf@google@@UEAAXXZ 00000001400a0890 f   libprotobuf:descriptor.pb.obj
 0001:0009f910       ?Clear@FieldDescriptorProto@protobuf@google@@UEAAXXZ 00000001400a0910 f   libprotobuf:descriptor.pb.obj
 0001:0009fa20       ?Clear@FieldOptions@protobuf@google@@UEAAXXZ 00000001400a0a20 f   libprotobuf:descriptor.pb.obj
 0001:0009fab0       ?Clear@FileDescriptorProto@protobuf@google@@UEAAXXZ 00000001400a0ab0 f   libprotobuf:descriptor.pb.obj
 0001:0009fc80       ?Clear@FileDescriptorSet@protobuf@google@@UEAAXXZ 00000001400a0c80 f   libprotobuf:descriptor.pb.obj
 0001:0009fd00       ?Clear@FileOptions@protobuf@google@@UEAAXXZ 00000001400a0d00 f   libprotobuf:descriptor.pb.obj
 0001:0009ff10       ?Clear@GeneratedCodeInfo@protobuf@google@@UEAAXXZ 00000001400a0f10 f   libprotobuf:descriptor.pb.obj
 0001:0009ffe0       ?Clear@GeneratedCodeInfo_Annotation@protobuf@google@@UEAAXXZ 00000001400a0fe0 f   libprotobuf:descriptor.pb.obj
 0001:000a0040       ?Clear@MessageOptions@protobuf@google@@UEAAXXZ 00000001400a1040 f   libprotobuf:descriptor.pb.obj
 0001:000a00d0       ?Clear@MethodDescriptorProto@protobuf@google@@UEAAXXZ 00000001400a10d0 f   libprotobuf:descriptor.pb.obj
 0001:000a0170       ?Clear@MethodOptions@protobuf@google@@UEAAXXZ 00000001400a1170 f   libprotobuf:descriptor.pb.obj
 0001:000a0200       ?Clear@OneofDescriptorProto@protobuf@google@@UEAAXXZ 00000001400a1200 f   libprotobuf:descriptor.pb.obj
 0001:000a0260       ?Clear@ServiceDescriptorProto@protobuf@google@@UEAAXXZ 00000001400a1260 f   libprotobuf:descriptor.pb.obj
 0001:000a0320       ?Clear@SourceCodeInfo@protobuf@google@@UEAAXXZ 00000001400a1320 f   libprotobuf:descriptor.pb.obj
 0001:000a03a0       ?Clear@SourceCodeInfo_Location@protobuf@google@@UEAAXXZ 00000001400a13a0 f   libprotobuf:descriptor.pb.obj
 0001:000a0430       ?Clear@UninterpretedOption@protobuf@google@@UEAAXXZ 00000001400a1430 f   libprotobuf:descriptor.pb.obj
 0001:000a0560       ?Clear@UninterpretedOption_NamePart@protobuf@google@@UEAAXXZ 00000001400a1560 f   libprotobuf:descriptor.pb.obj
 0001:000a05a0       ?CopyFrom@EnumOptions@protobuf@google@@QEAAXAEBV123@@Z 00000001400a15a0 f   libprotobuf:descriptor.pb.obj
 0001:000a05d0       ?CopyFrom@EnumValueOptions@protobuf@google@@QEAAXAEBV123@@Z 00000001400a15d0 f   libprotobuf:descriptor.pb.obj
 0001:000a0600       ?CopyFrom@ExtensionRangeOptions@protobuf@google@@QEAAXAEBV123@@Z 00000001400a1600 f   libprotobuf:descriptor.pb.obj
 0001:000a0630       ?CopyFrom@FieldOptions@protobuf@google@@QEAAXAEBV123@@Z 00000001400a1630 f   libprotobuf:descriptor.pb.obj
 0001:000a0660       ?CopyFrom@FileOptions@protobuf@google@@QEAAXAEBV123@@Z 00000001400a1660 f   libprotobuf:descriptor.pb.obj
 0001:000a0690       ?CopyFrom@MessageOptions@protobuf@google@@QEAAXAEBV123@@Z 00000001400a1690 f   libprotobuf:descriptor.pb.obj
 0001:000a06c0       ?CopyFrom@MethodOptions@protobuf@google@@QEAAXAEBV123@@Z 00000001400a16c0 f   libprotobuf:descriptor.pb.obj
 0001:000a06f0       ?CopyFrom@OneofOptions@protobuf@google@@QEAAXAEBV123@@Z 00000001400a16f0 f   libprotobuf:descriptor.pb.obj
 0001:000a0720       ?CopyFrom@ServiceOptions@protobuf@google@@QEAAXAEBV123@@Z 00000001400a1720 f   libprotobuf:descriptor.pb.obj
 0001:000a0750       ?CopyFrom@SourceCodeInfo@protobuf@google@@QEAAXAEBV123@@Z 00000001400a1750 f   libprotobuf:descriptor.pb.obj
 0001:000a0780       ?CopyFrom@SourceCodeInfo_Location@protobuf@google@@QEAAXAEBV123@@Z 00000001400a1780 f   libprotobuf:descriptor.pb.obj
 0001:000a07b0       ?FieldOptions_JSType_descriptor@protobuf@google@@YAPEBVEnumDescriptor@12@XZ 00000001400a17b0 f   libprotobuf:descriptor.pb.obj
 0001:000a07d0       ?GetCachedSize@DescriptorProto@protobuf@google@@UEBAHXZ 00000001400a17d0 f i libprotobuf:descriptor.pb.obj
 0001:000a07d0       ?GetCachedSize@DescriptorProto_ExtensionRange@protobuf@google@@UEBAHXZ 00000001400a17d0 f i libprotobuf:descriptor.pb.obj
 0001:000a07d0       ?GetCachedSize@DescriptorProto_ReservedRange@protobuf@google@@UEBAHXZ 00000001400a17d0 f i libprotobuf:descriptor.pb.obj
 0001:000a07d0       ?GetCachedSize@EnumDescriptorProto@protobuf@google@@UEBAHXZ 00000001400a17d0 f i libprotobuf:descriptor.pb.obj
 0001:000a07d0       ?GetCachedSize@EnumDescriptorProto_EnumReservedRange@protobuf@google@@UEBAHXZ 00000001400a17d0 f i libprotobuf:descriptor.pb.obj
 0001:000a07d0       ?GetCachedSize@EnumValueDescriptorProto@protobuf@google@@UEBAHXZ 00000001400a17d0 f i libprotobuf:descriptor.pb.obj
 0001:000a07d0       ?GetCachedSize@FieldDescriptorProto@protobuf@google@@UEBAHXZ 00000001400a17d0 f i libprotobuf:descriptor.pb.obj
 0001:000a07d0       ?GetCachedSize@FileDescriptorProto@protobuf@google@@UEBAHXZ 00000001400a17d0 f i libprotobuf:descriptor.pb.obj
 0001:000a07d0       ?GetCachedSize@GeneratedCodeInfo_Annotation@protobuf@google@@UEBAHXZ 00000001400a17d0 f i libprotobuf:descriptor.pb.obj
 0001:000a07d0       ?GetCachedSize@MethodDescriptorProto@protobuf@google@@UEBAHXZ 00000001400a17d0 f i libprotobuf:descriptor.pb.obj
 0001:000a07d0       ?GetCachedSize@OneofDescriptorProto@protobuf@google@@UEBAHXZ 00000001400a17d0 f i libprotobuf:descriptor.pb.obj
 0001:000a07d0       ?GetCachedSize@ServiceDescriptorProto@protobuf@google@@UEBAHXZ 00000001400a17d0 f i libprotobuf:descriptor.pb.obj
 0001:000a07d0       ?GetCachedSize@SourceCodeInfo_Location@protobuf@google@@UEBAHXZ 00000001400a17d0 f i libprotobuf:descriptor.pb.obj
 0001:000a07d0       ?GetCachedSize@UninterpretedOption@protobuf@google@@UEBAHXZ 00000001400a17d0 f i libprotobuf:descriptor.pb.obj
 0001:000a07d0       ?GetCachedSize@UninterpretedOption_NamePart@protobuf@google@@UEBAHXZ 00000001400a17d0 f i libprotobuf:descriptor.pb.obj
 0001:000a07e0       ?GetCachedSize@EnumOptions@protobuf@google@@UEBAHXZ 00000001400a17e0 f i libprotobuf:descriptor.pb.obj
 0001:000a07e0       ?GetCachedSize@EnumValueOptions@protobuf@google@@UEBAHXZ 00000001400a17e0 f i libprotobuf:descriptor.pb.obj
 0001:000a07e0       ?GetCachedSize@FieldOptions@protobuf@google@@UEBAHXZ 00000001400a17e0 f i libprotobuf:descriptor.pb.obj
 0001:000a07e0       ?GetCachedSize@FileOptions@protobuf@google@@UEBAHXZ 00000001400a17e0 f i libprotobuf:descriptor.pb.obj
 0001:000a07e0       ?GetCachedSize@MessageOptions@protobuf@google@@UEBAHXZ 00000001400a17e0 f i libprotobuf:descriptor.pb.obj
 0001:000a07e0       ?GetCachedSize@MethodOptions@protobuf@google@@UEBAHXZ 00000001400a17e0 f i libprotobuf:descriptor.pb.obj
 0001:000a07e0       ?GetCachedSize@ServiceOptions@protobuf@google@@UEBAHXZ 00000001400a17e0 f i libprotobuf:descriptor.pb.obj
 0001:000a07f0       ?GetCachedSize@ExtensionRangeOptions@protobuf@google@@UEBAHXZ 00000001400a17f0 f i libprotobuf:descriptor.pb.obj
 0001:000a07f0       ?GetCachedSize@OneofOptions@protobuf@google@@UEBAHXZ 00000001400a17f0 f i libprotobuf:descriptor.pb.obj
 0001:000a0800       ?GetCachedSize@FileDescriptorSet@protobuf@google@@UEBAHXZ 00000001400a1800 f i libprotobuf:descriptor.pb.obj
 0001:000a0800       ?GetCachedSize@GeneratedCodeInfo@protobuf@google@@UEBAHXZ 00000001400a1800 f i libprotobuf:descriptor.pb.obj
 0001:000a0800       ?GetCachedSize@SourceCodeInfo@protobuf@google@@UEBAHXZ 00000001400a1800 f i libprotobuf:descriptor.pb.obj
 0001:000a0810       ?GetClassData@DescriptorProto@protobuf@google@@UEBAPEBUClassData@Message@23@XZ 00000001400a1810 f   libprotobuf:descriptor.pb.obj
 0001:000a0820       ?GetClassData@DescriptorProto_ExtensionRange@protobuf@google@@UEBAPEBUClassData@Message@23@XZ 00000001400a1820 f   libprotobuf:descriptor.pb.obj
 0001:000a0830       ?GetClassData@DescriptorProto_ReservedRange@protobuf@google@@UEBAPEBUClassData@Message@23@XZ 00000001400a1830 f   libprotobuf:descriptor.pb.obj
 0001:000a0840       ?GetClassData@EnumDescriptorProto@protobuf@google@@UEBAPEBUClassData@Message@23@XZ 00000001400a1840 f   libprotobuf:descriptor.pb.obj
 0001:000a0850       ?GetClassData@EnumDescriptorProto_EnumReservedRange@protobuf@google@@UEBAPEBUClassData@Message@23@XZ 00000001400a1850 f   libprotobuf:descriptor.pb.obj
 0001:000a0860       ?GetClassData@EnumOptions@protobuf@google@@UEBAPEBUClassData@Message@23@XZ 00000001400a1860 f   libprotobuf:descriptor.pb.obj
 0001:000a0870       ?GetClassData@EnumValueDescriptorProto@protobuf@google@@UEBAPEBUClassData@Message@23@XZ 00000001400a1870 f   libprotobuf:descriptor.pb.obj
 0001:000a0880       ?GetClassData@EnumValueOptions@protobuf@google@@UEBAPEBUClassData@Message@23@XZ 00000001400a1880 f   libprotobuf:descriptor.pb.obj
 0001:000a0890       ?GetClassData@ExtensionRangeOptions@protobuf@google@@UEBAPEBUClassData@Message@23@XZ 00000001400a1890 f   libprotobuf:descriptor.pb.obj
 0001:000a08a0       ?GetClassData@FieldDescriptorProto@protobuf@google@@UEBAPEBUClassData@Message@23@XZ 00000001400a18a0 f   libprotobuf:descriptor.pb.obj
 0001:000a08b0       ?GetClassData@FieldOptions@protobuf@google@@UEBAPEBUClassData@Message@23@XZ 00000001400a18b0 f   libprotobuf:descriptor.pb.obj
 0001:000a08c0       ?GetClassData@FileDescriptorProto@protobuf@google@@UEBAPEBUClassData@Message@23@XZ 00000001400a18c0 f   libprotobuf:descriptor.pb.obj
 0001:000a08d0       ?GetClassData@FileDescriptorSet@protobuf@google@@UEBAPEBUClassData@Message@23@XZ 00000001400a18d0 f   libprotobuf:descriptor.pb.obj
 0001:000a08e0       ?GetClassData@FileOptions@protobuf@google@@UEBAPEBUClassData@Message@23@XZ 00000001400a18e0 f   libprotobuf:descriptor.pb.obj
 0001:000a08f0       ?GetClassData@GeneratedCodeInfo@protobuf@google@@UEBAPEBUClassData@Message@23@XZ 00000001400a18f0 f   libprotobuf:descriptor.pb.obj
 0001:000a0900       ?GetClassData@GeneratedCodeInfo_Annotation@protobuf@google@@UEBAPEBUClassData@Message@23@XZ 00000001400a1900 f   libprotobuf:descriptor.pb.obj
 0001:000a0910       ?GetClassData@MessageOptions@protobuf@google@@UEBAPEBUClassData@Message@23@XZ 00000001400a1910 f   libprotobuf:descriptor.pb.obj
 0001:000a0920       ?GetClassData@MethodDescriptorProto@protobuf@google@@UEBAPEBUClassData@Message@23@XZ 00000001400a1920 f   libprotobuf:descriptor.pb.obj
 0001:000a0930       ?GetClassData@MethodOptions@protobuf@google@@UEBAPEBUClassData@Message@23@XZ 00000001400a1930 f   libprotobuf:descriptor.pb.obj
 0001:000a0940       ?GetClassData@OneofDescriptorProto@protobuf@google@@UEBAPEBUClassData@Message@23@XZ 00000001400a1940 f   libprotobuf:descriptor.pb.obj
 0001:000a0950       ?GetClassData@OneofOptions@protobuf@google@@UEBAPEBUClassData@Message@23@XZ 00000001400a1950 f   libprotobuf:descriptor.pb.obj
 0001:000a0960       ?GetClassData@ServiceDescriptorProto@protobuf@google@@UEBAPEBUClassData@Message@23@XZ 00000001400a1960 f   libprotobuf:descriptor.pb.obj
 0001:000a0970       ?GetClassData@ServiceOptions@protobuf@google@@UEBAPEBUClassData@Message@23@XZ 00000001400a1970 f   libprotobuf:descriptor.pb.obj
 0001:000a0980       ?GetClassData@SourceCodeInfo@protobuf@google@@UEBAPEBUClassData@Message@23@XZ 00000001400a1980 f   libprotobuf:descriptor.pb.obj
 0001:000a0990       ?GetClassData@SourceCodeInfo_Location@protobuf@google@@UEBAPEBUClassData@Message@23@XZ 00000001400a1990 f   libprotobuf:descriptor.pb.obj
 0001:000a09a0       ?GetClassData@UninterpretedOption@protobuf@google@@UEBAPEBUClassData@Message@23@XZ 00000001400a19a0 f   libprotobuf:descriptor.pb.obj
 0001:000a09b0       ?GetClassData@UninterpretedOption_NamePart@protobuf@google@@UEBAPEBUClassData@Message@23@XZ 00000001400a19b0 f   libprotobuf:descriptor.pb.obj
 0001:000a09c0       ?GetMetadata@DescriptorProto@protobuf@google@@UEBA?AUMetadata@23@XZ 00000001400a19c0 f   libprotobuf:descriptor.pb.obj
 0001:000a0a00       ?GetMetadata@DescriptorProto_ExtensionRange@protobuf@google@@UEBA?AUMetadata@23@XZ 00000001400a1a00 f   libprotobuf:descriptor.pb.obj
 0001:000a0a40       ?GetMetadata@DescriptorProto_ReservedRange@protobuf@google@@UEBA?AUMetadata@23@XZ 00000001400a1a40 f   libprotobuf:descriptor.pb.obj
 0001:000a0a80       ?GetMetadata@EnumDescriptorProto@protobuf@google@@UEBA?AUMetadata@23@XZ 00000001400a1a80 f   libprotobuf:descriptor.pb.obj
 0001:000a0ac0       ?GetMetadata@EnumDescriptorProto_EnumReservedRange@protobuf@google@@UEBA?AUMetadata@23@XZ 00000001400a1ac0 f   libprotobuf:descriptor.pb.obj
 0001:000a0b00       ?GetMetadata@EnumOptions@protobuf@google@@UEBA?AUMetadata@23@XZ 00000001400a1b00 f   libprotobuf:descriptor.pb.obj
 0001:000a0b40       ?GetMetadata@EnumValueDescriptorProto@protobuf@google@@UEBA?AUMetadata@23@XZ 00000001400a1b40 f   libprotobuf:descriptor.pb.obj
 0001:000a0b80       ?GetMetadata@EnumValueOptions@protobuf@google@@UEBA?AUMetadata@23@XZ 00000001400a1b80 f   libprotobuf:descriptor.pb.obj
 0001:000a0bc0       ?GetMetadata@ExtensionRangeOptions@protobuf@google@@UEBA?AUMetadata@23@XZ 00000001400a1bc0 f   libprotobuf:descriptor.pb.obj
 0001:000a0c00       ?GetMetadata@FieldDescriptorProto@protobuf@google@@UEBA?AUMetadata@23@XZ 00000001400a1c00 f   libprotobuf:descriptor.pb.obj
 0001:000a0c40       ?GetMetadata@FieldOptions@protobuf@google@@UEBA?AUMetadata@23@XZ 00000001400a1c40 f   libprotobuf:descriptor.pb.obj
 0001:000a0c80       ?GetMetadata@FileDescriptorProto@protobuf@google@@UEBA?AUMetadata@23@XZ 00000001400a1c80 f   libprotobuf:descriptor.pb.obj
 0001:000a0cc0       ?GetMetadata@FileDescriptorSet@protobuf@google@@UEBA?AUMetadata@23@XZ 00000001400a1cc0 f   libprotobuf:descriptor.pb.obj
 0001:000a0d00       ?GetMetadata@FileOptions@protobuf@google@@UEBA?AUMetadata@23@XZ 00000001400a1d00 f   libprotobuf:descriptor.pb.obj
 0001:000a0d40       ?GetMetadata@GeneratedCodeInfo@protobuf@google@@UEBA?AUMetadata@23@XZ 00000001400a1d40 f   libprotobuf:descriptor.pb.obj
 0001:000a0d80       ?GetMetadata@GeneratedCodeInfo_Annotation@protobuf@google@@UEBA?AUMetadata@23@XZ 00000001400a1d80 f   libprotobuf:descriptor.pb.obj
 0001:000a0dc0       ?GetMetadata@MessageOptions@protobuf@google@@UEBA?AUMetadata@23@XZ 00000001400a1dc0 f   libprotobuf:descriptor.pb.obj
 0001:000a0e00       ?GetMetadata@MethodDescriptorProto@protobuf@google@@UEBA?AUMetadata@23@XZ 00000001400a1e00 f   libprotobuf:descriptor.pb.obj
 0001:000a0e40       ?GetMetadata@MethodOptions@protobuf@google@@UEBA?AUMetadata@23@XZ 00000001400a1e40 f   libprotobuf:descriptor.pb.obj
